Archive member included because of file (symbol)

.\CortexM0\ARM_GCC_493\Debug\BLE Lab 3.a(cyfitter_cfg.o)
                              .\CortexM0\ARM_GCC_493\Debug\Cm0Start.o (cyfitter_cfg)
.\CortexM0\ARM_GCC_493\Debug\BLE Lab 3.a(SW2_Switch.o)
                              .\CortexM0\ARM_GCC_493\Debug\main.o (SW2_Switch_ClearInterrupt)
.\CortexM0\ARM_GCC_493\Debug\BLE Lab 3.a(Wakeup_ISR.o)
                              .\CortexM0\ARM_GCC_493\Debug\main.o (Wakeup_ISR_Start)
.\CortexM0\ARM_GCC_493\Debug\BLE Lab 3.a(Led_Advertising_Green.o)
                              .\CortexM0\ARM_GCC_493\Debug\main.o (Led_Advertising_Green_Write)
.\CortexM0\ARM_GCC_493\Debug\BLE Lab 3.a(Led_Connected_Blue.o)
                              .\CortexM0\ARM_GCC_493\Debug\main.o (Led_Connected_Blue_Write)
.\CortexM0\ARM_GCC_493\Debug\BLE Lab 3.a(BLE_hrs.o)
                              .\CortexM0\ARM_GCC_493\Debug\main.o (CyBle_HrsRegisterAttrCallback)
.\CortexM0\ARM_GCC_493\Debug\BLE Lab 3.a(BLE.o)
                              .\CortexM0\ARM_GCC_493\Debug\BLE Lab 3.a(BLE_hrs.o) (CyBle_ApplCallback)
.\CortexM0\ARM_GCC_493\Debug\BLE Lab 3.a(BLE_gatt.o)
                              .\CortexM0\ARM_GCC_493\Debug\BleProcessing.o (cyBle_state)
.\CortexM0\ARM_GCC_493\Debug\BLE Lab 3.a(BLE_eventHandler.o)
                              .\CortexM0\ARM_GCC_493\Debug\BleProcessing.o (cyBle_connHandle)
.\CortexM0\ARM_GCC_493\Debug\BLE Lab 3.a(BLE_dis.o)
                              .\CortexM0\ARM_GCC_493\Debug\BLE Lab 3.a(BLE.o) (CyBle_DisInit)
.\CortexM0\ARM_GCC_493\Debug\BLE Lab 3.a(Opamp.o)
                              .\CortexM0\ARM_GCC_493\Debug\main.o (Opamp_Start)
.\CortexM0\ARM_GCC_493\Debug\BLE Lab 3.a(ADC.o)
                              .\CortexM0\ARM_GCC_493\Debug\main.o (ADC_Start)
.\CortexM0\ARM_GCC_493\Debug\BLE Lab 3.a(ADC_PM.o)
                              .\CortexM0\ARM_GCC_493\Debug\main.o (ADC_Sleep)
.\CortexM0\ARM_GCC_493\Debug\BLE Lab 3.a(ADC_INT.o)
                              .\CortexM0\ARM_GCC_493\Debug\BLE Lab 3.a(ADC.o) (ADC_ISR)
.\CortexM0\ARM_GCC_493\Debug\BLE Lab 3.a(CyBootAsmGnu.o)
                              .\CortexM0\ARM_GCC_493\Debug\BLE Lab 3.a(cyfitter_cfg.o) (CyDelayCycles)
.\CortexM0\ARM_GCC_493\Debug\BLE Lab 3.a(CyLib.o)
                              .\CortexM0\ARM_GCC_493\Debug\BLE Lab 3.a(cyfitter_cfg.o) (CySysClkWriteImoFreq)
.\CortexM0\ARM_GCC_493\Debug\BLE Lab 3.a(cyPm.o)
                              .\CortexM0\ARM_GCC_493\Debug\main.o (CySysPmSleep)
.\CortexM0\ARM_GCC_493\Debug\BLE Lab 3.a(CyLFClk.o)
                              .\CortexM0\ARM_GCC_493\Debug\BLE Lab 3.a(cyfitter_cfg.o) (CySysClkWcoStart)
C:\9047software\PSoC Creator\3.3\PSoC Creator\psoc\content\cycomponentlibrary\CyComponentLibrary.cylib\BLE_v2_0\Library\gccCyBLEStack_BLE_SOC_PERIPHERAL.a(CyBle.o)
                              .\CortexM0\ARM_GCC_493\Debug\main.o (CyBle_EnterLPM)
C:\9047software\PSoC Creator\3.3\PSoC Creator\psoc\content\cycomponentlibrary\CyComponentLibrary.cylib\BLE_v2_0\Library\gccCyBLEStack_BLE_SOC_PERIPHERAL.a(CyBleStackMgrIP_Interface.o)
                              C:\9047software\PSoC Creator\3.3\PSoC Creator\psoc\content\cycomponentlibrary\CyComponentLibrary.cylib\BLE_v2_0\Library\gccCyBLEStack_BLE_SOC_PERIPHERAL.a(CyBle.o) (CyBleStackMgr_Init)
C:\9047software\PSoC Creator\3.3\PSoC Creator\psoc\content\cycomponentlibrary\CyComponentLibrary.cylib\BLE_v2_0\Library\gccCyBLEStack_BLE_SOC_PERIPHERAL.a(BT_os.o)
                              C:\9047software\PSoC Creator\3.3\PSoC Creator\psoc\content\cycomponentlibrary\CyComponentLibrary.cylib\BLE_v2_0\Library\gccCyBLEStack_BLE_SOC_PERIPHERAL.a(CyBleStackMgrIP_Interface.o) (cyBleStackMemoryConfig)
C:\9047software\PSoC Creator\3.3\PSoC Creator\psoc\content\cycomponentlibrary\CyComponentLibrary.cylib\BLE_v2_0\Library\gccCyBLEStack_BLE_SOC_PERIPHERAL.a(CyBleStackMgr_StackTaskHandler.o)
                              C:\9047software\PSoC Creator\3.3\PSoC Creator\psoc\content\cycomponentlibrary\CyComponentLibrary.cylib\BLE_v2_0\Library\gccCyBLEStack_BLE_SOC_PERIPHERAL.a(CyBleStackMgrIP_Interface.o) (CyBle_CreateBleStackTask)
C:\9047software\PSoC Creator\3.3\PSoC Creator\psoc\content\cycomponentlibrary\CyComponentLibrary.cylib\BLE_v2_0\Library\gccCyBLEStack_BLE_SOC_PERIPHERAL.a(transport_sf.o)
                              C:\9047software\PSoC Creator\3.3\PSoC Creator\psoc\content\cycomponentlibrary\CyComponentLibrary.cylib\BLE_v2_0\Library\gccCyBLEStack_BLE_SOC_PERIPHERAL.a(CyBleStackMgr_StackTaskHandler.o) (hci_soft_transport_notify_data_received)
C:\9047software\PSoC Creator\3.3\PSoC Creator\psoc\content\cycomponentlibrary\CyComponentLibrary.cylib\BLE_v2_0\Library\gccCyBLEStack_BLE_SOC_PERIPHERAL.a(CyBleStackMgr_PSoCHal.o)
                              C:\9047software\PSoC Creator\3.3\PSoC Creator\psoc\content\cycomponentlibrary\CyComponentLibrary.cylib\BLE_v2_0\Library\gccCyBLEStack_BLE_SOC_PERIPHERAL.a(CyBleStackMgrIP_Interface.o) (CyBleStackMgr_HalInit)
C:\9047software\PSoC Creator\3.3\PSoC Creator\psoc\content\cycomponentlibrary\CyComponentLibrary.cylib\BLE_v2_0\Library\gccCyBLEStack_BLE_SOC_PERIPHERAL.a(CyBleStackMgr_BleSSDriver.o)
                              C:\9047software\PSoC Creator\3.3\PSoC Creator\psoc\content\cycomponentlibrary\CyComponentLibrary.cylib\BLE_v2_0\Library\gccCyBLEStack_BLE_SOC_PERIPHERAL.a(CyBleStackMgrIP_Interface.o) (CyBleStackMgr_BleSSInit)
C:\9047software\PSoC Creator\3.3\PSoC Creator\psoc\content\cycomponentlibrary\CyComponentLibrary.cylib\BLE_v2_0\Library\gccCyBLEStack_BLE_SOC_PERIPHERAL.a(config_bin.o)
                              C:\9047software\PSoC Creator\3.3\PSoC Creator\psoc\content\cycomponentlibrary\CyComponentLibrary.cylib\BLE_v2_0\Library\gccCyBLEStack_BLE_SOC_PERIPHERAL.a(CyBleStackMgr_PSoCHal.o) (bt_cfg_pdata)
C:\9047software\PSoC Creator\3.3\PSoC Creator\psoc\content\cycomponentlibrary\CyComponentLibrary.cylib\BLE_v2_0\Library\gccCyBLEStack_BLE_SOC_PERIPHERAL.a(mint_os.o)
                              C:\9047software\PSoC Creator\3.3\PSoC Creator\psoc\content\cycomponentlibrary\CyComponentLibrary.cylib\BLE_v2_0\Library\gccCyBLEStack_BLE_SOC_PERIPHERAL.a(CyBleStackMgrIP_Interface.o) (OS_init)
C:\9047software\PSoC Creator\3.3\PSoC Creator\psoc\content\cycomponentlibrary\CyComponentLibrary.cylib\BLE_v2_0\Library\gccCyBLEStack_BLE_SOC_PERIPHERAL.a(mint_os_queue.o)
                              C:\9047software\PSoC Creator\3.3\PSoC Creator\psoc\content\cycomponentlibrary\CyComponentLibrary.cylib\BLE_v2_0\Library\gccCyBLEStack_BLE_SOC_PERIPHERAL.a(mint_os.o) (OS_TOTAL_QUEUES)
C:\9047software\PSoC Creator\3.3\PSoC Creator\psoc\content\cycomponentlibrary\CyComponentLibrary.cylib\BLE_v2_0\Library\gccCyBLEStack_BLE_SOC_PERIPHERAL.a(mint_os_task.o)
                              C:\9047software\PSoC Creator\3.3\PSoC Creator\psoc\content\cycomponentlibrary\CyComponentLibrary.cylib\BLE_v2_0\Library\gccCyBLEStack_BLE_SOC_PERIPHERAL.a(mint_os.o) (idle_func_handler)
C:\9047software\PSoC Creator\3.3\PSoC Creator\psoc\content\cycomponentlibrary\CyComponentLibrary.cylib\BLE_v2_0\Library\gccCyBLEStack_BLE_SOC_PERIPHERAL.a(mint_buf_mgmt.o)
                              C:\9047software\PSoC Creator\3.3\PSoC Creator\psoc\content\cycomponentlibrary\CyComponentLibrary.cylib\BLE_v2_0\Library\gccCyBLEStack_BLE_SOC_PERIPHERAL.a(BT_os.o) (mint_buf_mgmt_allocate_buffer)
C:\9047software\PSoC Creator\3.3\PSoC Creator\psoc\content\cycomponentlibrary\CyComponentLibrary.cylib\BLE_v2_0\Library\gccCyBLEStack_BLE_SOC_PERIPHERAL.a(CyBleControllerIP_Interface.o)
                              C:\9047software\PSoC Creator\3.3\PSoC Creator\psoc\content\cycomponentlibrary\CyComponentLibrary.cylib\BLE_v2_0\Library\gccCyBLEStack_BLE_SOC_PERIPHERAL.a(CyBleStackMgr_PSoCHal.o) (bt_config)
C:\9047software\PSoC Creator\3.3\PSoC Creator\psoc\content\cycomponentlibrary\CyComponentLibrary.cylib\BLE_v2_0\Library\gccCyBLEStack_BLE_SOC_PERIPHERAL.a(ll.o)
                              C:\9047software\PSoC Creator\3.3\PSoC Creator\psoc\content\cycomponentlibrary\CyComponentLibrary.cylib\BLE_v2_0\Library\gccCyBLEStack_BLE_SOC_PERIPHERAL.a(CyBleControllerIP_Interface.o) (ll_self_device_data)
C:\9047software\PSoC Creator\3.3\PSoC Creator\psoc\content\cycomponentlibrary\CyComponentLibrary.cylib\BLE_v2_0\Library\gccCyBLEStack_BLE_SOC_PERIPHERAL.a(ll_advertiser.o)
                              C:\9047software\PSoC Creator\3.3\PSoC Creator\psoc\content\cycomponentlibrary\CyComponentLibrary.cylib\BLE_v2_0\Library\gccCyBLEStack_BLE_SOC_PERIPHERAL.a(CyBleControllerIP_Interface.o) (CyBleControllerIP_TuneAdvEventInterPktSlots)
C:\9047software\PSoC Creator\3.3\PSoC Creator\psoc\content\cycomponentlibrary\CyComponentLibrary.cylib\BLE_v2_0\Library\gccCyBLEStack_BLE_SOC_PERIPHERAL.a(ll_connection.o)
                              C:\9047software\PSoC Creator\3.3\PSoC Creator\psoc\content\cycomponentlibrary\CyComponentLibrary.cylib\BLE_v2_0\Library\gccCyBLEStack_BLE_SOC_PERIPHERAL.a(ll.o) (bleSlDsmFix)
C:\9047software\PSoC Creator\3.3\PSoC Creator\psoc\content\cycomponentlibrary\CyComponentLibrary.cylib\BLE_v2_0\Library\gccCyBLEStack_BLE_SOC_PERIPHERAL.a(llh_api.o)
                              C:\9047software\PSoC Creator\3.3\PSoC Creator\psoc\content\cycomponentlibrary\CyComponentLibrary.cylib\BLE_v2_0\Library\gccCyBLEStack_BLE_SOC_PERIPHERAL.a(ll_advertiser.o) (ll_disable_interrupt_type)
C:\9047software\PSoC Creator\3.3\PSoC Creator\psoc\content\cycomponentlibrary\CyComponentLibrary.cylib\BLE_v2_0\Library\gccCyBLEStack_BLE_SOC_PERIPHERAL.a(llh_utils.o)
                              C:\9047software\PSoC Creator\3.3\PSoC Creator\psoc\content\cycomponentlibrary\CyComponentLibrary.cylib\BLE_v2_0\Library\gccCyBLEStack_BLE_SOC_PERIPHERAL.a(llh_api.o) (le_set_register_bit)
C:\9047software\PSoC Creator\3.3\PSoC Creator\psoc\content\cycomponentlibrary\CyComponentLibrary.cylib\BLE_v2_0\Library\gccCyBLEStack_BLE_SOC_PERIPHERAL.a(ll_pdu.o)
                              C:\9047software\PSoC Creator\3.3\PSoC Creator\psoc\content\cycomponentlibrary\CyComponentLibrary.cylib\BLE_v2_0\Library\gccCyBLEStack_BLE_SOC_PERIPHERAL.a(ll_connection.o) (ll_allocate_send_unknown_rsp_pdu)
C:\9047software\PSoC Creator\3.3\PSoC Creator\psoc\content\cycomponentlibrary\CyComponentLibrary.cylib\BLE_v2_0\Library\gccCyBLEStack_BLE_SOC_PERIPHERAL.a(ll_policies.o)
                              C:\9047software\PSoC Creator\3.3\PSoC Creator\psoc\content\cycomponentlibrary\CyComponentLibrary.cylib\BLE_v2_0\Library\gccCyBLEStack_BLE_SOC_PERIPHERAL.a(ll_advertiser.o) (ll_derive_adv_interval)
C:\9047software\PSoC Creator\3.3\PSoC Creator\psoc\content\cycomponentlibrary\CyComponentLibrary.cylib\BLE_v2_0\Library\gccCyBLEStack_BLE_SOC_PERIPHERAL.a(ll_tasks.o)
                              C:\9047software\PSoC Creator\3.3\PSoC Creator\psoc\content\cycomponentlibrary\CyComponentLibrary.cylib\BLE_v2_0\Library\gccCyBLEStack_BLE_SOC_PERIPHERAL.a(ll.o) (lastDsmExitSlot)
C:\9047software\PSoC Creator\3.3\PSoC Creator\psoc\content\cycomponentlibrary\CyComponentLibrary.cylib\BLE_v2_0\Library\gccCyBLEStack_BLE_SOC_PERIPHERAL.a(ll_utils.o)
                              C:\9047software\PSoC Creator\3.3\PSoC Creator\psoc\content\cycomponentlibrary\CyComponentLibrary.cylib\BLE_v2_0\Library\gccCyBLEStack_BLE_SOC_PERIPHERAL.a(ll.o) (ll_check_random_address_in_use)
C:\9047software\PSoC Creator\3.3\PSoC Creator\psoc\content\cycomponentlibrary\CyComponentLibrary.cylib\BLE_v2_0\Library\gccCyBLEStack_BLE_SOC_PERIPHERAL.a(llf_task.o)
                              C:\9047software\PSoC Creator\3.3\PSoC Creator\psoc\content\cycomponentlibrary\CyComponentLibrary.cylib\BLE_v2_0\Library\gccCyBLEStack_BLE_SOC_PERIPHERAL.a(ll.o) (isBleControllerLLFTFree)
C:\9047software\PSoC Creator\3.3\PSoC Creator\psoc\content\cycomponentlibrary\CyComponentLibrary.cylib\BLE_v2_0\Library\gccCyBLEStack_BLE_SOC_PERIPHERAL.a(lec_hci_le.o)
                              C:\9047software\PSoC Creator\3.3\PSoC Creator\psoc\content\cycomponentlibrary\CyComponentLibrary.cylib\BLE_v2_0\Library\gccCyBLEStack_BLE_SOC_PERIPHERAL.a(ll_tasks.o) (lec_hci_handle_command_pkts)
C:\9047software\PSoC Creator\3.3\PSoC Creator\psoc\content\cycomponentlibrary\CyComponentLibrary.cylib\BLE_v2_0\Library\gccCyBLEStack_BLE_SOC_PERIPHERAL.a(lec_hci_le_commands.o)
                              C:\9047software\PSoC Creator\3.3\PSoC Creator\psoc\content\cycomponentlibrary\CyComponentLibrary.cylib\BLE_v2_0\Library\gccCyBLEStack_BLE_SOC_PERIPHERAL.a(ll_connection.o) (hci_le_generate_command_status_event)
C:\9047software\PSoC Creator\3.3\PSoC Creator\psoc\content\cycomponentlibrary\CyComponentLibrary.cylib\BLE_v2_0\Library\gccCyBLEStack_BLE_SOC_PERIPHERAL.a(lec_hci_le_common_commands.o)
                              C:\9047software\PSoC Creator\3.3\PSoC Creator\psoc\content\cycomponentlibrary\CyComponentLibrary.cylib\BLE_v2_0\Library\gccCyBLEStack_BLE_SOC_PERIPHERAL.a(CyBleControllerIP_Interface.o) (lec_hci_handle_add_to_white_list_command)
C:\9047software\PSoC Creator\3.3\PSoC Creator\psoc\content\cycomponentlibrary\CyComponentLibrary.cylib\BLE_v2_0\Library\gccCyBLEStack_BLE_SOC_PERIPHERAL.a(lec_hci_le_conn_commands.o)
                              C:\9047software\PSoC Creator\3.3\PSoC Creator\psoc\content\cycomponentlibrary\CyComponentLibrary.cylib\BLE_v2_0\Library\gccCyBLEStack_BLE_SOC_PERIPHERAL.a(ll_pdu.o) (hci_generate_le_conn_update_complete_event)
C:\9047software\PSoC Creator\3.3\PSoC Creator\psoc\content\cycomponentlibrary\CyComponentLibrary.cylib\BLE_v2_0\Library\gccCyBLEStack_BLE_SOC_PERIPHERAL.a(lec_hci_le_encryption_commands.o)
                              C:\9047software\PSoC Creator\3.3\PSoC Creator\psoc\content\cycomponentlibrary\CyComponentLibrary.cylib\BLE_v2_0\Library\gccCyBLEStack_BLE_SOC_PERIPHERAL.a(ll.o) (hci_le_generate_encrypt_cmd_complete_event)
C:\9047software\PSoC Creator\3.3\PSoC Creator\psoc\content\cycomponentlibrary\CyComponentLibrary.cylib\BLE_v2_0\Library\gccCyBLEStack_BLE_SOC_PERIPHERAL.a(lec_hci_le_utils.o)
                              C:\9047software\PSoC Creator\3.3\PSoC Creator\psoc\content\cycomponentlibrary\CyComponentLibrary.cylib\BLE_v2_0\Library\gccCyBLEStack_BLE_SOC_PERIPHERAL.a(lec_hci_le_commands.o) (hci_alloc_event_buffer)
C:\9047software\PSoC Creator\3.3\PSoC Creator\psoc\content\cycomponentlibrary\CyComponentLibrary.cylib\BLE_v2_0\Library\gccCyBLEStack_BLE_SOC_PERIPHERAL.a(lec_hci_param_converter.o)
                              C:\9047software\PSoC Creator\3.3\PSoC Creator\psoc\content\cycomponentlibrary\CyComponentLibrary.cylib\BLE_v2_0\Library\gccCyBLEStack_BLE_SOC_PERIPHERAL.a(lec_hci_le_commands.o) (lec_hci_convert_add_dev_whitelist_command)
C:\9047software\PSoC Creator\3.3\PSoC Creator\psoc\content\cycomponentlibrary\CyComponentLibrary.cylib\BLE_v2_0\Library\gccCyBLEStack_BLE_SOC_PERIPHERAL.a(lec_hci_param_validation.o)
                              C:\9047software\PSoC Creator\3.3\PSoC Creator\psoc\content\cycomponentlibrary\CyComponentLibrary.cylib\BLE_v2_0\Library\gccCyBLEStack_BLE_SOC_PERIPHERAL.a(lec_hci_le_commands.o) (hci_validate_le_add_rem_dev_in_wh_list_cmd)
C:\9047software\PSoC Creator\3.3\PSoC Creator\psoc\content\cycomponentlibrary\CyComponentLibrary.cylib\BLE_v2_0\Library\gccCyBLEStack_BLE_SOC_PERIPHERAL.a(hci_td.o)
                              C:\9047software\PSoC Creator\3.3\PSoC Creator\psoc\content\cycomponentlibrary\CyComponentLibrary.cylib\BLE_v2_0\Library\gccCyBLEStack_BLE_SOC_PERIPHERAL.a(transport_sf.o) (hci_td_handle_received_packet)
C:\9047software\PSoC Creator\3.3\PSoC Creator\psoc\content\cycomponentlibrary\CyComponentLibrary.cylib\BLE_v2_0\Library\gccCyBLEStack_BLE_SOC_PERIPHERAL.a(hci_td_api.o)
                              C:\9047software\PSoC Creator\3.3\PSoC Creator\psoc\content\cycomponentlibrary\CyComponentLibrary.cylib\BLE_v2_0\Library\gccCyBLEStack_BLE_SOC_PERIPHERAL.a(lec_hci_le_utils.o) (hci_td_struct)
C:\9047software\PSoC Creator\3.3\PSoC Creator\psoc\content\cycomponentlibrary\CyComponentLibrary.cylib\BLE_v2_0\Library\gccCyBLEStack_BLE_SOC_PERIPHERAL.a(hci_td_task.o)
                              C:\9047software\PSoC Creator\3.3\PSoC Creator\psoc\content\cycomponentlibrary\CyComponentLibrary.cylib\BLE_v2_0\Library\gccCyBLEStack_BLE_SOC_PERIPHERAL.a(llf_task.o) (hci_td_process_signal)
C:\9047software\PSoC Creator\3.3\PSoC Creator\psoc\content\cycomponentlibrary\CyComponentLibrary.cylib\BLE_v2_0\Library\gccCyBLEStack_BLE_SOC_PERIPHERAL.a(host_main.o)
                              C:\9047software\PSoC Creator\3.3\PSoC Creator\psoc\content\cycomponentlibrary\CyComponentLibrary.cylib\BLE_v2_0\Library\gccCyBLEStack_BLE_SOC_PERIPHERAL.a(CyBle.o) (CyBle_HostStackInit)
C:\9047software\PSoC Creator\3.3\PSoC Creator\psoc\content\cycomponentlibrary\CyComponentLibrary.cylib\BLE_v2_0\Library\gccCyBLEStack_BLE_SOC_PERIPHERAL.a(att_api.o)
                              C:\9047software\PSoC Creator\3.3\PSoC Creator\psoc\content\cycomponentlibrary\CyComponentLibrary.cylib\BLE_v2_0\Library\gccCyBLEStack_BLE_SOC_PERIPHERAL.a(host_main.o) (BT_att_register)
C:\9047software\PSoC Creator\3.3\PSoC Creator\psoc\content\cycomponentlibrary\CyComponentLibrary.cylib\BLE_v2_0\Library\gccCyBLEStack_BLE_SOC_PERIPHERAL.a(att_init.o)
                              C:\9047software\PSoC Creator\3.3\PSoC Creator\psoc\content\cycomponentlibrary\CyComponentLibrary.cylib\BLE_v2_0\Library\gccCyBLEStack_BLE_SOC_PERIPHERAL.a(att_api.o) (att_connections)
C:\9047software\PSoC Creator\3.3\PSoC Creator\psoc\content\cycomponentlibrary\CyComponentLibrary.cylib\BLE_v2_0\Library\gccCyBLEStack_BLE_SOC_PERIPHERAL.a(att_internal.o)
                              C:\9047software\PSoC Creator\3.3\PSoC Creator\psoc\content\cycomponentlibrary\CyComponentLibrary.cylib\BLE_v2_0\Library\gccCyBLEStack_BLE_SOC_PERIPHERAL.a(att_api.o) (att_get_fsm_event)
C:\9047software\PSoC Creator\3.3\PSoC Creator\psoc\content\cycomponentlibrary\CyComponentLibrary.cylib\BLE_v2_0\Library\gccCyBLEStack_BLE_SOC_PERIPHERAL.a(BT_common.o)
                              C:\9047software\PSoC Creator\3.3\PSoC Creator\psoc\content\cycomponentlibrary\CyComponentLibrary.cylib\BLE_v2_0\Library\gccCyBLEStack_BLE_SOC_PERIPHERAL.a(host_main.o) (BT_bluetooth_off)
C:\9047software\PSoC Creator\3.3\PSoC Creator\psoc\content\cycomponentlibrary\CyComponentLibrary.cylib\BLE_v2_0\Library\gccCyBLEStack_BLE_SOC_PERIPHERAL.a(device_queue.o)
                              C:\9047software\PSoC Creator\3.3\PSoC Creator\psoc\content\cycomponentlibrary\CyComponentLibrary.cylib\BLE_v2_0\Library\gccCyBLEStack_BLE_SOC_PERIPHERAL.a(BT_common.o) (device_queue_bt_init)
C:\9047software\PSoC Creator\3.3\PSoC Creator\psoc\content\cycomponentlibrary\CyComponentLibrary.cylib\BLE_v2_0\Library\gccCyBLEStack_BLE_SOC_PERIPHERAL.a(l2cap.o)
                              C:\9047software\PSoC Creator\3.3\PSoC Creator\psoc\content\cycomponentlibrary\CyComponentLibrary.cylib\BLE_v2_0\Library\gccCyBLEStack_BLE_SOC_PERIPHERAL.a(host_main.o) (CyBle_L2capCB)
C:\9047software\PSoC Creator\3.3\PSoC Creator\psoc\content\cycomponentlibrary\CyComponentLibrary.cylib\BLE_v2_0\Library\gccCyBLEStack_BLE_SOC_PERIPHERAL.a(l2cap_disconnect.o)
                              C:\9047software\PSoC Creator\3.3\PSoC Creator\psoc\content\cycomponentlibrary\CyComponentLibrary.cylib\BLE_v2_0\Library\gccCyBLEStack_BLE_SOC_PERIPHERAL.a(l2cap.o) (l2ca_disconnect_req)
C:\9047software\PSoC Creator\3.3\PSoC Creator\psoc\content\cycomponentlibrary\CyComponentLibrary.cylib\BLE_v2_0\Library\gccCyBLEStack_BLE_SOC_PERIPHERAL.a(l2cap_init.o)
                              C:\9047software\PSoC Creator\3.3\PSoC Creator\psoc\content\cycomponentlibrary\CyComponentLibrary.cylib\BLE_v2_0\Library\gccCyBLEStack_BLE_SOC_PERIPHERAL.a(l2cap_disconnect.o) (l2cap_sigch_list)
C:\9047software\PSoC Creator\3.3\PSoC Creator\psoc\content\cycomponentlibrary\CyComponentLibrary.cylib\BLE_v2_0\Library\gccCyBLEStack_BLE_SOC_PERIPHERAL.a(l2cap_utils.o)
                              C:\9047software\PSoC Creator\3.3\PSoC Creator\psoc\content\cycomponentlibrary\CyComponentLibrary.cylib\BLE_v2_0\Library\gccCyBLEStack_BLE_SOC_PERIPHERAL.a(l2cap_disconnect.o) (l2cap_buffer_dequeue)
C:\9047software\PSoC Creator\3.3\PSoC Creator\psoc\content\cycomponentlibrary\CyComponentLibrary.cylib\BLE_v2_0\Library\gccCyBLEStack_BLE_SOC_PERIPHERAL.a(l2cap_lmp.o)
                              C:\9047software\PSoC Creator\3.3\PSoC Creator\psoc\content\cycomponentlibrary\CyComponentLibrary.cylib\BLE_v2_0\Library\gccCyBLEStack_BLE_SOC_PERIPHERAL.a(l2cap_utils.o) (l2cap_schedule_data_tx)
C:\9047software\PSoC Creator\3.3\PSoC Creator\psoc\content\cycomponentlibrary\CyComponentLibrary.cylib\BLE_v2_0\Library\gccCyBLEStack_BLE_SOC_PERIPHERAL.a(l2cap_le.o)
                              C:\9047software\PSoC Creator\3.3\PSoC Creator\psoc\content\cycomponentlibrary\CyComponentLibrary.cylib\BLE_v2_0\Library\gccCyBLEStack_BLE_SOC_PERIPHERAL.a(l2cap.o) (BT_l2cap_le_connection_param_update_request)
C:\9047software\PSoC Creator\3.3\PSoC Creator\psoc\content\cycomponentlibrary\CyComponentLibrary.cylib\BLE_v2_0\Library\gccCyBLEStack_BLE_SOC_PERIPHERAL.a(l2cap_fixed_channel.o)
                              C:\9047software\PSoC Creator\3.3\PSoC Creator\psoc\content\cycomponentlibrary\CyComponentLibrary.cylib\BLE_v2_0\Library\gccCyBLEStack_BLE_SOC_PERIPHERAL.a(att_internal.o) (l2cap_fixed_channel_data_write)
C:\9047software\PSoC Creator\3.3\PSoC Creator\psoc\content\cycomponentlibrary\CyComponentLibrary.cylib\BLE_v2_0\Library\gccCyBLEStack_BLE_SOC_PERIPHERAL.a(l2cap_channels.o)
                              C:\9047software\PSoC Creator\3.3\PSoC Creator\psoc\content\cycomponentlibrary\CyComponentLibrary.cylib\BLE_v2_0\Library\gccCyBLEStack_BLE_SOC_PERIPHERAL.a(l2cap.o) (l2cap_free_channel)
C:\9047software\PSoC Creator\3.3\PSoC Creator\psoc\content\cycomponentlibrary\CyComponentLibrary.cylib\BLE_v2_0\Library\gccCyBLEStack_BLE_SOC_PERIPHERAL.a(l2cap_credit_mode.o)
                              C:\9047software\PSoC Creator\3.3\PSoC Creator\psoc\content\cycomponentlibrary\CyComponentLibrary.cylib\BLE_v2_0\Library\gccCyBLEStack_BLE_SOC_PERIPHERAL.a(l2cap.o) (l2ca_cbfc_connect_req)
C:\9047software\PSoC Creator\3.3\PSoC Creator\psoc\content\cycomponentlibrary\CyComponentLibrary.cylib\BLE_v2_0\Library\gccCyBLEStack_BLE_SOC_PERIPHERAL.a(l2cap_command.o)
                              C:\9047software\PSoC Creator\3.3\PSoC Creator\psoc\content\cycomponentlibrary\CyComponentLibrary.cylib\BLE_v2_0\Library\gccCyBLEStack_BLE_SOC_PERIPHERAL.a(l2cap_init.o) (l2cap_command_rej)
C:\9047software\PSoC Creator\3.3\PSoC Creator\psoc\content\cycomponentlibrary\CyComponentLibrary.cylib\BLE_v2_0\Library\gccCyBLEStack_BLE_SOC_PERIPHERAL.a(fsm_engine.o)
                              C:\9047software\PSoC Creator\3.3\PSoC Creator\psoc\content\cycomponentlibrary\CyComponentLibrary.cylib\BLE_v2_0\Library\gccCyBLEStack_BLE_SOC_PERIPHERAL.a(att_api.o) (fsm_post_event)
C:\9047software\PSoC Creator\3.3\PSoC Creator\psoc\content\cycomponentlibrary\CyComponentLibrary.cylib\BLE_v2_0\Library\gccCyBLEStack_BLE_SOC_PERIPHERAL.a(fsm_engine_pl.o)
                              C:\9047software\PSoC Creator\3.3\PSoC Creator\psoc\content\cycomponentlibrary\CyComponentLibrary.cylib\BLE_v2_0\Library\gccCyBLEStack_BLE_SOC_PERIPHERAL.a(fsm_engine.o) (fsm_module_table)
C:\9047software\PSoC Creator\3.3\PSoC Creator\psoc\content\cycomponentlibrary\CyComponentLibrary.cylib\BLE_v2_0\Library\gccCyBLEStack_BLE_SOC_PERIPHERAL.a(gap.o)
                              C:\9047software\PSoC Creator\3.3\PSoC Creator\psoc\content\cycomponentlibrary\CyComponentLibrary.cylib\BLE_v2_0\Library\gccCyBLEStack_BLE_SOC_PERIPHERAL.a(CyBle.o) (gap_device_connected)
C:\9047software\PSoC Creator\3.3\PSoC Creator\psoc\content\cycomponentlibrary\CyComponentLibrary.cylib\BLE_v2_0\Library\gccCyBLEStack_BLE_SOC_PERIPHERAL.a(gatt.o)
                              C:\9047software\PSoC Creator\3.3\PSoC Creator\psoc\content\cycomponentlibrary\CyComponentLibrary.cylib\BLE_v2_0\Library\gccCyBLEStack_BLE_SOC_PERIPHERAL.a(gap.o) (gSignature)
C:\9047software\PSoC Creator\3.3\PSoC Creator\psoc\content\cycomponentlibrary\CyComponentLibrary.cylib\BLE_v2_0\Library\gccCyBLEStack_BLE_SOC_PERIPHERAL.a(gattClient.o)
                              C:\9047software\PSoC Creator\3.3\PSoC Creator\psoc\content\cycomponentlibrary\CyComponentLibrary.cylib\BLE_v2_0\Library\gccCyBLEStack_BLE_SOC_PERIPHERAL.a(gatt.o) (CyBle_GattClientInit)
C:\9047software\PSoC Creator\3.3\PSoC Creator\psoc\content\cycomponentlibrary\CyComponentLibrary.cylib\BLE_v2_0\Library\gccCyBLEStack_BLE_SOC_PERIPHERAL.a(gattServer.o)
                              C:\9047software\PSoC Creator\3.3\PSoC Creator\psoc\content\cycomponentlibrary\CyComponentLibrary.cylib\BLE_v2_0\Library\gccCyBLEStack_BLE_SOC_PERIPHERAL.a(gatt.o) (cyBleAttBuffer)
C:\9047software\PSoC Creator\3.3\PSoC Creator\psoc\content\cycomponentlibrary\CyComponentLibrary.cylib\BLE_v2_0\Library\gccCyBLEStack_BLE_SOC_PERIPHERAL.a(gattDbHandler.o)
                              C:\9047software\PSoC Creator\3.3\PSoC Creator\psoc\content\cycomponentlibrary\CyComponentLibrary.cylib\BLE_v2_0\Library\gccCyBLEStack_BLE_SOC_PERIPHERAL.a(gattServer.o) (CyBle_GattDbInternal)
C:\9047software\PSoC Creator\3.3\PSoC Creator\psoc\content\cycomponentlibrary\CyComponentLibrary.cylib\BLE_v2_0\Library\gccCyBLEStack_BLE_SOC_PERIPHERAL.a(hci_api.o)
                              C:\9047software\PSoC Creator\3.3\PSoC Creator\psoc\content\cycomponentlibrary\CyComponentLibrary.cylib\BLE_v2_0\Library\gccCyBLEStack_BLE_SOC_PERIPHERAL.a(gap.o) (BT_hci_get_connection_handle)
C:\9047software\PSoC Creator\3.3\PSoC Creator\psoc\content\cycomponentlibrary\CyComponentLibrary.cylib\BLE_v2_0\Library\gccCyBLEStack_BLE_SOC_PERIPHERAL.a(hci_link_control_api.o)
                              C:\9047software\PSoC Creator\3.3\PSoC Creator\psoc\content\cycomponentlibrary\CyComponentLibrary.cylib\BLE_v2_0\Library\gccCyBLEStack_BLE_SOC_PERIPHERAL.a(gap.o) (BT_hci_disconnect)
C:\9047software\PSoC Creator\3.3\PSoC Creator\psoc\content\cycomponentlibrary\CyComponentLibrary.cylib\BLE_v2_0\Library\gccCyBLEStack_BLE_SOC_PERIPHERAL.a(hci_commands.o)
                              C:\9047software\PSoC Creator\3.3\PSoC Creator\psoc\content\cycomponentlibrary\CyComponentLibrary.cylib\BLE_v2_0\Library\gccCyBLEStack_BLE_SOC_PERIPHERAL.a(hci_api.o) (hci_common_api_handler)
C:\9047software\PSoC Creator\3.3\PSoC Creator\psoc\content\cycomponentlibrary\CyComponentLibrary.cylib\BLE_v2_0\Library\gccCyBLEStack_BLE_SOC_PERIPHERAL.a(hci_events.o)
                              C:\9047software\PSoC Creator\3.3\PSoC Creator\psoc\content\cycomponentlibrary\CyComponentLibrary.cylib\BLE_v2_0\Library\gccCyBLEStack_BLE_SOC_PERIPHERAL.a(CyBleStackMgr_StackTaskHandler.o) (hci_transport_read_data)
C:\9047software\PSoC Creator\3.3\PSoC Creator\psoc\content\cycomponentlibrary\CyComponentLibrary.cylib\BLE_v2_0\Library\gccCyBLEStack_BLE_SOC_PERIPHERAL.a(hci_init.o)
                              C:\9047software\PSoC Creator\3.3\PSoC Creator\psoc\content\cycomponentlibrary\CyComponentLibrary.cylib\BLE_v2_0\Library\gccCyBLEStack_BLE_SOC_PERIPHERAL.a(hci_events.o) (hci_adv_addr_type)
C:\9047software\PSoC Creator\3.3\PSoC Creator\psoc\content\cycomponentlibrary\CyComponentLibrary.cylib\BLE_v2_0\Library\gccCyBLEStack_BLE_SOC_PERIPHERAL.a(hci_le_api.o)
                              C:\9047software\PSoC Creator\3.3\PSoC Creator\psoc\content\cycomponentlibrary\CyComponentLibrary.cylib\BLE_v2_0\Library\gccCyBLEStack_BLE_SOC_PERIPHERAL.a(gap.o) (BT_hci_le_set_advertising_parameters)
C:\9047software\PSoC Creator\3.3\PSoC Creator\psoc\content\cycomponentlibrary\CyComponentLibrary.cylib\BLE_v2_0\Library\gccCyBLEStack_BLE_SOC_PERIPHERAL.a(hci_utils.o)
                              C:\9047software\PSoC Creator\3.3\PSoC Creator\psoc\content\cycomponentlibrary\CyComponentLibrary.cylib\BLE_v2_0\Library\gccCyBLEStack_BLE_SOC_PERIPHERAL.a(hci_link_control_api.o) (hci_find_device_by_handle)
C:\9047software\PSoC Creator\3.3\PSoC Creator\psoc\content\cycomponentlibrary\CyComponentLibrary.cylib\BLE_v2_0\Library\gccCyBLEStack_BLE_SOC_PERIPHERAL.a(smp_api.o)
                              C:\9047software\PSoC Creator\3.3\PSoC Creator\psoc\content\cycomponentlibrary\CyComponentLibrary.cylib\BLE_v2_0\Library\gccCyBLEStack_BLE_SOC_PERIPHERAL.a(gap.o) (BT_smp_authenticate)
C:\9047software\PSoC Creator\3.3\PSoC Creator\psoc\content\cycomponentlibrary\CyComponentLibrary.cylib\BLE_v2_0\Library\gccCyBLEStack_BLE_SOC_PERIPHERAL.a(smp_core.o)
                              C:\9047software\PSoC Creator\3.3\PSoC Creator\psoc\content\cycomponentlibrary\CyComponentLibrary.cylib\BLE_v2_0\Library\gccCyBLEStack_BLE_SOC_PERIPHERAL.a(smp_api.o) (smp_get_auth_info_from_req)
C:\9047software\PSoC Creator\3.3\PSoC Creator\psoc\content\cycomponentlibrary\CyComponentLibrary.cylib\BLE_v2_0\Library\gccCyBLEStack_BLE_SOC_PERIPHERAL.a(smp_init.o)
                              C:\9047software\PSoC Creator\3.3\PSoC Creator\psoc\content\cycomponentlibrary\CyComponentLibrary.cylib\BLE_v2_0\Library\gccCyBLEStack_BLE_SOC_PERIPHERAL.a(smp_core.o) (smp_context)
C:\9047software\PSoC Creator\3.3\PSoC Creator\psoc\content\cycomponentlibrary\CyComponentLibrary.cylib\BLE_v2_0\Library\gccCyBLEStack_BLE_SOC_PERIPHERAL.a(smp_interface.o)
                              C:\9047software\PSoC Creator\3.3\PSoC Creator\psoc\content\cycomponentlibrary\CyComponentLibrary.cylib\BLE_v2_0\Library\gccCyBLEStack_BLE_SOC_PERIPHERAL.a(hci_events.o) (smp_command_complete)
C:\9047software\PSoC Creator\3.3\PSoC Creator\psoc\content\cycomponentlibrary\CyComponentLibrary.cylib\BLE_v2_0\Library\gccCyBLEStack_BLE_SOC_PERIPHERAL.a(smp_utils.o)
                              C:\9047software\PSoC Creator\3.3\PSoC Creator\psoc\content\cycomponentlibrary\CyComponentLibrary.cylib\BLE_v2_0\Library\gccCyBLEStack_BLE_SOC_PERIPHERAL.a(smp_core.o) (smp_free_context)
C:\9047software\PSoC Creator\3.3\PSoC Creator\psoc\content\cycomponentlibrary\CyComponentLibrary.cylib\BLE_v2_0\Library\gccCyBLEStack_BLE_SOC_PERIPHERAL.a(smp_fsm_engine.o)
                              C:\9047software\PSoC Creator\3.3\PSoC Creator\psoc\content\cycomponentlibrary\CyComponentLibrary.cylib\BLE_v2_0\Library\gccCyBLEStack_BLE_SOC_PERIPHERAL.a(fsm_engine_pl.o) (smp_access_state_handler)
C:\9047software\PSoC Creator\3.3\PSoC Creator\psoc\content\cycomponentlibrary\CyComponentLibrary.cylib\BLE_v2_0\Library\gccCyBLEStack_BLE_SOC_PERIPHERAL.a(smp_fsm_table.o)
                              C:\9047software\PSoC Creator\3.3\PSoC Creator\psoc\content\cycomponentlibrary\CyComponentLibrary.cylib\BLE_v2_0\Library\gccCyBLEStack_BLE_SOC_PERIPHERAL.a(fsm_engine_pl.o) (smp_event_handler_table)
C:\9047software\PSoC Creator\3.3\PSoC Creator\psoc\content\cycomponentlibrary\CyComponentLibrary.cylib\BLE_v2_0\Library\gccCyBLEStack_BLE_SOC_PERIPHERAL.a(smp_tools.o)
                              C:\9047software\PSoC Creator\3.3\PSoC Creator\psoc\content\cycomponentlibrary\CyComponentLibrary.cylib\BLE_v2_0\Library\gccCyBLEStack_BLE_SOC_PERIPHERAL.a(smp_api.o) (smp_tbx_ah_eval)
C:\9047software\PSoC Creator\3.3\PSoC Creator\psoc\content\cycomponentlibrary\CyComponentLibrary.cylib\BLE_v2_0\Library\gccCyBLEStack_BLE_SOC_PERIPHERAL.a(smp_psstore.o)
                              C:\9047software\PSoC Creator\3.3\PSoC Creator\psoc\content\cycomponentlibrary\CyComponentLibrary.cylib\BLE_v2_0\Library\gccCyBLEStack_BLE_SOC_PERIPHERAL.a(smp_init.o) (smp_pstorage_cb)
C:\9047software\PSoC Creator\3.3\PSoC Creator\psoc\content\cycomponentlibrary\CyComponentLibrary.cylib\BLE_v2_0\Library\gccCyBLEStack_BLE_SOC_PERIPHERAL.a(write_task.o)
                              C:\9047software\PSoC Creator\3.3\PSoC Creator\psoc\content\cycomponentlibrary\CyComponentLibrary.cylib\BLE_v2_0\Library\gccCyBLEStack_BLE_SOC_PERIPHERAL.a(BT_common.o) (write_task_bt_init)
C:\9047software\PSoC Creator\3.3\PSoC Creator\psoc\content\cycomponentlibrary\CyComponentLibrary.cylib\BLE_v2_0\Library\gccCyBLEStack_BLE_SOC_PERIPHERAL.a(aes_cmac.o)
                              C:\9047software\PSoC Creator\3.3\PSoC Creator\psoc\content\cycomponentlibrary\CyComponentLibrary.cylib\BLE_v2_0\Library\gccCyBLEStack_BLE_SOC_PERIPHERAL.a(smp_api.o) (aes_cmac)
C:\9047software\PSoC Creator\3.3\PSoC Creator\psoc\content\cycomponentlibrary\CyComponentLibrary.cylib\BLE_v2_0\Library\gccCyBLEStack_BLE_SOC_PERIPHERAL.a(aes_cmac_pl.o)
                              C:\9047software\PSoC Creator\3.3\PSoC Creator\psoc\content\cycomponentlibrary\CyComponentLibrary.cylib\BLE_v2_0\Library\gccCyBLEStack_BLE_SOC_PERIPHERAL.a(gap.o) (aes_cmac_128B_encrypt_complete_pl)
C:\9047software\PSoC Creator\3.3\PSoC Creator\psoc\content\cycomponentlibrary\CyComponentLibrary.cylib\BLE_v2_0\Library\gccCyBLEStack_BLE_SOC_PERIPHERAL.a(status.o)
                              C:\9047software\PSoC Creator\3.3\PSoC Creator\psoc\content\cycomponentlibrary\CyComponentLibrary.cylib\BLE_v2_0\Library\gccCyBLEStack_BLE_SOC_PERIPHERAL.a(att_internal.o) (BT_status_set_bit)
C:\9047software\PSoC Creator\3.3\PSoC Creator\psoc\content\cycomponentlibrary\CyComponentLibrary.cylib\BLE_v2_0\Library\gccCyBLEStack_BLE_SOC_PERIPHERAL.a(storage.o)
                              C:\9047software\PSoC Creator\3.3\PSoC Creator\psoc\content\cycomponentlibrary\CyComponentLibrary.cylib\BLE_v2_0\Library\gccCyBLEStack_BLE_SOC_PERIPHERAL.a(device_queue.o) (BT_storage_read)
C:\9047software\PSoC Creator\3.3\PSoC Creator\psoc\content\cycomponentlibrary\CyComponentLibrary.cylib\BLE_v2_0\Library\gccCyBLEStack_BLE_SOC_PERIPHERAL.a(bt_os_common.o)
                              C:\9047software\PSoC Creator\3.3\PSoC Creator\psoc\content\cycomponentlibrary\CyComponentLibrary.cylib\BLE_v2_0\Library\gccCyBLEStack_BLE_SOC_PERIPHERAL.a(CyBleStackMgr_StackTaskHandler.o) (BT_ISROSQPost)
C:\9047software\PSoC Creator\3.3\PSoC Creator\psoc\content\cycomponentlibrary\CyComponentLibrary.cylib\BLE_v2_0\Library\gccCyBLEStack_BLE_SOC_PERIPHERAL.a(BT_timer.o)
                              C:\9047software\PSoC Creator\3.3\PSoC Creator\psoc\content\cycomponentlibrary\CyComponentLibrary.cylib\BLE_v2_0\Library\gccCyBLEStack_BLE_SOC_PERIPHERAL.a(host_main.o) (BT_start_timer)
C:\9047software\PSoC Creator\3.3\PSoC Creator\psoc\content\cycomponentlibrary\CyComponentLibrary.cylib\BLE_v2_0\Library\gccCyBLEStack_BLE_SOC_PERIPHERAL.a(storage_pl.o)
                              C:\9047software\PSoC Creator\3.3\PSoC Creator\psoc\content\cycomponentlibrary\CyComponentLibrary.cylib\BLE_v2_0\Library\gccCyBLEStack_BLE_SOC_PERIPHERAL.a(host_main.o) (BleStackWriteToFlash)
C:\9047software\PSoC Creator\3.3\PSoC Creator\psoc\content\cycomponentlibrary\CyComponentLibrary.cylib\BLE_v2_0\Library\gccCyBLEStack_BLE_SOC_PERIPHERAL.a(drbg.o)
                              C:\9047software\PSoC Creator\3.3\PSoC Creator\psoc\content\cycomponentlibrary\CyComponentLibrary.cylib\BLE_v2_0\Library\gccCyBLEStack_BLE_SOC_PERIPHERAL.a(CyBleControllerIP_Interface.o) (drbg_get_random_number)
C:\9047software\PSoC Creator\3.3\PSoC Creator\psoc\content\cycomponentlibrary\CyComponentLibrary.cylib\BLE_v2_0\Library\gccCyBLEStack_BLE_SOC_PERIPHERAL.a(bt_fw_os_al.o)
                              C:\9047software\PSoC Creator\3.3\PSoC Creator\psoc\content\cycomponentlibrary\CyComponentLibrary.cylib\BLE_v2_0\Library\gccCyBLEStack_BLE_SOC_PERIPHERAL.a(CyBleControllerIP_Interface.o) (convert_to_lsb)
C:\9047software\PSoC Creator\3.3\PSoC Creator\psoc\content\cycomponentlibrary\CyComponentLibrary.cylib\BLE_v2_0\Library\gccCyBLEStack_BLE_SOC_PERIPHERAL.a(lec_hci_br_edr_commands.o)
                              C:\9047software\PSoC Creator\3.3\PSoC Creator\psoc\content\cycomponentlibrary\CyComponentLibrary.cylib\BLE_v2_0\Library\gccCyBLEStack_BLE_SOC_PERIPHERAL.a(lec_hci_le.o) (lec_generate_br_edr_command_complete_event)
C:\9047software\PSoC Creator\3.3\PSoC Creator\psoc\content\cycomponentlibrary\CyComponentLibrary.cylib\BLE_v2_0\Library\gccCyBLEStack_BLE_SOC_PERIPHERAL.a(lec_hci_le_adv_commands.o)
                              C:\9047software\PSoC Creator\3.3\PSoC Creator\psoc\content\cycomponentlibrary\CyComponentLibrary.cylib\BLE_v2_0\Library\gccCyBLEStack_BLE_SOC_PERIPHERAL.a(lec_hci_le_commands.o) (lec_hci_handle_set_adv_data_command)
C:\9047software\PSoC Creator\3.3\PSoC Creator\psoc\content\cycomponentlibrary\CyComponentLibrary.cylib\BLE_v2_0\Library\gccCyBLEStack_BLE_SOC_PERIPHERAL.a(BT_common_pl.o)
                              C:\9047software\PSoC Creator\3.3\PSoC Creator\psoc\content\cycomponentlibrary\CyComponentLibrary.cylib\BLE_v2_0\Library\gccCyBLEStack_BLE_SOC_PERIPHERAL.a(BT_common.o) (bluetooth_off_lower_pl)
C:\9047software\PSoC Creator\3.3\PSoC Creator\psoc\content\cycomponentlibrary\CyComponentLibrary.cylib\BLE_v2_0\Library\gccCyBLEStack_BLE_SOC_PERIPHERAL.a(device_queue_pl.o)
                              C:\9047software\PSoC Creator\3.3\PSoC Creator\psoc\content\cycomponentlibrary\CyComponentLibrary.cylib\BLE_v2_0\Library\gccCyBLEStack_BLE_SOC_PERIPHERAL.a(device_queue.o) (device_queue_disconnect_on_full_pl)
C:\9047software\PSoC Creator\3.3\PSoC Creator\psoc\content\cycomponentlibrary\CyComponentLibrary.cylib\BLE_v2_0\Library\gccCyBLEStack_BLE_SOC_PERIPHERAL.a(smp_pl.o)
                              C:\9047software\PSoC Creator\3.3\PSoC Creator\psoc\content\cycomponentlibrary\CyComponentLibrary.cylib\BLE_v2_0\Library\gccCyBLEStack_BLE_SOC_PERIPHERAL.a(gap.o) (smp_io_capability_pl)
C:\9047software\PSoC Creator\3.3\PSoC Creator\psoc\content\cycomponentlibrary\CyComponentLibrary.cylib\BLE_v2_0\Library\gccCyBLEStack_BLE_SOC_PERIPHERAL.a(att_fsm_table.o)
                              C:\9047software\PSoC Creator\3.3\PSoC Creator\psoc\content\cycomponentlibrary\CyComponentLibrary.cylib\BLE_v2_0\Library\gccCyBLEStack_BLE_SOC_PERIPHERAL.a(fsm_engine_pl.o) (att_event_handler_table)
C:\9047software\PSoC Creator\3.3\PSoC Creator\psoc\content\cycomponentlibrary\CyComponentLibrary.cylib\BLE_v2_0\Library\gccCyBLEStack_BLE_SOC_PERIPHERAL.a(l2cap_data_recv.o)
                              C:\9047software\PSoC Creator\3.3\PSoC Creator\psoc\content\cycomponentlibrary\CyComponentLibrary.cylib\BLE_v2_0\Library\gccCyBLEStack_BLE_SOC_PERIPHERAL.a(hci_events.o) (l2cap_lp_data_read)
C:\9047software\PSoC Creator\3.3\PSoC Creator\psoc\content\cycomponentlibrary\CyComponentLibrary.cylib\BLE_v2_0\Library\gccCyBLEStack_BLE_SOC_PERIPHERAL.a(gattDbInternal.o)
                              C:\9047software\PSoC Creator\3.3\PSoC Creator\psoc\content\cycomponentlibrary\CyComponentLibrary.cylib\BLE_v2_0\Library\gccCyBLEStack_BLE_SOC_PERIPHERAL.a(gattDbHandler.o) (CyBle_GattDbCheckPermission)
C:\9047software\PSoC Creator\3.3\PSoC Creator\psoc\content\cycomponentlibrary\CyComponentLibrary.cylib\BLE_v2_0\Library\gccCyBLEStack_BLE_SOC_PERIPHERAL.a(hci_command_queue.o)
                              C:\9047software\PSoC Creator\3.3\PSoC Creator\psoc\content\cycomponentlibrary\CyComponentLibrary.cylib\BLE_v2_0\Library\gccCyBLEStack_BLE_SOC_PERIPHERAL.a(hci_commands.o) (hci_common_api_bh)
C:\9047software\PSoC Creator\3.3\PSoC Creator\psoc\content\cycomponentlibrary\CyComponentLibrary.cylib\BLE_v2_0\Library\gccCyBLEStack_BLE_SOC_PERIPHERAL.a(hci_connect.o)
                              C:\9047software\PSoC Creator\3.3\PSoC Creator\psoc\content\cycomponentlibrary\CyComponentLibrary.cylib\BLE_v2_0\Library\gccCyBLEStack_BLE_SOC_PERIPHERAL.a(hci_events.o) (hci_handle_connection_command_status)
C:\9047software\PSoC Creator\3.3\PSoC Creator\psoc\content\cycomponentlibrary\CyComponentLibrary.cylib\BLE_v2_0\Library\gccCyBLEStack_BLE_SOC_PERIPHERAL.a(hci_disconnect.o)
                              C:\9047software\PSoC Creator\3.3\PSoC Creator\psoc\content\cycomponentlibrary\CyComponentLibrary.cylib\BLE_v2_0\Library\gccCyBLEStack_BLE_SOC_PERIPHERAL.a(hci_events.o) (hci_disconnection_complete_event)
C:\9047software\PSoC Creator\3.3\PSoC Creator\psoc\content\cycomponentlibrary\CyComponentLibrary.cylib\BLE_v2_0\Library\gccCyBLEStack_BLE_SOC_PERIPHERAL.a(smp_fsm_handlers.o)
                              C:\9047software\PSoC Creator\3.3\PSoC Creator\psoc\content\cycomponentlibrary\CyComponentLibrary.cylib\BLE_v2_0\Library\gccCyBLEStack_BLE_SOC_PERIPHERAL.a(smp_fsm_table.o) (se_smp_dummy_handler)
C:\9047software\PSoC Creator\3.3\PSoC Creator\psoc\content\cycomponentlibrary\CyComponentLibrary.cylib\BLE_v2_0\Library\gccCyBLEStack_BLE_SOC_PERIPHERAL.a(att_fsm_handlers.o)
                              C:\9047software\PSoC Creator\3.3\PSoC Creator\psoc\content\cycomponentlibrary\CyComponentLibrary.cylib\BLE_v2_0\Library\gccCyBLEStack_BLE_SOC_PERIPHERAL.a(att_fsm_table.o) (se_error_handler)
C:\9047software\PSoC Creator\3.3\PSoC Creator\psoc\content\cycomponentlibrary\CyComponentLibrary.cylib\BLE_v2_0\Library\gccCyBLEStack_BLE_SOC_PERIPHERAL.a(l2cap_connect.o)
                              C:\9047software\PSoC Creator\3.3\PSoC Creator\psoc\content\cycomponentlibrary\CyComponentLibrary.cylib\BLE_v2_0\Library\gccCyBLEStack_BLE_SOC_PERIPHERAL.a(hci_connect.o) (l2cap_lp_connect_ind)
.\CortexM0\ARM_GCC_493\Debug\BLE Lab 3.a(BLE_HAL_PVT.o)
                              C:\9047software\PSoC Creator\3.3\PSoC Creator\psoc\content\cycomponentlibrary\CyComponentLibrary.cylib\BLE_v2_0\Library\gccCyBLEStack_BLE_SOC_PERIPHERAL.a(host_main.o) (CyBLE_Nvram_Write)
.\CortexM0\ARM_GCC_493\Debug\BLE Lab 3.a(BLE_bless_isr.o)
                              .\CortexM0\ARM_GCC_493\Debug\BLE Lab 3.a(BLE_HAL_PVT.o) (BLE_bless_isr_Disable)
.\CortexM0\ARM_GCC_493\Debug\BLE Lab 3.a(CyFlash.o)
                              .\CortexM0\ARM_GCC_493\Debug\BLE Lab 3.a(BLE_HAL_PVT.o) (CySysFlashWriteRow)
.\CortexM0\ARM_GCC_493\Debug\BLE Lab 3.a(BLE_HAL_INT.o)
                              .\CortexM0\ARM_GCC_493\Debug\BLE Lab 3.a(BLE_HAL_PVT.o) (CyBLE_Bless_Interrupt)
C:\9047software\PSoC Creator\3.3\PSoC Creator\psoc\content\cycomponentlibrary\CyComponentLibrary.cylib\BLE_v2_0\Library\gccCyBLEStack_BLE_SOC_PERIPHERAL.a(ll_isr.o)
                              .\CortexM0\ARM_GCC_493\Debug\BLE Lab 3.a(BLE_HAL_INT.o) (CyBle_BleSSInterruptHandler)
c:/9047software/psoc creator/3.3/psoc creator/import/gnu/arm/4.9.3/bin/../lib/gcc/arm-none-eabi/4.9.3/armv6-m\libgcc.a(_udivsi3.o)
                              .\CortexM0\ARM_GCC_493\Debug\HeartRateProcessing.o (__aeabi_uidiv)
c:/9047software/psoc creator/3.3/psoc creator/import/gnu/arm/4.9.3/bin/../lib/gcc/arm-none-eabi/4.9.3/armv6-m\libgcc.a(_divsi3.o)
                              .\CortexM0\ARM_GCC_493\Debug\BLE Lab 3.a(ADC.o) (__aeabi_idiv)
c:/9047software/psoc creator/3.3/psoc creator/import/gnu/arm/4.9.3/bin/../lib/gcc/arm-none-eabi/4.9.3/armv6-m\libgcc.a(_dvmd_tls.o)
                              c:/9047software/psoc creator/3.3/psoc creator/import/gnu/arm/4.9.3/bin/../lib/gcc/arm-none-eabi/4.9.3/armv6-m\libgcc.a(_udivsi3.o) (__aeabi_idiv0)
c:/9047software/psoc creator/3.3/psoc creator/import/gnu/arm/4.9.3/bin/../lib/gcc/arm-none-eabi/4.9.3/armv6-m\libgcc.a(_aeabi_ldivmod.o)
                              .\CortexM0\ARM_GCC_493\Debug\BLE Lab 3.a(ADC.o) (__aeabi_ldivmod)
c:/9047software/psoc creator/3.3/psoc creator/import/gnu/arm/4.9.3/bin/../lib/gcc/arm-none-eabi/4.9.3/armv6-m\libgcc.a(_muldi3.o)
                              .\CortexM0\ARM_GCC_493\Debug\BLE Lab 3.a(ADC.o) (__aeabi_lmul)
c:/9047software/psoc creator/3.3/psoc creator/import/gnu/arm/4.9.3/bin/../lib/gcc/arm-none-eabi/4.9.3/armv6-m\libgcc.a(bpabi.o)
                              c:/9047software/psoc creator/3.3/psoc creator/import/gnu/arm/4.9.3/bin/../lib/gcc/arm-none-eabi/4.9.3/armv6-m\libgcc.a(_aeabi_ldivmod.o) (__gnu_ldivmod_helper)
c:/9047software/psoc creator/3.3/psoc creator/import/gnu/arm/4.9.3/bin/../lib/gcc/arm-none-eabi/4.9.3/armv6-m\libgcc.a(divsf3.o)
                              .\CortexM0\ARM_GCC_493\Debug\BLE Lab 3.a(ADC.o) (__aeabi_fdiv)
c:/9047software/psoc creator/3.3/psoc creator/import/gnu/arm/4.9.3/bin/../lib/gcc/arm-none-eabi/4.9.3/armv6-m\libgcc.a(mulsf3.o)
                              .\CortexM0\ARM_GCC_493\Debug\BLE Lab 3.a(ADC.o) (__aeabi_fmul)
c:/9047software/psoc creator/3.3/psoc creator/import/gnu/arm/4.9.3/bin/../lib/gcc/arm-none-eabi/4.9.3/armv6-m\libgcc.a(floatsisf.o)
                              .\CortexM0\ARM_GCC_493\Debug\BLE Lab 3.a(ADC.o) (__aeabi_i2f)
c:/9047software/psoc creator/3.3/psoc creator/import/gnu/arm/4.9.3/bin/../lib/gcc/arm-none-eabi/4.9.3/armv6-m\libgcc.a(_clzsi2.o)
                              c:/9047software/psoc creator/3.3/psoc creator/import/gnu/arm/4.9.3/bin/../lib/gcc/arm-none-eabi/4.9.3/armv6-m\libgcc.a(divsf3.o) (__clzsi2)
c:/9047software/psoc creator/3.3/psoc creator/import/gnu/arm/4.9.3/bin/../lib/gcc/arm-none-eabi/4.9.3/armv6-m\libgcc.a(_divdi3.o)
                              c:/9047software/psoc creator/3.3/psoc creator/import/gnu/arm/4.9.3/bin/../lib/gcc/arm-none-eabi/4.9.3/armv6-m\libgcc.a(bpabi.o) (__divdi3)
c:/9047software/psoc creator/3.3/psoc creator/import/gnu/arm/4.9.3/bin/../lib/gcc/arm-none-eabi/4.9.3/armv6-m\libgcc.a(_udivdi3.o)
                              c:/9047software/psoc creator/3.3/psoc creator/import/gnu/arm/4.9.3/bin/../lib/gcc/arm-none-eabi/4.9.3/armv6-m\libgcc.a(bpabi.o) (__udivdi3)
c:/9047software/psoc creator/3.3/psoc creator/import/gnu/arm/4.9.3/bin/../lib/gcc/arm-none-eabi/4.9.3/armv6-m\libgcc.a(_clzdi2.o)
                              c:/9047software/psoc creator/3.3/psoc creator/import/gnu/arm/4.9.3/bin/../lib/gcc/arm-none-eabi/4.9.3/armv6-m\libgcc.a(_divdi3.o) (__clzdi2)
c:/9047software/psoc creator/3.3/psoc creator/import/gnu/arm/4.9.3/bin/../lib/gcc/arm-none-eabi/4.9.3/../../../../arm-none-eabi/lib/armv6-m\libg_nano.a(lib_a-errno.o)
                              .\CortexM0\ARM_GCC_493\Debug\Cm0Start.o (__errno)
c:/9047software/psoc creator/3.3/psoc creator/import/gnu/arm/4.9.3/bin/../lib/gcc/arm-none-eabi/4.9.3/../../../../arm-none-eabi/lib/armv6-m\libg_nano.a(lib_a-exit.o)
                              c:/9047software/psoc creator/3.3/psoc creator/import/gnu/arm/4.9.3/bin/../lib/gcc/arm-none-eabi/4.9.3/../../../../arm-none-eabi/lib/armv6-m/crt0.o (exit)
c:/9047software/psoc creator/3.3/psoc creator/import/gnu/arm/4.9.3/bin/../lib/gcc/arm-none-eabi/4.9.3/../../../../arm-none-eabi/lib/armv6-m\libg_nano.a(lib_a-impure.o)
                              c:/9047software/psoc creator/3.3/psoc creator/import/gnu/arm/4.9.3/bin/../lib/gcc/arm-none-eabi/4.9.3/../../../../arm-none-eabi/lib/armv6-m\libg_nano.a(lib_a-exit.o) (_global_impure_ptr)
c:/9047software/psoc creator/3.3/psoc creator/import/gnu/arm/4.9.3/bin/../lib/gcc/arm-none-eabi/4.9.3/../../../../arm-none-eabi/lib/armv6-m\libg_nano.a(lib_a-init.o)
                              c:/9047software/psoc creator/3.3/psoc creator/import/gnu/arm/4.9.3/bin/../lib/gcc/arm-none-eabi/4.9.3/../../../../arm-none-eabi/lib/armv6-m/crt0.o (__libc_init_array)
c:/9047software/psoc creator/3.3/psoc creator/import/gnu/arm/4.9.3/bin/../lib/gcc/arm-none-eabi/4.9.3/../../../../arm-none-eabi/lib/armv6-m\libg_nano.a(lib_a-memcmp.o)
                              C:\9047software\PSoC Creator\3.3\PSoC Creator\psoc\content\cycomponentlibrary\CyComponentLibrary.cylib\BLE_v2_0\Library\gccCyBLEStack_BLE_SOC_PERIPHERAL.a(device_queue.o) (memcmp)
c:/9047software/psoc creator/3.3/psoc creator/import/gnu/arm/4.9.3/bin/../lib/gcc/arm-none-eabi/4.9.3/../../../../arm-none-eabi/lib/armv6-m\libg_nano.a(lib_a-memcpy.o)
                              .\CortexM0\ARM_GCC_493\Debug\BLE Lab 3.a(cyfitter_cfg.o) (memcpy)
c:/9047software/psoc creator/3.3/psoc creator/import/gnu/arm/4.9.3/bin/../lib/gcc/arm-none-eabi/4.9.3/../../../../arm-none-eabi/lib/armv6-m\libg_nano.a(lib_a-memset.o)
                              c:/9047software/psoc creator/3.3/psoc creator/import/gnu/arm/4.9.3/bin/../lib/gcc/arm-none-eabi/4.9.3/../../../../arm-none-eabi/lib/armv6-m/crt0.o (memset)

Allocating common symbols
Common symbol       size              file

cyBle_busyStatus    0x1               .\CortexM0\ARM_GCC_493\Debug\BLE Lab 3.a(BLE_eventHandler.o)
cyBle_connHandle    0x2               .\CortexM0\ARM_GCC_493\Debug\BLE Lab 3.a(BLE_eventHandler.o)
CyBle_ApplCallback  0x4               .\CortexM0\ARM_GCC_493\Debug\BLE Lab 3.a(BLE.o)
ADC_countsPer10Volt
                    0x4               .\CortexM0\ARM_GCC_493\Debug\BLE Lab 3.a(ADC.o)
cyBle_attValuesCCCD
                    0x4               .\CortexM0\ARM_GCC_493\Debug\BLE Lab 3.a(BLE_gatt.o)
cyBle_state         0x1               .\CortexM0\ARM_GCC_493\Debug\BLE Lab 3.a(BLE_gatt.o)
ADC_offset          0x2               .\CortexM0\ARM_GCC_493\Debug\BLE Lab 3.a(ADC.o)
cyBle_stackMemoryRam
                    0xa6c             .\CortexM0\ARM_GCC_493\Debug\BLE Lab 3.a(BLE.o)
cyBle_advertisingIntervalType
                    0x1               .\CortexM0\ARM_GCC_493\Debug\BLE Lab 3.a(BLE_eventHandler.o)
cyBle_eventHandlerFlag
                    0x1               .\CortexM0\ARM_GCC_493\Debug\BLE Lab 3.a(BLE_eventHandler.o)

Discarded input sections

 .text          0x00000000        0x0 c:/9047software/psoc creator/3.3/psoc creator/import/gnu/arm/4.9.3/bin/../lib/gcc/arm-none-eabi/4.9.3/armv6-m/crti.o
 .data          0x00000000        0x0 c:/9047software/psoc creator/3.3/psoc creator/import/gnu/arm/4.9.3/bin/../lib/gcc/arm-none-eabi/4.9.3/armv6-m/crti.o
 .bss           0x00000000        0x0 c:/9047software/psoc creator/3.3/psoc creator/import/gnu/arm/4.9.3/bin/../lib/gcc/arm-none-eabi/4.9.3/armv6-m/crti.o
 .data          0x00000000        0x4 c:/9047software/psoc creator/3.3/psoc creator/import/gnu/arm/4.9.3/bin/../lib/gcc/arm-none-eabi/4.9.3/armv6-m/crtbegin.o
 .text          0x00000000       0x78 c:/9047software/psoc creator/3.3/psoc creator/import/gnu/arm/4.9.3/bin/../lib/gcc/arm-none-eabi/4.9.3/../../../../arm-none-eabi/lib/armv6-m/crt0.o
 .data          0x00000000        0x0 c:/9047software/psoc creator/3.3/psoc creator/import/gnu/arm/4.9.3/bin/../lib/gcc/arm-none-eabi/4.9.3/../../../../arm-none-eabi/lib/armv6-m/crt0.o
 .bss           0x00000000        0x0 c:/9047software/psoc creator/3.3/psoc creator/import/gnu/arm/4.9.3/bin/../lib/gcc/arm-none-eabi/4.9.3/../../../../arm-none-eabi/lib/armv6-m/crt0.o
 .ARM.extab     0x00000000        0x0 c:/9047software/psoc creator/3.3/psoc creator/import/gnu/arm/4.9.3/bin/../lib/gcc/arm-none-eabi/4.9.3/../../../../arm-none-eabi/lib/armv6-m/crt0.o
 .ARM.exidx     0x00000000        0x8 c:/9047software/psoc creator/3.3/psoc creator/import/gnu/arm/4.9.3/bin/../lib/gcc/arm-none-eabi/4.9.3/../../../../arm-none-eabi/lib/armv6-m/crt0.o
 .text          0x00000000        0x0 .\CortexM0\ARM_GCC_493\Debug\main.o
 .data          0x00000000        0x0 .\CortexM0\ARM_GCC_493\Debug\main.o
 .text          0x00000000        0x0 .\CortexM0\ARM_GCC_493\Debug\HeartRateProcessing.o
 .text          0x00000000        0x0 .\CortexM0\ARM_GCC_493\Debug\BleProcessing.o
 .data          0x00000000        0x0 .\CortexM0\ARM_GCC_493\Debug\BleProcessing.o
 .text          0x00000000        0x0 .\CortexM0\ARM_GCC_493\Debug\WatchdogTimer.o
 .data          0x00000000        0x0 .\CortexM0\ARM_GCC_493\Debug\WatchdogTimer.o
 .text          0x00000000        0x0 .\CortexM0\ARM_GCC_493\Debug\cymetadata.o
 .data          0x00000000        0x0 .\CortexM0\ARM_GCC_493\Debug\cymetadata.o
 .bss           0x00000000        0x0 .\CortexM0\ARM_GCC_493\Debug\cymetadata.o
 .text          0x00000000        0x0 .\CortexM0\ARM_GCC_493\Debug\Cm0Start.o
 .data          0x00000000        0x4 .\CortexM0\ARM_GCC_493\Debug\Cm0Start.o
 .bss           0x00000000        0x0 .\CortexM0\ARM_GCC_493\Debug\Cm0Start.o
 .text._exit    0x00000000       0x14 .\CortexM0\ARM_GCC_493\Debug\Cm0Start.o
 .text._sbrk    0x00000000       0x50 .\CortexM0\ARM_GCC_493\Debug\Cm0Start.o
 .text          0x00000000        0x0 .\CortexM0\ARM_GCC_493\Debug\BLE Lab 3.a(cyfitter_cfg.o)
 .data          0x00000000        0x0 .\CortexM0\ARM_GCC_493\Debug\BLE Lab 3.a(cyfitter_cfg.o)
 .bss           0x00000000        0x0 .\CortexM0\ARM_GCC_493\Debug\BLE Lab 3.a(cyfitter_cfg.o)
 .text.CYCONFIGCPY
                0x00000000       0x24 .\CortexM0\ARM_GCC_493\Debug\BLE Lab 3.a(cyfitter_cfg.o)
 .text.CYCONFIGCPYCODE
                0x00000000       0x24 .\CortexM0\ARM_GCC_493\Debug\BLE Lab 3.a(cyfitter_cfg.o)
 .text          0x00000000        0x0 .\CortexM0\ARM_GCC_493\Debug\BLE Lab 3.a(SW2_Switch.o)
 .data          0x00000000        0x0 .\CortexM0\ARM_GCC_493\Debug\BLE Lab 3.a(SW2_Switch.o)
 .bss           0x00000000        0x0 .\CortexM0\ARM_GCC_493\Debug\BLE Lab 3.a(SW2_Switch.o)
 .text.SW2_Switch_Write
                0x00000000       0x48 .\CortexM0\ARM_GCC_493\Debug\BLE Lab 3.a(SW2_Switch.o)
 .text.SW2_Switch_SetDriveMode
                0x00000000       0x30 .\CortexM0\ARM_GCC_493\Debug\BLE Lab 3.a(SW2_Switch.o)
 .text.SW2_Switch_Read
                0x00000000       0x1c .\CortexM0\ARM_GCC_493\Debug\BLE Lab 3.a(SW2_Switch.o)
 .text.SW2_Switch_ReadDataReg
                0x00000000       0x1c .\CortexM0\ARM_GCC_493\Debug\BLE Lab 3.a(SW2_Switch.o)
 .text          0x00000000        0x0 .\CortexM0\ARM_GCC_493\Debug\BLE Lab 3.a(Wakeup_ISR.o)
 .data          0x00000000        0x0 .\CortexM0\ARM_GCC_493\Debug\BLE Lab 3.a(Wakeup_ISR.o)
 .bss           0x00000000        0x0 .\CortexM0\ARM_GCC_493\Debug\BLE Lab 3.a(Wakeup_ISR.o)
 .text.Wakeup_ISR_StartEx
                0x00000000       0x24 .\CortexM0\ARM_GCC_493\Debug\BLE Lab 3.a(Wakeup_ISR.o)
 .text.Wakeup_ISR_Stop
                0x00000000       0x18 .\CortexM0\ARM_GCC_493\Debug\BLE Lab 3.a(Wakeup_ISR.o)
 .text.Wakeup_ISR_GetVector
                0x00000000       0x14 .\CortexM0\ARM_GCC_493\Debug\BLE Lab 3.a(Wakeup_ISR.o)
 .text.Wakeup_ISR_GetPriority
                0x00000000       0x2c .\CortexM0\ARM_GCC_493\Debug\BLE Lab 3.a(Wakeup_ISR.o)
 .text.Wakeup_ISR_GetState
                0x00000000       0x20 .\CortexM0\ARM_GCC_493\Debug\BLE Lab 3.a(Wakeup_ISR.o)
 .text.Wakeup_ISR_SetPending
                0x00000000       0x14 .\CortexM0\ARM_GCC_493\Debug\BLE Lab 3.a(Wakeup_ISR.o)
 .text.Wakeup_ISR_ClearPending
                0x00000000       0x14 .\CortexM0\ARM_GCC_493\Debug\BLE Lab 3.a(Wakeup_ISR.o)
 .text          0x00000000        0x0 .\CortexM0\ARM_GCC_493\Debug\BLE Lab 3.a(Led_Advertising_Green.o)
 .data          0x00000000        0x0 .\CortexM0\ARM_GCC_493\Debug\BLE Lab 3.a(Led_Advertising_Green.o)
 .bss           0x00000000        0x0 .\CortexM0\ARM_GCC_493\Debug\BLE Lab 3.a(Led_Advertising_Green.o)
 .text.Led_Advertising_Green_Read
                0x00000000       0x1c .\CortexM0\ARM_GCC_493\Debug\BLE Lab 3.a(Led_Advertising_Green.o)
 .text.Led_Advertising_Green_ReadDataReg
                0x00000000       0x1c .\CortexM0\ARM_GCC_493\Debug\BLE Lab 3.a(Led_Advertising_Green.o)
 .text.Led_Advertising_Green_ClearInterrupt
                0x00000000       0x30 .\CortexM0\ARM_GCC_493\Debug\BLE Lab 3.a(Led_Advertising_Green.o)
 .text          0x00000000        0x0 .\CortexM0\ARM_GCC_493\Debug\BLE Lab 3.a(Led_Connected_Blue.o)
 .data          0x00000000        0x0 .\CortexM0\ARM_GCC_493\Debug\BLE Lab 3.a(Led_Connected_Blue.o)
 .bss           0x00000000        0x0 .\CortexM0\ARM_GCC_493\Debug\BLE Lab 3.a(Led_Connected_Blue.o)
 .text.Led_Connected_Blue_Read
                0x00000000       0x1c .\CortexM0\ARM_GCC_493\Debug\BLE Lab 3.a(Led_Connected_Blue.o)
 .text.Led_Connected_Blue_ReadDataReg
                0x00000000       0x1c .\CortexM0\ARM_GCC_493\Debug\BLE Lab 3.a(Led_Connected_Blue.o)
 .text.Led_Connected_Blue_ClearInterrupt
                0x00000000       0x30 .\CortexM0\ARM_GCC_493\Debug\BLE Lab 3.a(Led_Connected_Blue.o)
 .text          0x00000000        0x0 .\CortexM0\ARM_GCC_493\Debug\BLE Lab 3.a(BLE_hrs.o)
 .data          0x00000000        0x0 .\CortexM0\ARM_GCC_493\Debug\BLE Lab 3.a(BLE_hrs.o)
 .text.CyBle_HrssSetCharacteristicValue
                0x00000000       0x9c .\CortexM0\ARM_GCC_493\Debug\BLE Lab 3.a(BLE_hrs.o)
 .text.CyBle_HrssGetCharacteristicDescriptor
                0x00000000       0xa4 .\CortexM0\ARM_GCC_493\Debug\BLE Lab 3.a(BLE_hrs.o)
 .text          0x00000000        0x0 .\CortexM0\ARM_GCC_493\Debug\BLE Lab 3.a(BLE.o)
 .text.CyBle_GappStopAdvertisement
                0x00000000       0x20 .\CortexM0\ARM_GCC_493\Debug\BLE Lab 3.a(BLE.o)
 .text.CyBle_ChangeAdLocalName
                0x00000000      0x1a4 .\CortexM0\ARM_GCC_493\Debug\BLE Lab 3.a(BLE.o)
 .text.CyBle_GapSetLocalName
                0x00000000       0xc8 .\CortexM0\ARM_GCC_493\Debug\BLE Lab 3.a(BLE.o)
 .text.CyBle_GapGetLocalName
                0x00000000       0xa4 .\CortexM0\ARM_GCC_493\Debug\BLE Lab 3.a(BLE.o)
 .text.CyBle_Set16ByPtr
                0x00000000       0x30 .\CortexM0\ARM_GCC_493\Debug\BLE Lab 3.a(BLE.o)
 .text          0x00000000        0x0 .\CortexM0\ARM_GCC_493\Debug\BLE Lab 3.a(BLE_gatt.o)
 .bss           0x00000000        0x0 .\CortexM0\ARM_GCC_493\Debug\BLE Lab 3.a(BLE_gatt.o)
 .text.CyBle_GattsReInitGattDb
                0x00000000       0x40 .\CortexM0\ARM_GCC_493\Debug\BLE Lab 3.a(BLE_gatt.o)
 .text          0x00000000        0x0 .\CortexM0\ARM_GCC_493\Debug\BLE Lab 3.a(BLE_eventHandler.o)
 .bss           0x00000000        0x0 .\CortexM0\ARM_GCC_493\Debug\BLE Lab 3.a(BLE_eventHandler.o)
 .text          0x00000000        0x0 .\CortexM0\ARM_GCC_493\Debug\BLE Lab 3.a(BLE_dis.o)
 .data          0x00000000        0x0 .\CortexM0\ARM_GCC_493\Debug\BLE Lab 3.a(BLE_dis.o)
 .bss           0x00000000        0x0 .\CortexM0\ARM_GCC_493\Debug\BLE Lab 3.a(BLE_dis.o)
 .rodata        0x00000000       0x14 .\CortexM0\ARM_GCC_493\Debug\BLE Lab 3.a(BLE_dis.o)
 .text.CyBle_DisRegisterAttrCallback
                0x00000000       0x10 .\CortexM0\ARM_GCC_493\Debug\BLE Lab 3.a(BLE_dis.o)
 .text.CyBle_DissSetCharacteristicValue
                0x00000000       0x84 .\CortexM0\ARM_GCC_493\Debug\BLE Lab 3.a(BLE_dis.o)
 .text.CyBle_DissGetCharacteristicValue
                0x00000000       0x80 .\CortexM0\ARM_GCC_493\Debug\BLE Lab 3.a(BLE_dis.o)
 .text          0x00000000        0x0 .\CortexM0\ARM_GCC_493\Debug\BLE Lab 3.a(Opamp.o)
 .data          0x00000000        0x0 .\CortexM0\ARM_GCC_493\Debug\BLE Lab 3.a(Opamp.o)
 .text.Opamp_Stop
                0x00000000       0x1c .\CortexM0\ARM_GCC_493\Debug\BLE Lab 3.a(Opamp.o)
 .text.Opamp_SetPower
                0x00000000       0x38 .\CortexM0\ARM_GCC_493\Debug\BLE Lab 3.a(Opamp.o)
 .text.Opamp_PumpControl
                0x00000000       0x38 .\CortexM0\ARM_GCC_493\Debug\BLE Lab 3.a(Opamp.o)
 .text          0x00000000        0x0 .\CortexM0\ARM_GCC_493\Debug\BLE Lab 3.a(ADC.o)
 .data          0x00000000        0x0 .\CortexM0\ARM_GCC_493\Debug\BLE Lab 3.a(ADC.o)
 .rodata        0x00000000        0x4 .\CortexM0\ARM_GCC_493\Debug\BLE Lab 3.a(ADC.o)
 .text.ADC_SetChanMask
                0x00000000       0x1c .\CortexM0\ARM_GCC_493\Debug\BLE Lab 3.a(ADC.o)
 .text.ADC_SetLowLimit
                0x00000000       0x30 .\CortexM0\ARM_GCC_493\Debug\BLE Lab 3.a(ADC.o)
 .text.ADC_SetHighLimit
                0x00000000       0x2c .\CortexM0\ARM_GCC_493\Debug\BLE Lab 3.a(ADC.o)
 .text.ADC_SetLimitMask
                0x00000000       0x1c .\CortexM0\ARM_GCC_493\Debug\BLE Lab 3.a(ADC.o)
 .text.ADC_SetSatMask
                0x00000000       0x1c .\CortexM0\ARM_GCC_493\Debug\BLE Lab 3.a(ADC.o)
 .text.ADC_SetOffset
                0x00000000       0x30 .\CortexM0\ARM_GCC_493\Debug\BLE Lab 3.a(ADC.o)
 .text.ADC_SetGain
                0x00000000       0x2c .\CortexM0\ARM_GCC_493\Debug\BLE Lab 3.a(ADC.o)
 .text.ADC_CountsTo_mVolts
                0x00000000       0xa4 .\CortexM0\ARM_GCC_493\Debug\BLE Lab 3.a(ADC.o)
 .text.ADC_CountsTo_uVolts
                0x00000000       0x90 .\CortexM0\ARM_GCC_493\Debug\BLE Lab 3.a(ADC.o)
 .text.ADC_CountsTo_Volts
                0x00000000       0x80 .\CortexM0\ARM_GCC_493\Debug\BLE Lab 3.a(ADC.o)
 .text          0x00000000        0x0 .\CortexM0\ARM_GCC_493\Debug\BLE Lab 3.a(ADC_PM.o)
 .data          0x00000000        0x0 .\CortexM0\ARM_GCC_493\Debug\BLE Lab 3.a(ADC_PM.o)
 .text.ADC_SaveConfig
                0x00000000        0x8 .\CortexM0\ARM_GCC_493\Debug\BLE Lab 3.a(ADC_PM.o)
 .text.ADC_RestoreConfig
                0x00000000        0x8 .\CortexM0\ARM_GCC_493\Debug\BLE Lab 3.a(ADC_PM.o)
 .text          0x00000000        0x0 .\CortexM0\ARM_GCC_493\Debug\BLE Lab 3.a(ADC_INT.o)
 .data          0x00000000        0x0 .\CortexM0\ARM_GCC_493\Debug\BLE Lab 3.a(ADC_INT.o)
 .bss           0x00000000        0x0 .\CortexM0\ARM_GCC_493\Debug\BLE Lab 3.a(ADC_INT.o)
 .data          0x00000000        0x0 .\CortexM0\ARM_GCC_493\Debug\BLE Lab 3.a(CyBootAsmGnu.o)
 .bss           0x00000000        0x0 .\CortexM0\ARM_GCC_493\Debug\BLE Lab 3.a(CyBootAsmGnu.o)
 .text          0x00000000        0x0 .\CortexM0\ARM_GCC_493\Debug\BLE Lab 3.a(CyLib.o)
 .bss           0x00000000       0x18 .\CortexM0\ARM_GCC_493\Debug\BLE Lab 3.a(CyLib.o)
 .text.CySysClkImoStart
                0x00000000       0x1c .\CortexM0\ARM_GCC_493\Debug\BLE Lab 3.a(CyLib.o)
 .text.CySysClkImoStop
                0x00000000       0x18 .\CortexM0\ARM_GCC_493\Debug\BLE Lab 3.a(CyLib.o)
 .text.CySysClkWriteHfclkDirect
                0x00000000       0x40 .\CortexM0\ARM_GCC_493\Debug\BLE Lab 3.a(CyLib.o)
 .text.CySysClkEcoStop
                0x00000000       0x2c .\CortexM0\ARM_GCC_493\Debug\BLE Lab 3.a(CyLib.o)
 .text.CySysClkWriteEcoDiv
                0x00000000       0x58 .\CortexM0\ARM_GCC_493\Debug\BLE Lab 3.a(CyLib.o)
 .text.CySysLvdEnable
                0x00000000       0x60 .\CortexM0\ARM_GCC_493\Debug\BLE Lab 3.a(CyLib.o)
 .text.CySysLvdDisable
                0x00000000       0x28 .\CortexM0\ARM_GCC_493\Debug\BLE Lab 3.a(CyLib.o)
 .text.CySysLvdGetInterruptSource
                0x00000000       0x18 .\CortexM0\ARM_GCC_493\Debug\BLE Lab 3.a(CyLib.o)
 .text.CySysLvdClearInterrupt
                0x00000000       0x14 .\CortexM0\ARM_GCC_493\Debug\BLE Lab 3.a(CyLib.o)
 .text.CySysGetResetReason
                0x00000000       0x30 .\CortexM0\ARM_GCC_493\Debug\BLE Lab 3.a(CyLib.o)
 .text.CyDisableInts
                0x00000000       0x24 .\CortexM0\ARM_GCC_493\Debug\BLE Lab 3.a(CyLib.o)
 .text.CyEnableInts
                0x00000000       0x18 .\CortexM0\ARM_GCC_493\Debug\BLE Lab 3.a(CyLib.o)
 .text.CyIntSetSysVector
                0x00000000       0x48 .\CortexM0\ARM_GCC_493\Debug\BLE Lab 3.a(CyLib.o)
 .text.CyIntGetSysVector
                0x00000000       0x34 .\CortexM0\ARM_GCC_493\Debug\BLE Lab 3.a(CyLib.o)
 .text.CyIntGetVector
                0x00000000       0x38 .\CortexM0\ARM_GCC_493\Debug\BLE Lab 3.a(CyLib.o)
 .text.CyIntGetPriority
                0x00000000       0x5c .\CortexM0\ARM_GCC_493\Debug\BLE Lab 3.a(CyLib.o)
 .text.CyIntGetState
                0x00000000       0x30 .\CortexM0\ARM_GCC_493\Debug\BLE Lab 3.a(CyLib.o)
 .text.CyIntDisable
                0x00000000       0x28 .\CortexM0\ARM_GCC_493\Debug\BLE Lab 3.a(CyLib.o)
 .text.CyIntSetPending
                0x00000000       0x28 .\CortexM0\ARM_GCC_493\Debug\BLE Lab 3.a(CyLib.o)
 .text.CyIntClearPending
                0x00000000       0x28 .\CortexM0\ARM_GCC_493\Debug\BLE Lab 3.a(CyLib.o)
 .text.CySoftwareReset
                0x00000000       0x20 .\CortexM0\ARM_GCC_493\Debug\BLE Lab 3.a(CyLib.o)
 .text.CyDelayFreq
                0x00000000       0x84 .\CortexM0\ARM_GCC_493\Debug\BLE Lab 3.a(CyLib.o)
 .text.CySysTickStart
                0x00000000       0x24 .\CortexM0\ARM_GCC_493\Debug\BLE Lab 3.a(CyLib.o)
 .text.CySysTickInit
                0x00000000       0x64 .\CortexM0\ARM_GCC_493\Debug\BLE Lab 3.a(CyLib.o)
 .text.CySysTickEnable
                0x00000000       0x1c .\CortexM0\ARM_GCC_493\Debug\BLE Lab 3.a(CyLib.o)
 .text.CySysTickStop
                0x00000000       0x18 .\CortexM0\ARM_GCC_493\Debug\BLE Lab 3.a(CyLib.o)
 .text.CySysTickEnableInterrupt
                0x00000000       0x18 .\CortexM0\ARM_GCC_493\Debug\BLE Lab 3.a(CyLib.o)
 .text.CySysTickDisableInterrupt
                0x00000000       0x18 .\CortexM0\ARM_GCC_493\Debug\BLE Lab 3.a(CyLib.o)
 .text.CySysTickSetReload
                0x00000000       0x1c .\CortexM0\ARM_GCC_493\Debug\BLE Lab 3.a(CyLib.o)
 .text.CySysTickGetReload
                0x00000000       0x18 .\CortexM0\ARM_GCC_493\Debug\BLE Lab 3.a(CyLib.o)
 .text.CySysTickGetValue
                0x00000000       0x18 .\CortexM0\ARM_GCC_493\Debug\BLE Lab 3.a(CyLib.o)
 .text.CySysTickSetClockSource
                0x00000000       0x34 .\CortexM0\ARM_GCC_493\Debug\BLE Lab 3.a(CyLib.o)
 .text.CySysTickGetCountFlag
                0x00000000       0x18 .\CortexM0\ARM_GCC_493\Debug\BLE Lab 3.a(CyLib.o)
 .text.CySysTickClear
                0x00000000       0x14 .\CortexM0\ARM_GCC_493\Debug\BLE Lab 3.a(CyLib.o)
 .text.CySysTickSetCallback
                0x00000000       0x2c .\CortexM0\ARM_GCC_493\Debug\BLE Lab 3.a(CyLib.o)
 .text.CySysTickGetCallback
                0x00000000       0x1c .\CortexM0\ARM_GCC_493\Debug\BLE Lab 3.a(CyLib.o)
 .text.CySysTickServiceCallbacks
                0x00000000       0x44 .\CortexM0\ARM_GCC_493\Debug\BLE Lab 3.a(CyLib.o)
 .text.CyGetUniqueId
                0x00000000       0xc0 .\CortexM0\ARM_GCC_493\Debug\BLE Lab 3.a(CyLib.o)
 .text          0x00000000        0x0 .\CortexM0\ARM_GCC_493\Debug\BLE Lab 3.a(cyPm.o)
 .data          0x00000000        0x0 .\CortexM0\ARM_GCC_493\Debug\BLE Lab 3.a(cyPm.o)
 .bss           0x00000000        0x0 .\CortexM0\ARM_GCC_493\Debug\BLE Lab 3.a(cyPm.o)
 .text.CySysPmStop
                0x00000000       0x3c .\CortexM0\ARM_GCC_493\Debug\BLE Lab 3.a(cyPm.o)
 .text.CySysPmSetWakeupPolarity
                0x00000000       0x4c .\CortexM0\ARM_GCC_493\Debug\BLE Lab 3.a(cyPm.o)
 .text.CySysPmGetResetReason
                0x00000000       0x40 .\CortexM0\ARM_GCC_493\Debug\BLE Lab 3.a(cyPm.o)
 .text.CySysPmFreezeIo
                0x00000000       0x58 .\CortexM0\ARM_GCC_493\Debug\BLE Lab 3.a(cyPm.o)
 .text.CySysPmUnfreezeIo
                0x00000000       0x50 .\CortexM0\ARM_GCC_493\Debug\BLE Lab 3.a(cyPm.o)
 .text          0x00000000        0x0 .\CortexM0\ARM_GCC_493\Debug\BLE Lab 3.a(CyLFClk.o)
 .data          0x00000000        0x4 .\CortexM0\ARM_GCC_493\Debug\BLE Lab 3.a(CyLFClk.o)
 .bss           0x00000000       0x1c .\CortexM0\ARM_GCC_493\Debug\BLE Lab 3.a(CyLFClk.o)
 .rodata        0x00000000        0xc .\CortexM0\ARM_GCC_493\Debug\BLE Lab 3.a(CyLFClk.o)
 .text.CySysClkIloStart
                0x00000000       0x1c .\CortexM0\ARM_GCC_493\Debug\BLE Lab 3.a(CyLFClk.o)
 .text.CySysClkIloStop
                0x00000000       0x60 .\CortexM0\ARM_GCC_493\Debug\BLE Lab 3.a(CyLFClk.o)
 .text.CySysClkIloEnabled
                0x00000000       0x1c .\CortexM0\ARM_GCC_493\Debug\BLE Lab 3.a(CyLFClk.o)
 .text.CySysClkGetLfclkSource
                0x00000000       0x20 .\CortexM0\ARM_GCC_493\Debug\BLE Lab 3.a(CyLFClk.o)
 .text.CySysClkSetLfclkSource
                0x00000000       0x54 .\CortexM0\ARM_GCC_493\Debug\BLE Lab 3.a(CyLFClk.o)
 .text.CySysClkWcoStop
                0x00000000       0x5c .\CortexM0\ARM_GCC_493\Debug\BLE Lab 3.a(CyLFClk.o)
 .text.CySysClkWcoEnabled
                0x00000000       0x1c .\CortexM0\ARM_GCC_493\Debug\BLE Lab 3.a(CyLFClk.o)
 .text.CySysWdtGetMode
                0x00000000       0x24 .\CortexM0\ARM_GCC_493\Debug\BLE Lab 3.a(CyLFClk.o)
 .text.CySysWdtGetClearOnMatch
                0x00000000       0x40 .\CortexM0\ARM_GCC_493\Debug\BLE Lab 3.a(CyLFClk.o)
 .text.CySysWdtDisable
                0x00000000       0x68 .\CortexM0\ARM_GCC_493\Debug\BLE Lab 3.a(CyLFClk.o)
 .text.CySysWdtSetCascade
                0x00000000       0x58 .\CortexM0\ARM_GCC_493\Debug\BLE Lab 3.a(CyLFClk.o)
 .text.CySysWdtGetCascade
                0x00000000       0x1c .\CortexM0\ARM_GCC_493\Debug\BLE Lab 3.a(CyLFClk.o)
 .text.CySysWdtSetToggleBit
                0x00000000       0x44 .\CortexM0\ARM_GCC_493\Debug\BLE Lab 3.a(CyLFClk.o)
 .text.CySysWdtGetToggleBit
                0x00000000       0x18 .\CortexM0\ARM_GCC_493\Debug\BLE Lab 3.a(CyLFClk.o)
 .text.CySysWdtGetMatch
                0x00000000       0x40 .\CortexM0\ARM_GCC_493\Debug\BLE Lab 3.a(CyLFClk.o)
 .text.CySysWdtGetCount
                0x00000000       0x54 .\CortexM0\ARM_GCC_493\Debug\BLE Lab 3.a(CyLFClk.o)
 .text.CySysWdtGetInterruptSource
                0x00000000       0x1c .\CortexM0\ARM_GCC_493\Debug\BLE Lab 3.a(CyLFClk.o)
 .text.CySysWdtResetCounters
                0x00000000       0x34 .\CortexM0\ARM_GCC_493\Debug\BLE Lab 3.a(CyLFClk.o)
 .text.CySysWdtSetInterruptCallback
                0x00000000       0x40 .\CortexM0\ARM_GCC_493\Debug\BLE Lab 3.a(CyLFClk.o)
 .text.CySysWdtGetInterruptCallback
                0x00000000       0x34 .\CortexM0\ARM_GCC_493\Debug\BLE Lab 3.a(CyLFClk.o)
 .text.CySysWdtEnableCounterIsr
                0x00000000       0x50 .\CortexM0\ARM_GCC_493\Debug\BLE Lab 3.a(CyLFClk.o)
 .text.CySysWdtDisableCounterIsr
                0x00000000       0x38 .\CortexM0\ARM_GCC_493\Debug\BLE Lab 3.a(CyLFClk.o)
 .text.CySysWdtIsr
                0x00000000       0xe8 .\CortexM0\ARM_GCC_493\Debug\BLE Lab 3.a(CyLFClk.o)
 .text.CySysTimerDelay
                0x00000000       0x6c .\CortexM0\ARM_GCC_493\Debug\BLE Lab 3.a(CyLFClk.o)
 .text.CySysTimerDelayUntilMatch
                0x00000000       0xac .\CortexM0\ARM_GCC_493\Debug\BLE Lab 3.a(CyLFClk.o)
 .text.CySysWatchdogFeed
                0x00000000       0x88 .\CortexM0\ARM_GCC_493\Debug\BLE Lab 3.a(CyLFClk.o)
 .text.CySysClkLfclkPosedgeCatch
                0x00000000       0x98 .\CortexM0\ARM_GCC_493\Debug\BLE Lab 3.a(CyLFClk.o)
 .text.CySysClkLfclkPosedgeRestore
                0x00000000       0x3c .\CortexM0\ARM_GCC_493\Debug\BLE Lab 3.a(CyLFClk.o)
 i.CyBle_GetDeviceAddress
                0x00000000        0x8 C:\9047software\PSoC Creator\3.3\PSoC Creator\psoc\content\cycomponentlibrary\CyComponentLibrary.cylib\BLE_v2_0\Library\gccCyBLEStack_BLE_SOC_PERIPHERAL.a(CyBle.o)
 i.CyBle_GetStackLibraryVersion
                0x00000000       0x18 C:\9047software\PSoC Creator\3.3\PSoC Creator\psoc\content\cycomponentlibrary\CyComponentLibrary.cylib\BLE_v2_0\Library\gccCyBLEStack_BLE_SOC_PERIPHERAL.a(CyBle.o)
 i.CyBle_SoftReset
                0x00000000       0x30 C:\9047software\PSoC Creator\3.3\PSoC Creator\psoc\content\cycomponentlibrary\CyComponentLibrary.cylib\BLE_v2_0\Library\gccCyBLEStack_BLE_SOC_PERIPHERAL.a(CyBle.o)
 .data          0x00000000        0x4 C:\9047software\PSoC Creator\3.3\PSoC Creator\psoc\content\cycomponentlibrary\CyComponentLibrary.cylib\BLE_v2_0\Library\gccCyBLEStack_BLE_SOC_PERIPHERAL.a(CyBle.o)
 .data          0x00000000        0x4 C:\9047software\PSoC Creator\3.3\PSoC Creator\psoc\content\cycomponentlibrary\CyComponentLibrary.cylib\BLE_v2_0\Library\gccCyBLEStack_BLE_SOC_PERIPHERAL.a(BT_os.o)
 .data          0x00000000        0x2 C:\9047software\PSoC Creator\3.3\PSoC Creator\psoc\content\cycomponentlibrary\CyComponentLibrary.cylib\BLE_v2_0\Library\gccCyBLEStack_BLE_SOC_PERIPHERAL.a(BT_os.o)
 .data          0x00000000        0x4 C:\9047software\PSoC Creator\3.3\PSoC Creator\psoc\content\cycomponentlibrary\CyComponentLibrary.cylib\BLE_v2_0\Library\gccCyBLEStack_BLE_SOC_PERIPHERAL.a(BT_os.o)
 i.idle_task_handler
                0x00000000        0x2 C:\9047software\PSoC Creator\3.3\PSoC Creator\psoc\content\cycomponentlibrary\CyComponentLibrary.cylib\BLE_v2_0\Library\gccCyBLEStack_BLE_SOC_PERIPHERAL.a(CyBleStackMgr_StackTaskHandler.o)
 __ARM_common_switch8
                0x00000000        0xc C:\9047software\PSoC Creator\3.3\PSoC Creator\psoc\content\cycomponentlibrary\CyComponentLibrary.cylib\BLE_v2_0\Library\gccCyBLEStack_BLE_SOC_PERIPHERAL.a(CyBleStackMgr_StackTaskHandler.o)
 i.pf_app_get_max_tx_acl_data_size
                0x00000000        0x4 C:\9047software\PSoC Creator\3.3\PSoC Creator\psoc\content\cycomponentlibrary\CyComponentLibrary.cylib\BLE_v2_0\Library\gccCyBLEStack_BLE_SOC_PERIPHERAL.a(transport_sf.o)
 i.pf_app_transport_alloc_buffer
                0x00000000        0x4 C:\9047software\PSoC Creator\3.3\PSoC Creator\psoc\content\cycomponentlibrary\CyComponentLibrary.cylib\BLE_v2_0\Library\gccCyBLEStack_BLE_SOC_PERIPHERAL.a(transport_sf.o)
 i.CyBleStackMgr_HalShutdown
                0x00000000        0x2 C:\9047software\PSoC Creator\3.3\PSoC Creator\psoc\content\cycomponentlibrary\CyComponentLibrary.cylib\BLE_v2_0\Library\gccCyBLEStack_BLE_SOC_PERIPHERAL.a(CyBleStackMgr_PSoCHal.o)
 i.CyBleStackMgr_NvramRead
                0x00000000        0xe C:\9047software\PSoC Creator\3.3\PSoC Creator\psoc\content\cycomponentlibrary\CyComponentLibrary.cylib\BLE_v2_0\Library\gccCyBLEStack_BLE_SOC_PERIPHERAL.a(CyBleStackMgr_PSoCHal.o)
 i.CyBleStackMgr_BleSSRdRegRead
                0x00000000        0xc C:\9047software\PSoC Creator\3.3\PSoC Creator\psoc\content\cycomponentlibrary\CyComponentLibrary.cylib\BLE_v2_0\Library\gccCyBLEStack_BLE_SOC_PERIPHERAL.a(CyBleStackMgr_BleSSDriver.o)
 i.CyBleStackMgr_BleSSRdRegWrite
                0x00000000        0xc C:\9047software\PSoC Creator\3.3\PSoC Creator\psoc\content\cycomponentlibrary\CyComponentLibrary.cylib\BLE_v2_0\Library\gccCyBLEStack_BLE_SOC_PERIPHERAL.a(CyBleStackMgr_BleSSDriver.o)
 i.CyBle_AesCcmInit
                0x00000000       0x68 C:\9047software\PSoC Creator\3.3\PSoC Creator\psoc\content\cycomponentlibrary\CyComponentLibrary.cylib\BLE_v2_0\Library\gccCyBLEStack_BLE_SOC_PERIPHERAL.a(CyBleStackMgr_BleSSDriver.o)
 i.CyBle_GetBleClockCfgParam
                0x00000000       0x20 C:\9047software\PSoC Creator\3.3\PSoC Creator\psoc\content\cycomponentlibrary\CyComponentLibrary.cylib\BLE_v2_0\Library\gccCyBLEStack_BLE_SOC_PERIPHERAL.a(CyBleStackMgr_BleSSDriver.o)
 i.CyBle_SetBleClockCfgParam
                0x00000000       0xc0 C:\9047software\PSoC Creator\3.3\PSoC Creator\psoc\content\cycomponentlibrary\CyComponentLibrary.cylib\BLE_v2_0\Library\gccCyBLEStack_BLE_SOC_PERIPHERAL.a(CyBleStackMgr_BleSSDriver.o)
 i.pf_rf_get_abs_power
                0x00000000        0x2 C:\9047software\PSoC Creator\3.3\PSoC Creator\psoc\content\cycomponentlibrary\CyComponentLibrary.cylib\BLE_v2_0\Library\gccCyBLEStack_BLE_SOC_PERIPHERAL.a(CyBleStackMgr_BleSSDriver.o)
 __ARM_common_switch8
                0x00000000        0xc C:\9047software\PSoC Creator\3.3\PSoC Creator\psoc\content\cycomponentlibrary\CyComponentLibrary.cylib\BLE_v2_0\Library\gccCyBLEStack_BLE_SOC_PERIPHERAL.a(CyBleStackMgr_BleSSDriver.o)
 i.__ARM_common_switch8
                0x00000000       0x1a C:\9047software\PSoC Creator\3.3\PSoC Creator\psoc\content\cycomponentlibrary\CyComponentLibrary.cylib\BLE_v2_0\Library\gccCyBLEStack_BLE_SOC_PERIPHERAL.a(CyBleStackMgr_BleSSDriver.o)
 .debug_frame   0x00000000       0x48 C:\9047software\PSoC Creator\3.3\PSoC Creator\psoc\content\cycomponentlibrary\CyComponentLibrary.cylib\BLE_v2_0\Library\gccCyBLEStack_BLE_SOC_PERIPHERAL.a(CyBleStackMgr_BleSSDriver.o)
 i.mintos_free  0x00000000        0x2 C:\9047software\PSoC Creator\3.3\PSoC Creator\psoc\content\cycomponentlibrary\CyComponentLibrary.cylib\BLE_v2_0\Library\gccCyBLEStack_BLE_SOC_PERIPHERAL.a(mint_os.o)
 i.os_reset_heap_pointer
                0x00000000        0x2 C:\9047software\PSoC Creator\3.3\PSoC Creator\psoc\content\cycomponentlibrary\CyComponentLibrary.cylib\BLE_v2_0\Library\gccCyBLEStack_BLE_SOC_PERIPHERAL.a(mint_os.o)
 i.OS_queue_mgmt_shutdown
                0x00000000        0x4 C:\9047software\PSoC Creator\3.3\PSoC Creator\psoc\content\cycomponentlibrary\CyComponentLibrary.cylib\BLE_v2_0\Library\gccCyBLEStack_BLE_SOC_PERIPHERAL.a(mint_os_queue.o)
 i.idle_func_handler1
                0x00000000        0x2 C:\9047software\PSoC Creator\3.3\PSoC Creator\psoc\content\cycomponentlibrary\CyComponentLibrary.cylib\BLE_v2_0\Library\gccCyBLEStack_BLE_SOC_PERIPHERAL.a(mint_os_task.o)
 i.mint_buf_mgmt_free
                0x00000000        0x2 C:\9047software\PSoC Creator\3.3\PSoC Creator\psoc\content\cycomponentlibrary\CyComponentLibrary.cylib\BLE_v2_0\Library\gccCyBLEStack_BLE_SOC_PERIPHERAL.a(mint_buf_mgmt.o)
 i.mint_buf_mgmt_get_free_heap
                0x00000000       0x1c C:\9047software\PSoC Creator\3.3\PSoC Creator\psoc\content\cycomponentlibrary\CyComponentLibrary.cylib\BLE_v2_0\Library\gccCyBLEStack_BLE_SOC_PERIPHERAL.a(mint_buf_mgmt.o)
 i.CyBleControllerIP_SetPingState
                0x00000000        0xc C:\9047software\PSoC Creator\3.3\PSoC Creator\psoc\content\cycomponentlibrary\CyComponentLibrary.cylib\BLE_v2_0\Library\gccCyBLEStack_BLE_SOC_PERIPHERAL.a(CyBleControllerIP_Interface.o)
 i.CyBleController_ClearWhiteList
                0x00000000       0x1a C:\9047software\PSoC Creator\3.3\PSoC Creator\psoc\content\cycomponentlibrary\CyComponentLibrary.cylib\BLE_v2_0\Library\gccCyBLEStack_BLE_SOC_PERIPHERAL.a(CyBleControllerIP_Interface.o)
 i.CyBleController_GetCurrentWhiteListCount
                0x00000000       0x24 C:\9047software\PSoC Creator\3.3\PSoC Creator\psoc\content\cycomponentlibrary\CyComponentLibrary.cylib\BLE_v2_0\Library\gccCyBLEStack_BLE_SOC_PERIPHERAL.a(CyBleControllerIP_Interface.o)
 i.CyBleController_GetDeviceAddress
                0x00000000       0x22 C:\9047software\PSoC Creator\3.3\PSoC Creator\psoc\content\cycomponentlibrary\CyComponentLibrary.cylib\BLE_v2_0\Library\gccCyBLEStack_BLE_SOC_PERIPHERAL.a(CyBleControllerIP_Interface.o)
 i.CyBleController_GetDevicesFromWhiteList
                0x00000000       0xac C:\9047software\PSoC Creator\3.3\PSoC Creator\psoc\content\cycomponentlibrary\CyComponentLibrary.cylib\BLE_v2_0\Library\gccCyBLEStack_BLE_SOC_PERIPHERAL.a(CyBleControllerIP_Interface.o)
 i.CyBleController_RemoveDeviceFromWhiteList
                0x00000000       0x38 C:\9047software\PSoC Creator\3.3\PSoC Creator\psoc\content\cycomponentlibrary\CyComponentLibrary.cylib\BLE_v2_0\Library\gccCyBLEStack_BLE_SOC_PERIPHERAL.a(CyBleControllerIP_Interface.o)
 i.CyBle_AesCcmDecrypt
                0x00000000       0x44 C:\9047software\PSoC Creator\3.3\PSoC Creator\psoc\content\cycomponentlibrary\CyComponentLibrary.cylib\BLE_v2_0\Library\gccCyBLEStack_BLE_SOC_PERIPHERAL.a(CyBleControllerIP_Interface.o)
 i.CyBle_AesCcmEncrypt
                0x00000000       0x3a C:\9047software\PSoC Creator\3.3\PSoC Creator\psoc\content\cycomponentlibrary\CyComponentLibrary.cylib\BLE_v2_0\Library\gccCyBLEStack_BLE_SOC_PERIPHERAL.a(CyBleControllerIP_Interface.o)
 i.CyBle_AesEncrypt
                0x00000000       0x5c C:\9047software\PSoC Creator\3.3\PSoC Creator\psoc\content\cycomponentlibrary\CyComponentLibrary.cylib\BLE_v2_0\Library\gccCyBLEStack_BLE_SOC_PERIPHERAL.a(CyBleControllerIP_Interface.o)
 i.CyBle_GapUpdateAdvData
                0x00000000       0x94 C:\9047software\PSoC Creator\3.3\PSoC Creator\psoc\content\cycomponentlibrary\CyComponentLibrary.cylib\BLE_v2_0\Library\gccCyBLEStack_BLE_SOC_PERIPHERAL.a(CyBleControllerIP_Interface.o)
 i.CyBle_GenerateRandomNumber
                0x00000000       0x1c C:\9047software\PSoC Creator\3.3\PSoC Creator\psoc\content\cycomponentlibrary\CyComponentLibrary.cylib\BLE_v2_0\Library\gccCyBLEStack_BLE_SOC_PERIPHERAL.a(CyBleControllerIP_Interface.o)
 i.CyBle_GetRssi
                0x00000000       0x22 C:\9047software\PSoC Creator\3.3\PSoC Creator\psoc\content\cycomponentlibrary\CyComponentLibrary.cylib\BLE_v2_0\Library\gccCyBLEStack_BLE_SOC_PERIPHERAL.a(CyBleControllerIP_Interface.o)
 i.CyBle_ReadAuthPayloadTimeout
                0x00000000       0x64 C:\9047software\PSoC Creator\3.3\PSoC Creator\psoc\content\cycomponentlibrary\CyComponentLibrary.cylib\BLE_v2_0\Library\gccCyBLEStack_BLE_SOC_PERIPHERAL.a(CyBleControllerIP_Interface.o)
 i.CyBle_SetCeLengthParam
                0x00000000       0x7c C:\9047software\PSoC Creator\3.3\PSoC Creator\psoc\content\cycomponentlibrary\CyComponentLibrary.cylib\BLE_v2_0\Library\gccCyBLEStack_BLE_SOC_PERIPHERAL.a(CyBleControllerIP_Interface.o)
 i.CyBle_WriteAuthPayloadTimeout
                0x00000000       0x84 C:\9047software\PSoC Creator\3.3\PSoC Creator\psoc\content\cycomponentlibrary\CyComponentLibrary.cylib\BLE_v2_0\Library\gccCyBLEStack_BLE_SOC_PERIPHERAL.a(CyBleControllerIP_Interface.o)
 i.CyBle_isFlashWriteAllowed
                0x00000000       0x34 C:\9047software\PSoC Creator\3.3\PSoC Creator\psoc\content\cycomponentlibrary\CyComponentLibrary.cylib\BLE_v2_0\Library\gccCyBLEStack_BLE_SOC_PERIPHERAL.a(CyBleControllerIP_Interface.o)
 i.ll_handle_set_host_channel_map
                0x00000000        0x4 C:\9047software\PSoC Creator\3.3\PSoC Creator\psoc\content\cycomponentlibrary\CyComponentLibrary.cylib\BLE_v2_0\Library\gccCyBLEStack_BLE_SOC_PERIPHERAL.a(ll.o)
 i.ll_is_packet_ready_for_transmission
                0x00000000        0x4 C:\9047software\PSoC Creator\3.3\PSoC Creator\psoc\content\cycomponentlibrary\CyComponentLibrary.cylib\BLE_v2_0\Library\gccCyBLEStack_BLE_SOC_PERIPHERAL.a(ll.o)
 .data          0x00000000        0x1 C:\9047software\PSoC Creator\3.3\PSoC Creator\psoc\content\cycomponentlibrary\CyComponentLibrary.cylib\BLE_v2_0\Library\gccCyBLEStack_BLE_SOC_PERIPHERAL.a(ll.o)
 i.ll_conn_is_channel_map_update_in_progress
                0x00000000       0x10 C:\9047software\PSoC Creator\3.3\PSoC Creator\psoc\content\cycomponentlibrary\CyComponentLibrary.cylib\BLE_v2_0\Library\gccCyBLEStack_BLE_SOC_PERIPHERAL.a(ll_connection.o)
 i.ll_conn_send_connection_update
                0x00000000        0x4 C:\9047software\PSoC Creator\3.3\PSoC Creator\psoc\content\cycomponentlibrary\CyComponentLibrary.cylib\BLE_v2_0\Library\gccCyBLEStack_BLE_SOC_PERIPHERAL.a(ll_connection.o)
 i.ll_decrement_rx_packet_count
                0x00000000        0x8 C:\9047software\PSoC Creator\3.3\PSoC Creator\psoc\content\cycomponentlibrary\CyComponentLibrary.cylib\BLE_v2_0\Library\gccCyBLEStack_BLE_SOC_PERIPHERAL.a(ll_connection.o)
 i.ll_fsm_handle_start_of_conn_interval
                0x00000000        0x2 C:\9047software\PSoC Creator\3.3\PSoC Creator\psoc\content\cycomponentlibrary\CyComponentLibrary.cylib\BLE_v2_0\Library\gccCyBLEStack_BLE_SOC_PERIPHERAL.a(ll_connection.o)
 i.ll_handle_ack_ind
                0x00000000       0x1c C:\9047software\PSoC Creator\3.3\PSoC Creator\psoc\content\cycomponentlibrary\CyComponentLibrary.cylib\BLE_v2_0\Library\gccCyBLEStack_BLE_SOC_PERIPHERAL.a(ll_connection.o)
 i.ll_handle_connection_ready_indication
                0x00000000        0x2 C:\9047software\PSoC Creator\3.3\PSoC Creator\psoc\content\cycomponentlibrary\CyComponentLibrary.cylib\BLE_v2_0\Library\gccCyBLEStack_BLE_SOC_PERIPHERAL.a(ll_connection.o)
 i.ll_pause_data_transfer
                0x00000000        0x8 C:\9047software\PSoC Creator\3.3\PSoC Creator\psoc\content\cycomponentlibrary\CyComponentLibrary.cylib\BLE_v2_0\Library\gccCyBLEStack_BLE_SOC_PERIPHERAL.a(ll_connection.o)
 i.ll_perform_feature_exchange
                0x00000000       0x44 C:\9047software\PSoC Creator\3.3\PSoC Creator\psoc\content\cycomponentlibrary\CyComponentLibrary.cylib\BLE_v2_0\Library\gccCyBLEStack_BLE_SOC_PERIPHERAL.a(ll_connection.o)
 i.ll_resume_data_transfer
                0x00000000        0x8 C:\9047software\PSoC Creator\3.3\PSoC Creator\psoc\content\cycomponentlibrary\CyComponentLibrary.cylib\BLE_v2_0\Library\gccCyBLEStack_BLE_SOC_PERIPHERAL.a(ll_connection.o)
 i.ll_retrieve_conn_initiation_in_progress
                0x00000000        0xa C:\9047software\PSoC Creator\3.3\PSoC Creator\psoc\content\cycomponentlibrary\CyComponentLibrary.cylib\BLE_v2_0\Library\gccCyBLEStack_BLE_SOC_PERIPHERAL.a(ll_connection.o)
 i.ll_store_conn_update_cmd_params
                0x00000000       0x1a C:\9047software\PSoC Creator\3.3\PSoC Creator\psoc\content\cycomponentlibrary\CyComponentLibrary.cylib\BLE_v2_0\Library\gccCyBLEStack_BLE_SOC_PERIPHERAL.a(ll_connection.o)
 __ARM_common_switch8
                0x00000000        0xc C:\9047software\PSoC Creator\3.3\PSoC Creator\psoc\content\cycomponentlibrary\CyComponentLibrary.cylib\BLE_v2_0\Library\gccCyBLEStack_BLE_SOC_PERIPHERAL.a(ll_connection.o)
 i.__ARM_common_switch8
                0x00000000       0x1a C:\9047software\PSoC Creator\3.3\PSoC Creator\psoc\content\cycomponentlibrary\CyComponentLibrary.cylib\BLE_v2_0\Library\gccCyBLEStack_BLE_SOC_PERIPHERAL.a(ll_connection.o)
 .debug_frame   0x00000000       0x48 C:\9047software\PSoC Creator\3.3\PSoC Creator\psoc\content\cycomponentlibrary\CyComponentLibrary.cylib\BLE_v2_0\Library\gccCyBLEStack_BLE_SOC_PERIPHERAL.a(ll_connection.o)
 i.llh_config_conn_as_master
                0x00000000       0x18 C:\9047software\PSoC Creator\3.3\PSoC Creator\psoc\content\cycomponentlibrary\CyComponentLibrary.cylib\BLE_v2_0\Library\gccCyBLEStack_BLE_SOC_PERIPHERAL.a(llh_api.o)
 i.llh_derive_instant
                0x00000000       0x1a C:\9047software\PSoC Creator\3.3\PSoC Creator\psoc\content\cycomponentlibrary\CyComponentLibrary.cylib\BLE_v2_0\Library\gccCyBLEStack_BLE_SOC_PERIPHERAL.a(llh_api.o)
 i.llh_get_current_ce_count
                0x00000000       0x14 C:\9047software\PSoC Creator\3.3\PSoC Creator\psoc\content\cycomponentlibrary\CyComponentLibrary.cylib\BLE_v2_0\Library\gccCyBLEStack_BLE_SOC_PERIPHERAL.a(llh_api.o)
 i.llh_program_init_params
                0x00000000       0x2e C:\9047software\PSoC Creator\3.3\PSoC Creator\psoc\content\cycomponentlibrary\CyComponentLibrary.cylib\BLE_v2_0\Library\gccCyBLEStack_BLE_SOC_PERIPHERAL.a(llh_api.o)
 i.llh_read_rssi_from_fifo
                0x00000000        0xa C:\9047software\PSoC Creator\3.3\PSoC Creator\psoc\content\cycomponentlibrary\CyComponentLibrary.cylib\BLE_v2_0\Library\gccCyBLEStack_BLE_SOC_PERIPHERAL.a(llh_api.o)
 i.llh_update_channel_map
                0x00000000       0x38 C:\9047software\PSoC Creator\3.3\PSoC Creator\psoc\content\cycomponentlibrary\CyComponentLibrary.cylib\BLE_v2_0\Library\gccCyBLEStack_BLE_SOC_PERIPHERAL.a(llh_api.o)
 i.ll_generate_le_rd_remote_used_feat_event
                0x00000000       0x26 C:\9047software\PSoC Creator\3.3\PSoC Creator\psoc\content\cycomponentlibrary\CyComponentLibrary.cylib\BLE_v2_0\Library\gccCyBLEStack_BLE_SOC_PERIPHERAL.a(ll_pdu.o)
 i.ll_get_conn_update_txn_info
                0x00000000       0x32 C:\9047software\PSoC Creator\3.3\PSoC Creator\psoc\content\cycomponentlibrary\CyComponentLibrary.cylib\BLE_v2_0\Library\gccCyBLEStack_BLE_SOC_PERIPHERAL.a(ll_pdu.o)
 i.ll_handle_failure_during_conn_update
                0x00000000       0x38 C:\9047software\PSoC Creator\3.3\PSoC Creator\psoc\content\cycomponentlibrary\CyComponentLibrary.cylib\BLE_v2_0\Library\gccCyBLEStack_BLE_SOC_PERIPHERAL.a(ll_pdu.o)
 __ARM_common_switch8
                0x00000000        0xc C:\9047software\PSoC Creator\3.3\PSoC Creator\psoc\content\cycomponentlibrary\CyComponentLibrary.cylib\BLE_v2_0\Library\gccCyBLEStack_BLE_SOC_PERIPHERAL.a(ll_tasks.o)
 i.__ARM_common_switch8
                0x00000000       0x1a C:\9047software\PSoC Creator\3.3\PSoC Creator\psoc\content\cycomponentlibrary\CyComponentLibrary.cylib\BLE_v2_0\Library\gccCyBLEStack_BLE_SOC_PERIPHERAL.a(ll_tasks.o)
 .debug_frame   0x00000000       0x48 C:\9047software\PSoC Creator\3.3\PSoC Creator\psoc\content\cycomponentlibrary\CyComponentLibrary.cylib\BLE_v2_0\Library\gccCyBLEStack_BLE_SOC_PERIPHERAL.a(ll_tasks.o)
 i.ll_decryption_aes_ccm_mode_appl
                0x00000000       0x30 C:\9047software\PSoC Creator\3.3\PSoC Creator\psoc\content\cycomponentlibrary\CyComponentLibrary.cylib\BLE_v2_0\Library\gccCyBLEStack_BLE_SOC_PERIPHERAL.a(ll_utils.o)
 i.ll_encryption_aes_ccm_mode_appl
                0x00000000       0x30 C:\9047software\PSoC Creator\3.3\PSoC Creator\psoc\content\cycomponentlibrary\CyComponentLibrary.cylib\BLE_v2_0\Library\gccCyBLEStack_BLE_SOC_PERIPHERAL.a(ll_utils.o)
 i.pf_btc_get_timestamp
                0x00000000        0xc C:\9047software\PSoC Creator\3.3\PSoC Creator\psoc\content\cycomponentlibrary\CyComponentLibrary.cylib\BLE_v2_0\Library\gccCyBLEStack_BLE_SOC_PERIPHERAL.a(ll_utils.o)
 i.llf_task_bt_shutdown
                0x00000000       0x54 C:\9047software\PSoC Creator\3.3\PSoC Creator\psoc\content\cycomponentlibrary\CyComponentLibrary.cylib\BLE_v2_0\Library\gccCyBLEStack_BLE_SOC_PERIPHERAL.a(llf_task.o)
 i.hci_generate_le_rd_remote_used_feat_event
                0x00000000       0x5a C:\9047software\PSoC Creator\3.3\PSoC Creator\psoc\content\cycomponentlibrary\CyComponentLibrary.cylib\BLE_v2_0\Library\gccCyBLEStack_BLE_SOC_PERIPHERAL.a(lec_hci_le_conn_commands.o)
 i.pf_hci_get_max_cmd_size
                0x00000000        0x4 C:\9047software\PSoC Creator\3.3\PSoC Creator\psoc\content\cycomponentlibrary\CyComponentLibrary.cylib\BLE_v2_0\Library\gccCyBLEStack_BLE_SOC_PERIPHERAL.a(hci_td.o)
 i.pf_hci_get_max_tx_acl_data_size
                0x00000000        0x4 C:\9047software\PSoC Creator\3.3\PSoC Creator\psoc\content\cycomponentlibrary\CyComponentLibrary.cylib\BLE_v2_0\Library\gccCyBLEStack_BLE_SOC_PERIPHERAL.a(hci_td.o)
 i.pf_hci_transport_free_buffer
                0x00000000       0x1a C:\9047software\PSoC Creator\3.3\PSoC Creator\psoc\content\cycomponentlibrary\CyComponentLibrary.cylib\BLE_v2_0\Library\gccCyBLEStack_BLE_SOC_PERIPHERAL.a(hci_td.o)
 i.CyBle_StartTimer
                0x00000000       0x34 C:\9047software\PSoC Creator\3.3\PSoC Creator\psoc\content\cycomponentlibrary\CyComponentLibrary.cylib\BLE_v2_0\Library\gccCyBLEStack_BLE_SOC_PERIPHERAL.a(host_main.o)
 i.CyBle_StopTimer
                0x00000000       0x28 C:\9047software\PSoC Creator\3.3\PSoC Creator\psoc\content\cycomponentlibrary\CyComponentLibrary.cylib\BLE_v2_0\Library\gccCyBLEStack_BLE_SOC_PERIPHERAL.a(host_main.o)
 i.CyBle_StoreAppData
                0x00000000       0x24 C:\9047software\PSoC Creator\3.3\PSoC Creator\psoc\content\cycomponentlibrary\CyComponentLibrary.cylib\BLE_v2_0\Library\gccCyBLEStack_BLE_SOC_PERIPHERAL.a(host_main.o)
 i.CyBle_StoreStackData
                0x00000000        0x8 C:\9047software\PSoC Creator\3.3\PSoC Creator\psoc\content\cycomponentlibrary\CyComponentLibrary.cylib\BLE_v2_0\Library\gccCyBLEStack_BLE_SOC_PERIPHERAL.a(host_main.o)
 i.CyBle_TimerExpiryHandler
                0x00000000       0x10 C:\9047software\PSoC Creator\3.3\PSoC Creator\psoc\content\cycomponentlibrary\CyComponentLibrary.cylib\BLE_v2_0\Library\gccCyBLEStack_BLE_SOC_PERIPHERAL.a(host_main.o)
 i.BT_att_access_mtu
                0x00000000       0x2c C:\9047software\PSoC Creator\3.3\PSoC Creator\psoc\content\cycomponentlibrary\CyComponentLibrary.cylib\BLE_v2_0\Library\gccCyBLEStack_BLE_SOC_PERIPHERAL.a(att_api.o)
 __ARM_common_switch8
                0x00000000        0xc C:\9047software\PSoC Creator\3.3\PSoC Creator\psoc\content\cycomponentlibrary\CyComponentLibrary.cylib\BLE_v2_0\Library\gccCyBLEStack_BLE_SOC_PERIPHERAL.a(att_api.o)
 i.__ARM_common_switch8
                0x00000000       0x1a C:\9047software\PSoC Creator\3.3\PSoC Creator\psoc\content\cycomponentlibrary\CyComponentLibrary.cylib\BLE_v2_0\Library\gccCyBLEStack_BLE_SOC_PERIPHERAL.a(att_api.o)
 .debug_frame   0x00000000       0x48 C:\9047software\PSoC Creator\3.3\PSoC Creator\psoc\content\cycomponentlibrary\CyComponentLibrary.cylib\BLE_v2_0\Library\gccCyBLEStack_BLE_SOC_PERIPHERAL.a(att_api.o)
 i.CyBle_L2capCbfcConnectReq
                0x00000000       0x22 C:\9047software\PSoC Creator\3.3\PSoC Creator\psoc\content\cycomponentlibrary\CyComponentLibrary.cylib\BLE_v2_0\Library\gccCyBLEStack_BLE_SOC_PERIPHERAL.a(l2cap.o)
 i.CyBle_L2capCbfcConnectRsp
                0x00000000       0x1e C:\9047software\PSoC Creator\3.3\PSoC Creator\psoc\content\cycomponentlibrary\CyComponentLibrary.cylib\BLE_v2_0\Library\gccCyBLEStack_BLE_SOC_PERIPHERAL.a(l2cap.o)
 i.CyBle_L2capCbfcRegisterPsm
                0x00000000       0x78 C:\9047software\PSoC Creator\3.3\PSoC Creator\psoc\content\cycomponentlibrary\CyComponentLibrary.cylib\BLE_v2_0\Library\gccCyBLEStack_BLE_SOC_PERIPHERAL.a(l2cap.o)
 i.CyBle_L2capCbfcSendFlowControlCredit
                0x00000000       0x16 C:\9047software\PSoC Creator\3.3\PSoC Creator\psoc\content\cycomponentlibrary\CyComponentLibrary.cylib\BLE_v2_0\Library\gccCyBLEStack_BLE_SOC_PERIPHERAL.a(l2cap.o)
 i.CyBle_L2capCbfcUnregisterPsm
                0x00000000       0x16 C:\9047software\PSoC Creator\3.3\PSoC Creator\psoc\content\cycomponentlibrary\CyComponentLibrary.cylib\BLE_v2_0\Library\gccCyBLEStack_BLE_SOC_PERIPHERAL.a(l2cap.o)
 i.CyBle_L2capChannelDataWrite
                0x00000000       0x22 C:\9047software\PSoC Creator\3.3\PSoC Creator\psoc\content\cycomponentlibrary\CyComponentLibrary.cylib\BLE_v2_0\Library\gccCyBLEStack_BLE_SOC_PERIPHERAL.a(l2cap.o)
 i.CyBle_L2capCheckErrCode
                0x00000000       0xb4 C:\9047software\PSoC Creator\3.3\PSoC Creator\psoc\content\cycomponentlibrary\CyComponentLibrary.cylib\BLE_v2_0\Library\gccCyBLEStack_BLE_SOC_PERIPHERAL.a(l2cap.o)
 i.CyBle_L2capConnectCnfCb
                0x00000000       0x34 C:\9047software\PSoC Creator\3.3\PSoC Creator\psoc\content\cycomponentlibrary\CyComponentLibrary.cylib\BLE_v2_0\Library\gccCyBLEStack_BLE_SOC_PERIPHERAL.a(l2cap.o)
 i.CyBle_L2capConnectIndCb
                0x00000000       0x34 C:\9047software\PSoC Creator\3.3\PSoC Creator\psoc\content\cycomponentlibrary\CyComponentLibrary.cylib\BLE_v2_0\Library\gccCyBLEStack_BLE_SOC_PERIPHERAL.a(l2cap.o)
 i.CyBle_L2capDataReadCb
                0x00000000       0x24 C:\9047software\PSoC Creator\3.3\PSoC Creator\psoc\content\cycomponentlibrary\CyComponentLibrary.cylib\BLE_v2_0\Library\gccCyBLEStack_BLE_SOC_PERIPHERAL.a(l2cap.o)
 i.CyBle_L2capDataWriteCb
                0x00000000       0x18 C:\9047software\PSoC Creator\3.3\PSoC Creator\psoc\content\cycomponentlibrary\CyComponentLibrary.cylib\BLE_v2_0\Library\gccCyBLEStack_BLE_SOC_PERIPHERAL.a(l2cap.o)
 i.CyBle_L2capDisconnectCnfCb
                0x00000000       0x14 C:\9047software\PSoC Creator\3.3\PSoC Creator\psoc\content\cycomponentlibrary\CyComponentLibrary.cylib\BLE_v2_0\Library\gccCyBLEStack_BLE_SOC_PERIPHERAL.a(l2cap.o)
 i.CyBle_L2capDisconnectIndCb
                0x00000000        0xe C:\9047software\PSoC Creator\3.3\PSoC Creator\psoc\content\cycomponentlibrary\CyComponentLibrary.cylib\BLE_v2_0\Library\gccCyBLEStack_BLE_SOC_PERIPHERAL.a(l2cap.o)
 i.CyBle_L2capDisconnectReq
                0x00000000       0x16 C:\9047software\PSoC Creator\3.3\PSoC Creator\psoc\content\cycomponentlibrary\CyComponentLibrary.cylib\BLE_v2_0\Library\gccCyBLEStack_BLE_SOC_PERIPHERAL.a(l2cap.o)
 i.CyBle_L2capLeConnectionParamUpdateRequest
                0x00000000       0x2e C:\9047software\PSoC Creator\3.3\PSoC Creator\psoc\content\cycomponentlibrary\CyComponentLibrary.cylib\BLE_v2_0\Library\gccCyBLEStack_BLE_SOC_PERIPHERAL.a(l2cap.o)
 i.CyBle_L2capRxCreditIndCb
                0x00000000       0x14 C:\9047software\PSoC Creator\3.3\PSoC Creator\psoc\content\cycomponentlibrary\CyComponentLibrary.cylib\BLE_v2_0\Library\gccCyBLEStack_BLE_SOC_PERIPHERAL.a(l2cap.o)
 i.CyBle_L2capSetConfig
                0x00000000       0x30 C:\9047software\PSoC Creator\3.3\PSoC Creator\psoc\content\cycomponentlibrary\CyComponentLibrary.cylib\BLE_v2_0\Library\gccCyBLEStack_BLE_SOC_PERIPHERAL.a(l2cap.o)
 i.CyBle_L2capTxCreditIndCb
                0x00000000       0x16 C:\9047software\PSoC Creator\3.3\PSoC Creator\psoc\content\cycomponentlibrary\CyComponentLibrary.cylib\BLE_v2_0\Library\gccCyBLEStack_BLE_SOC_PERIPHERAL.a(l2cap.o)
 __ARM_common_switch8
                0x00000000        0xc C:\9047software\PSoC Creator\3.3\PSoC Creator\psoc\content\cycomponentlibrary\CyComponentLibrary.cylib\BLE_v2_0\Library\gccCyBLEStack_BLE_SOC_PERIPHERAL.a(l2cap.o)
 i.__ARM_common_switch8
                0x00000000       0x1a C:\9047software\PSoC Creator\3.3\PSoC Creator\psoc\content\cycomponentlibrary\CyComponentLibrary.cylib\BLE_v2_0\Library\gccCyBLEStack_BLE_SOC_PERIPHERAL.a(l2cap.o)
 .debug_frame   0x00000000       0x48 C:\9047software\PSoC Creator\3.3\PSoC Creator\psoc\content\cycomponentlibrary\CyComponentLibrary.cylib\BLE_v2_0\Library\gccCyBLEStack_BLE_SOC_PERIPHERAL.a(l2cap.o)
 i.l2ca_disconnect_req
                0x00000000       0xb0 C:\9047software\PSoC Creator\3.3\PSoC Creator\psoc\content\cycomponentlibrary\CyComponentLibrary.cylib\BLE_v2_0\Library\gccCyBLEStack_BLE_SOC_PERIPHERAL.a(l2cap_disconnect.o)
 i.l2cap_cbfc_register_psm
                0x00000000       0x80 C:\9047software\PSoC Creator\3.3\PSoC Creator\psoc\content\cycomponentlibrary\CyComponentLibrary.cylib\BLE_v2_0\Library\gccCyBLEStack_BLE_SOC_PERIPHERAL.a(l2cap_init.o)
 i.l2cap_cbfc_unregister_psm
                0x00000000       0xc8 C:\9047software\PSoC Creator\3.3\PSoC Creator\psoc\content\cycomponentlibrary\CyComponentLibrary.cylib\BLE_v2_0\Library\gccCyBLEStack_BLE_SOC_PERIPHERAL.a(l2cap_init.o)
 i.l2cap_get_tx_queue_num_buffer
                0x00000000       0x1c C:\9047software\PSoC Creator\3.3\PSoC Creator\psoc\content\cycomponentlibrary\CyComponentLibrary.cylib\BLE_v2_0\Library\gccCyBLEStack_BLE_SOC_PERIPHERAL.a(l2cap_init.o)
 i.l2cap_set_tx_queue_flow_limits
                0x00000000       0x28 C:\9047software\PSoC Creator\3.3\PSoC Creator\psoc\content\cycomponentlibrary\CyComponentLibrary.cylib\BLE_v2_0\Library\gccCyBLEStack_BLE_SOC_PERIPHERAL.a(l2cap_init.o)
 i.BT_l2cap_le_connection_param_update_request
                0x00000000       0xa8 C:\9047software\PSoC Creator\3.3\PSoC Creator\psoc\content\cycomponentlibrary\CyComponentLibrary.cylib\BLE_v2_0\Library\gccCyBLEStack_BLE_SOC_PERIPHERAL.a(l2cap_le.o)
 i.l2ca_cbfc_connect_req
                0x00000000      0x180 C:\9047software\PSoC Creator\3.3\PSoC Creator\psoc\content\cycomponentlibrary\CyComponentLibrary.cylib\BLE_v2_0\Library\gccCyBLEStack_BLE_SOC_PERIPHERAL.a(l2cap_credit_mode.o)
 i.l2ca_cbfc_connect_rsp
                0x00000000       0xc4 C:\9047software\PSoC Creator\3.3\PSoC Creator\psoc\content\cycomponentlibrary\CyComponentLibrary.cylib\BLE_v2_0\Library\gccCyBLEStack_BLE_SOC_PERIPHERAL.a(l2cap_credit_mode.o)
 i.l2ca_cbfc_send_flow_control_credit
                0x00000000       0xb8 C:\9047software\PSoC Creator\3.3\PSoC Creator\psoc\content\cycomponentlibrary\CyComponentLibrary.cylib\BLE_v2_0\Library\gccCyBLEStack_BLE_SOC_PERIPHERAL.a(l2cap_credit_mode.o)
 i.l2ca_channel_data_write
                0x00000000      0x10c C:\9047software\PSoC Creator\3.3\PSoC Creator\psoc\content\cycomponentlibrary\CyComponentLibrary.cylib\BLE_v2_0\Library\gccCyBLEStack_BLE_SOC_PERIPHERAL.a(l2cap_credit_mode.o)
 i.l2ca_channel_data_write_bh
                0x00000000       0x20 C:\9047software\PSoC Creator\3.3\PSoC Creator\psoc\content\cycomponentlibrary\CyComponentLibrary.cylib\BLE_v2_0\Library\gccCyBLEStack_BLE_SOC_PERIPHERAL.a(l2cap_credit_mode.o)
 i.CyBle_GapAddDeviceToWhiteList
                0x00000000       0x4c C:\9047software\PSoC Creator\3.3\PSoC Creator\psoc\content\cycomponentlibrary\CyComponentLibrary.cylib\BLE_v2_0\Library\gccCyBLEStack_BLE_SOC_PERIPHERAL.a(gap.o)
 i.CyBle_GapAuthPassKeyReply
                0x00000000       0x2e C:\9047software\PSoC Creator\3.3\PSoC Creator\psoc\content\cycomponentlibrary\CyComponentLibrary.cylib\BLE_v2_0\Library\gccCyBLEStack_BLE_SOC_PERIPHERAL.a(gap.o)
 i.CyBle_GapAuthReq
                0x00000000       0x68 C:\9047software\PSoC Creator\3.3\PSoC Creator\psoc\content\cycomponentlibrary\CyComponentLibrary.cylib\BLE_v2_0\Library\gccCyBLEStack_BLE_SOC_PERIPHERAL.a(gap.o)
 i.CyBle_GapDisconnect
                0x00000000       0x30 C:\9047software\PSoC Creator\3.3\PSoC Creator\psoc\content\cycomponentlibrary\CyComponentLibrary.cylib\BLE_v2_0\Library\gccCyBLEStack_BLE_SOC_PERIPHERAL.a(gap.o)
 i.CyBle_GapGenerateDeviceAddress
                0x00000000       0xa6 C:\9047software\PSoC Creator\3.3\PSoC Creator\psoc\content\cycomponentlibrary\CyComponentLibrary.cylib\BLE_v2_0\Library\gccCyBLEStack_BLE_SOC_PERIPHERAL.a(gap.o)
 i.CyBle_GapGenerateKeys
                0x00000000       0x84 C:\9047software\PSoC Creator\3.3\PSoC Creator\psoc\content\cycomponentlibrary\CyComponentLibrary.cylib\BLE_v2_0\Library\gccCyBLEStack_BLE_SOC_PERIPHERAL.a(gap.o)
 i.CyBle_GapGetDevSecurityKeyInfo
                0x00000000       0x16 C:\9047software\PSoC Creator\3.3\PSoC Creator\psoc\content\cycomponentlibrary\CyComponentLibrary.cylib\BLE_v2_0\Library\gccCyBLEStack_BLE_SOC_PERIPHERAL.a(gap.o)
 i.CyBle_GapGetDevicesFromWhiteList
                0x00000000        0x8 C:\9047software\PSoC Creator\3.3\PSoC Creator\psoc\content\cycomponentlibrary\CyComponentLibrary.cylib\BLE_v2_0\Library\gccCyBLEStack_BLE_SOC_PERIPHERAL.a(gap.o)
 i.CyBle_GapGetKeyXchangeInfo
                0x00000000       0x18 C:\9047software\PSoC Creator\3.3\PSoC Creator\psoc\content\cycomponentlibrary\CyComponentLibrary.cylib\BLE_v2_0\Library\gccCyBLEStack_BLE_SOC_PERIPHERAL.a(gap.o)
 i.CyBle_GapGetPeerBdAddr
                0x00000000       0x22 C:\9047software\PSoC Creator\3.3\PSoC Creator\psoc\content\cycomponentlibrary\CyComponentLibrary.cylib\BLE_v2_0\Library\gccCyBLEStack_BLE_SOC_PERIPHERAL.a(gap.o)
 i.CyBle_GapGetPeerBdHandle
                0x00000000       0x22 C:\9047software\PSoC Creator\3.3\PSoC Creator\psoc\content\cycomponentlibrary\CyComponentLibrary.cylib\BLE_v2_0\Library\gccCyBLEStack_BLE_SOC_PERIPHERAL.a(gap.o)
 i.CyBle_GapGetPeerConnHandle
                0x00000000       0x2c C:\9047software\PSoC Creator\3.3\PSoC Creator\psoc\content\cycomponentlibrary\CyComponentLibrary.cylib\BLE_v2_0\Library\gccCyBLEStack_BLE_SOC_PERIPHERAL.a(gap.o)
 i.CyBle_GapGetPeerDevSecurity
                0x00000000       0x20 C:\9047software\PSoC Creator\3.3\PSoC Creator\psoc\content\cycomponentlibrary\CyComponentLibrary.cylib\BLE_v2_0\Library\gccCyBLEStack_BLE_SOC_PERIPHERAL.a(gap.o)
 i.CyBle_GapGetPeerDevSecurityKeyInfo
                0x00000000       0x18 C:\9047software\PSoC Creator\3.3\PSoC Creator\psoc\content\cycomponentlibrary\CyComponentLibrary.cylib\BLE_v2_0\Library\gccCyBLEStack_BLE_SOC_PERIPHERAL.a(gap.o)
 i.CyBle_GapRemoveDeviceFromWhiteList
                0x00000000       0x84 C:\9047software\PSoC Creator\3.3\PSoC Creator\psoc\content\cycomponentlibrary\CyComponentLibrary.cylib\BLE_v2_0\Library\gccCyBLEStack_BLE_SOC_PERIPHERAL.a(gap.o)
 i.CyBle_GapRemoveOldestDeviceFromBondedList
                0x00000000       0x36 C:\9047software\PSoC Creator\3.3\PSoC Creator\psoc\content\cycomponentlibrary\CyComponentLibrary.cylib\BLE_v2_0\Library\gccCyBLEStack_BLE_SOC_PERIPHERAL.a(gap.o)
 i.CyBle_GapSetOobData
                0x00000000       0x4a C:\9047software\PSoC Creator\3.3\PSoC Creator\psoc\content\cycomponentlibrary\CyComponentLibrary.cylib\BLE_v2_0\Library\gccCyBLEStack_BLE_SOC_PERIPHERAL.a(gap.o)
 i.CyBle_GapSetSecurityKeys
                0x00000000       0x1e C:\9047software\PSoC Creator\3.3\PSoC Creator\psoc\content\cycomponentlibrary\CyComponentLibrary.cylib\BLE_v2_0\Library\gccCyBLEStack_BLE_SOC_PERIPHERAL.a(gap.o)
 i.CyBle_GappExitDiscoveryMode
                0x00000000       0x28 C:\9047software\PSoC Creator\3.3\PSoC Creator\psoc\content\cycomponentlibrary\CyComponentLibrary.cylib\BLE_v2_0\Library\gccCyBLEStack_BLE_SOC_PERIPHERAL.a(gap.o)
 __ARM_common_switch8
                0x00000000        0xc C:\9047software\PSoC Creator\3.3\PSoC Creator\psoc\content\cycomponentlibrary\CyComponentLibrary.cylib\BLE_v2_0\Library\gccCyBLEStack_BLE_SOC_PERIPHERAL.a(gap.o)
 i.__ARM_common_switch8
                0x00000000       0x1a C:\9047software\PSoC Creator\3.3\PSoC Creator\psoc\content\cycomponentlibrary\CyComponentLibrary.cylib\BLE_v2_0\Library\gccCyBLEStack_BLE_SOC_PERIPHERAL.a(gap.o)
 .debug_frame   0x00000000       0x48 C:\9047software\PSoC Creator\3.3\PSoC Creator\psoc\content\cycomponentlibrary\CyComponentLibrary.cylib\BLE_v2_0\Library\gccCyBLEStack_BLE_SOC_PERIPHERAL.a(gap.o)
 i.CyBle_GattGetMtuSize
                0x00000000       0x18 C:\9047software\PSoC Creator\3.3\PSoC Creator\psoc\content\cycomponentlibrary\CyComponentLibrary.cylib\BLE_v2_0\Library\gccCyBLEStack_BLE_SOC_PERIPHERAL.a(gatt.o)
 __ARM_common_switch8
                0x00000000        0xc C:\9047software\PSoC Creator\3.3\PSoC Creator\psoc\content\cycomponentlibrary\CyComponentLibrary.cylib\BLE_v2_0\Library\gccCyBLEStack_BLE_SOC_PERIPHERAL.a(gatt.o)
 i.__ARM_common_switch8
                0x00000000       0x1a C:\9047software\PSoC Creator\3.3\PSoC Creator\psoc\content\cycomponentlibrary\CyComponentLibrary.cylib\BLE_v2_0\Library\gccCyBLEStack_BLE_SOC_PERIPHERAL.a(gatt.o)
 .debug_frame   0x00000000       0x48 C:\9047software\PSoC Creator\3.3\PSoC Creator\psoc\content\cycomponentlibrary\CyComponentLibrary.cylib\BLE_v2_0\Library\gccCyBLEStack_BLE_SOC_PERIPHERAL.a(gatt.o)
 i.CyBle_GattcConfirmation
                0x00000000        0xe C:\9047software\PSoC Creator\3.3\PSoC Creator\psoc\content\cycomponentlibrary\CyComponentLibrary.cylib\BLE_v2_0\Library\gccCyBLEStack_BLE_SOC_PERIPHERAL.a(gattClient.o)
 i.CyBle_GattcDiscoverAllCharacteristicDescriptors
                0x00000000       0x2c C:\9047software\PSoC Creator\3.3\PSoC Creator\psoc\content\cycomponentlibrary\CyComponentLibrary.cylib\BLE_v2_0\Library\gccCyBLEStack_BLE_SOC_PERIPHERAL.a(gattClient.o)
 i.CyBle_GattcDiscoverAllCharacteristics
                0x00000000       0x38 C:\9047software\PSoC Creator\3.3\PSoC Creator\psoc\content\cycomponentlibrary\CyComponentLibrary.cylib\BLE_v2_0\Library\gccCyBLEStack_BLE_SOC_PERIPHERAL.a(gattClient.o)
 i.CyBle_GattcDiscoverAllPrimaryServices
                0x00000000       0x30 C:\9047software\PSoC Creator\3.3\PSoC Creator\psoc\content\cycomponentlibrary\CyComponentLibrary.cylib\BLE_v2_0\Library\gccCyBLEStack_BLE_SOC_PERIPHERAL.a(gattClient.o)
 i.CyBle_GattcDiscoverCharacteristicByUuid
                0x00000000       0x68 C:\9047software\PSoC Creator\3.3\PSoC Creator\psoc\content\cycomponentlibrary\CyComponentLibrary.cylib\BLE_v2_0\Library\gccCyBLEStack_BLE_SOC_PERIPHERAL.a(gattClient.o)
 i.CyBle_GattcDiscoverPrimaryServiceByUuid
                0x00000000       0x38 C:\9047software\PSoC Creator\3.3\PSoC Creator\psoc\content\cycomponentlibrary\CyComponentLibrary.cylib\BLE_v2_0\Library\gccCyBLEStack_BLE_SOC_PERIPHERAL.a(gattClient.o)
 i.CyBle_GattcExchangeMtuReq
                0x00000000       0x20 C:\9047software\PSoC Creator\3.3\PSoC Creator\psoc\content\cycomponentlibrary\CyComponentLibrary.cylib\BLE_v2_0\Library\gccCyBLEStack_BLE_SOC_PERIPHERAL.a(gattClient.o)
 i.CyBle_GattcFindIncludedServices
                0x00000000       0x3c C:\9047software\PSoC Creator\3.3\PSoC Creator\psoc\content\cycomponentlibrary\CyComponentLibrary.cylib\BLE_v2_0\Library\gccCyBLEStack_BLE_SOC_PERIPHERAL.a(gattClient.o)
 i.CyBle_GattcReadByTypeReq
                0x00000000       0x4c C:\9047software\PSoC Creator\3.3\PSoC Creator\psoc\content\cycomponentlibrary\CyComponentLibrary.cylib\BLE_v2_0\Library\gccCyBLEStack_BLE_SOC_PERIPHERAL.a(gattClient.o)
 i.CyBle_GattcReadCharacteristicDescriptors
                0x00000000        0xe C:\9047software\PSoC Creator\3.3\PSoC Creator\psoc\content\cycomponentlibrary\CyComponentLibrary.cylib\BLE_v2_0\Library\gccCyBLEStack_BLE_SOC_PERIPHERAL.a(gattClient.o)
 i.CyBle_GattcReadCharacteristicValue
                0x00000000        0xe C:\9047software\PSoC Creator\3.3\PSoC Creator\psoc\content\cycomponentlibrary\CyComponentLibrary.cylib\BLE_v2_0\Library\gccCyBLEStack_BLE_SOC_PERIPHERAL.a(gattClient.o)
 i.CyBle_GattcReadLongCharacteristicDescriptors
                0x00000000       0x2c C:\9047software\PSoC Creator\3.3\PSoC Creator\psoc\content\cycomponentlibrary\CyComponentLibrary.cylib\BLE_v2_0\Library\gccCyBLEStack_BLE_SOC_PERIPHERAL.a(gattClient.o)
 i.CyBle_GattcReadLongCharacteristicValues
                0x00000000       0x2c C:\9047software\PSoC Creator\3.3\PSoC Creator\psoc\content\cycomponentlibrary\CyComponentLibrary.cylib\BLE_v2_0\Library\gccCyBLEStack_BLE_SOC_PERIPHERAL.a(gattClient.o)
 i.CyBle_GattcReadMultipleCharacteristicValues
                0x00000000       0x1a C:\9047software\PSoC Creator\3.3\PSoC Creator\psoc\content\cycomponentlibrary\CyComponentLibrary.cylib\BLE_v2_0\Library\gccCyBLEStack_BLE_SOC_PERIPHERAL.a(gattClient.o)
 i.CyBle_GattcReadUsingCharacteristicUuid
                0x00000000       0x40 C:\9047software\PSoC Creator\3.3\PSoC Creator\psoc\content\cycomponentlibrary\CyComponentLibrary.cylib\BLE_v2_0\Library\gccCyBLEStack_BLE_SOC_PERIPHERAL.a(gattClient.o)
 i.CyBle_GattcReliableWrites
                0x00000000       0x48 C:\9047software\PSoC Creator\3.3\PSoC Creator\psoc\content\cycomponentlibrary\CyComponentLibrary.cylib\BLE_v2_0\Library\gccCyBLEStack_BLE_SOC_PERIPHERAL.a(gattClient.o)
 i.CyBle_GattcSendExecuteWriteReq
                0x00000000        0xe C:\9047software\PSoC Creator\3.3\PSoC Creator\psoc\content\cycomponentlibrary\CyComponentLibrary.cylib\BLE_v2_0\Library\gccCyBLEStack_BLE_SOC_PERIPHERAL.a(gattClient.o)
 i.CyBle_GattcSignedWriteWithoutRsp
                0x00000000       0x74 C:\9047software\PSoC Creator\3.3\PSoC Creator\psoc\content\cycomponentlibrary\CyComponentLibrary.cylib\BLE_v2_0\Library\gccCyBLEStack_BLE_SOC_PERIPHERAL.a(gattClient.o)
 i.CyBle_GattcStopCmd
                0x00000000        0xc C:\9047software\PSoC Creator\3.3\PSoC Creator\psoc\content\cycomponentlibrary\CyComponentLibrary.cylib\BLE_v2_0\Library\gccCyBLEStack_BLE_SOC_PERIPHERAL.a(gattClient.o)
 i.CyBle_GattcWriteCharacteristicDescriptors
                0x00000000       0x14 C:\9047software\PSoC Creator\3.3\PSoC Creator\psoc\content\cycomponentlibrary\CyComponentLibrary.cylib\BLE_v2_0\Library\gccCyBLEStack_BLE_SOC_PERIPHERAL.a(gattClient.o)
 i.CyBle_GattcWriteCharacteristicValue
                0x00000000       0x14 C:\9047software\PSoC Creator\3.3\PSoC Creator\psoc\content\cycomponentlibrary\CyComponentLibrary.cylib\BLE_v2_0\Library\gccCyBLEStack_BLE_SOC_PERIPHERAL.a(gattClient.o)
 i.CyBle_GattcWriteLongCharacteristicDescriptors
                0x00000000       0x4c C:\9047software\PSoC Creator\3.3\PSoC Creator\psoc\content\cycomponentlibrary\CyComponentLibrary.cylib\BLE_v2_0\Library\gccCyBLEStack_BLE_SOC_PERIPHERAL.a(gattClient.o)
 i.CyBle_GattcWriteLongCharacteristicValues
                0x00000000       0x4c C:\9047software\PSoC Creator\3.3\PSoC Creator\psoc\content\cycomponentlibrary\CyComponentLibrary.cylib\BLE_v2_0\Library\gccCyBLEStack_BLE_SOC_PERIPHERAL.a(gattClient.o)
 i.CyBle_GattcWriteWithoutResponse
                0x00000000       0x14 C:\9047software\PSoC Creator\3.3\PSoC Creator\psoc\content\cycomponentlibrary\CyComponentLibrary.cylib\BLE_v2_0\Library\gccCyBLEStack_BLE_SOC_PERIPHERAL.a(gattClient.o)
 i.CyBle_GattsIndication
                0x00000000       0x16 C:\9047software\PSoC Creator\3.3\PSoC Creator\psoc\content\cycomponentlibrary\CyComponentLibrary.cylib\BLE_v2_0\Library\gccCyBLEStack_BLE_SOC_PERIPHERAL.a(gattServer.o)
 i.CyBle_GattsPrepWriteReqSupport
                0x00000000       0x1c C:\9047software\PSoC Creator\3.3\PSoC Creator\psoc\content\cycomponentlibrary\CyComponentLibrary.cylib\BLE_v2_0\Library\gccCyBLEStack_BLE_SOC_PERIPHERAL.a(gattServer.o)
 i.CyBle_GattsDisableAttribute
                0x00000000       0x6c C:\9047software\PSoC Creator\3.3\PSoC Creator\psoc\content\cycomponentlibrary\CyComponentLibrary.cylib\BLE_v2_0\Library\gccCyBLEStack_BLE_SOC_PERIPHERAL.a(gattDbHandler.o)
 i.CyBle_GattsEnableAttribute
                0x00000000       0x5c C:\9047software\PSoC Creator\3.3\PSoC Creator\psoc\content\cycomponentlibrary\CyComponentLibrary.cylib\BLE_v2_0\Library\gccCyBLEStack_BLE_SOC_PERIPHERAL.a(gattDbHandler.o)
 i.BT_hci_disconnect
                0x00000000       0x34 C:\9047software\PSoC Creator\3.3\PSoC Creator\psoc\content\cycomponentlibrary\CyComponentLibrary.cylib\BLE_v2_0\Library\gccCyBLEStack_BLE_SOC_PERIPHERAL.a(hci_link_control_api.o)
 i.hci_hardware_error_event
                0x00000000        0x8 C:\9047software\PSoC Creator\3.3\PSoC Creator\psoc\content\cycomponentlibrary\CyComponentLibrary.cylib\BLE_v2_0\Library\gccCyBLEStack_BLE_SOC_PERIPHERAL.a(hci_events.o)
 i.hci_transport_sync_lost_ind
                0x00000000        0x8 C:\9047software\PSoC Creator\3.3\PSoC Creator\psoc\content\cycomponentlibrary\CyComponentLibrary.cylib\BLE_v2_0\Library\gccCyBLEStack_BLE_SOC_PERIPHERAL.a(hci_init.o)
 i.BT_hci_le_connection_update
                0x00000000       0x88 C:\9047software\PSoC Creator\3.3\PSoC Creator\psoc\content\cycomponentlibrary\CyComponentLibrary.cylib\BLE_v2_0\Library\gccCyBLEStack_BLE_SOC_PERIPHERAL.a(hci_le_api.o)
 i.BT_smp_authenticate
                0x00000000       0x94 C:\9047software\PSoC Creator\3.3\PSoC Creator\psoc\content\cycomponentlibrary\CyComponentLibrary.cylib\BLE_v2_0\Library\gccCyBLEStack_BLE_SOC_PERIPHERAL.a(smp_api.o)
 i.BT_smp_get_device_keys
                0x00000000       0x60 C:\9047software\PSoC Creator\3.3\PSoC Creator\psoc\content\cycomponentlibrary\CyComponentLibrary.cylib\BLE_v2_0\Library\gccCyBLEStack_BLE_SOC_PERIPHERAL.a(smp_api.o)
 i.aes_cmac_init
                0x00000000        0xa C:\9047software\PSoC Creator\3.3\PSoC Creator\psoc\content\cycomponentlibrary\CyComponentLibrary.cylib\BLE_v2_0\Library\gccCyBLEStack_BLE_SOC_PERIPHERAL.a(aes_cmac.o)
 i.aes_cmac_init_pl
                0x00000000        0x2 C:\9047software\PSoC Creator\3.3\PSoC Creator\psoc\content\cycomponentlibrary\CyComponentLibrary.cylib\BLE_v2_0\Library\gccCyBLEStack_BLE_SOC_PERIPHERAL.a(aes_cmac_pl.o)
 i.BT_storage_update_db
                0x00000000       0x40 C:\9047software\PSoC Creator\3.3\PSoC Creator\psoc\content\cycomponentlibrary\CyComponentLibrary.cylib\BLE_v2_0\Library\gccCyBLEStack_BLE_SOC_PERIPHERAL.a(storage.o)
 i.storage_shutdown
                0x00000000        0x2 C:\9047software\PSoC Creator\3.3\PSoC Creator\psoc\content\cycomponentlibrary\CyComponentLibrary.cylib\BLE_v2_0\Library\gccCyBLEStack_BLE_SOC_PERIPHERAL.a(storage.o)
 i.BT_OSQCreate
                0x00000000        0x4 C:\9047software\PSoC Creator\3.3\PSoC Creator\psoc\content\cycomponentlibrary\CyComponentLibrary.cylib\BLE_v2_0\Library\gccCyBLEStack_BLE_SOC_PERIPHERAL.a(bt_os_common.o)
 i.BT_thread_attr_init
                0x00000000        0x4 C:\9047software\PSoC Creator\3.3\PSoC Creator\psoc\content\cycomponentlibrary\CyComponentLibrary.cylib\BLE_v2_0\Library\gccCyBLEStack_BLE_SOC_PERIPHERAL.a(bt_os_common.o)
 i.BT_thread_cond_init
                0x00000000        0x4 C:\9047software\PSoC Creator\3.3\PSoC Creator\psoc\content\cycomponentlibrary\CyComponentLibrary.cylib\BLE_v2_0\Library\gccCyBLEStack_BLE_SOC_PERIPHERAL.a(bt_os_common.o)
 i.BT_thread_cond_signal
                0x00000000        0x4 C:\9047software\PSoC Creator\3.3\PSoC Creator\psoc\content\cycomponentlibrary\CyComponentLibrary.cylib\BLE_v2_0\Library\gccCyBLEStack_BLE_SOC_PERIPHERAL.a(bt_os_common.o)
 i.BT_thread_cond_wait
                0x00000000        0x4 C:\9047software\PSoC Creator\3.3\PSoC Creator\psoc\content\cycomponentlibrary\CyComponentLibrary.cylib\BLE_v2_0\Library\gccCyBLEStack_BLE_SOC_PERIPHERAL.a(bt_os_common.o)
 i.BT_thread_mutex_init
                0x00000000        0x4 C:\9047software\PSoC Creator\3.3\PSoC Creator\psoc\content\cycomponentlibrary\CyComponentLibrary.cylib\BLE_v2_0\Library\gccCyBLEStack_BLE_SOC_PERIPHERAL.a(bt_os_common.o)
 i.BT_thread_mutex_lock
                0x00000000        0x4 C:\9047software\PSoC Creator\3.3\PSoC Creator\psoc\content\cycomponentlibrary\CyComponentLibrary.cylib\BLE_v2_0\Library\gccCyBLEStack_BLE_SOC_PERIPHERAL.a(bt_os_common.o)
 i.BT_thread_mutex_unlock
                0x00000000        0x4 C:\9047software\PSoC Creator\3.3\PSoC Creator\psoc\content\cycomponentlibrary\CyComponentLibrary.cylib\BLE_v2_0\Library\gccCyBLEStack_BLE_SOC_PERIPHERAL.a(bt_os_common.o)
 i.pl_timer_get_remaining_time
                0x00000000        0x8 C:\9047software\PSoC Creator\3.3\PSoC Creator\psoc\content\cycomponentlibrary\CyComponentLibrary.cylib\BLE_v2_0\Library\gccCyBLEStack_BLE_SOC_PERIPHERAL.a(BT_timer.o)
 i.pl_timer_start
                0x00000000        0x8 C:\9047software\PSoC Creator\3.3\PSoC Creator\psoc\content\cycomponentlibrary\CyComponentLibrary.cylib\BLE_v2_0\Library\gccCyBLEStack_BLE_SOC_PERIPHERAL.a(BT_timer.o)
 i.pl_timer_stop
                0x00000000        0x8 C:\9047software\PSoC Creator\3.3\PSoC Creator\psoc\content\cycomponentlibrary\CyComponentLibrary.cylib\BLE_v2_0\Library\gccCyBLEStack_BLE_SOC_PERIPHERAL.a(BT_timer.o)
 i.BleStackWriteToFlash
                0x00000000       0x6c C:\9047software\PSoC Creator\3.3\PSoC Creator\psoc\content\cycomponentlibrary\CyComponentLibrary.cylib\BLE_v2_0\Library\gccCyBLEStack_BLE_SOC_PERIPHERAL.a(storage_pl.o)
 i.pf_get_sp_ram_base_address
                0x00000000        0x8 C:\9047software\PSoC Creator\3.3\PSoC Creator\psoc\content\cycomponentlibrary\CyComponentLibrary.cylib\BLE_v2_0\Library\gccCyBLEStack_BLE_SOC_PERIPHERAL.a(storage_pl.o)
 i.pf_get_sp_storage_nvram_base_address
                0x00000000        0x8 C:\9047software\PSoC Creator\3.3\PSoC Creator\psoc\content\cycomponentlibrary\CyComponentLibrary.cylib\BLE_v2_0\Library\gccCyBLEStack_BLE_SOC_PERIPHERAL.a(storage_pl.o)
 i.le_reset_tasks
                0x00000000        0xa C:\9047software\PSoC Creator\3.3\PSoC Creator\psoc\content\cycomponentlibrary\CyComponentLibrary.cylib\BLE_v2_0\Library\gccCyBLEStack_BLE_SOC_PERIPHERAL.a(bt_fw_os_al.o)
 i.BT_smp_add_device_pl
                0x00000000       0x2c C:\9047software\PSoC Creator\3.3\PSoC Creator\psoc\content\cycomponentlibrary\CyComponentLibrary.cylib\BLE_v2_0\Library\gccCyBLEStack_BLE_SOC_PERIPHERAL.a(smp_pl.o)
 i.BT_smp_get_bd_address_pl
                0x00000000       0x10 C:\9047software\PSoC Creator\3.3\PSoC Creator\psoc\content\cycomponentlibrary\CyComponentLibrary.cylib\BLE_v2_0\Library\gccCyBLEStack_BLE_SOC_PERIPHERAL.a(smp_pl.o)
 i.BT_smp_get_device_key_info_pl
                0x00000000       0x58 C:\9047software\PSoC Creator\3.3\PSoC Creator\psoc\content\cycomponentlibrary\CyComponentLibrary.cylib\BLE_v2_0\Library\gccCyBLEStack_BLE_SOC_PERIPHERAL.a(smp_pl.o)
 i.BT_smp_get_oob_data_pl
                0x00000000       0x80 C:\9047software\PSoC Creator\3.3\PSoC Creator\psoc\content\cycomponentlibrary\CyComponentLibrary.cylib\BLE_v2_0\Library\gccCyBLEStack_BLE_SOC_PERIPHERAL.a(smp_pl.o)
 i.BT_smp_mark_device_untrusted_pl
                0x00000000       0x7c C:\9047software\PSoC Creator\3.3\PSoC Creator\psoc\content\cycomponentlibrary\CyComponentLibrary.cylib\BLE_v2_0\Library\gccCyBLEStack_BLE_SOC_PERIPHERAL.a(smp_pl.o)
 i.BT_smp_remove_device_pl
                0x00000000       0x2c C:\9047software\PSoC Creator\3.3\PSoC Creator\psoc\content\cycomponentlibrary\CyComponentLibrary.cylib\BLE_v2_0\Library\gccCyBLEStack_BLE_SOC_PERIPHERAL.a(smp_pl.o)
 i.BT_smp_set_key_distribution_flag_pl
                0x00000000        0xc C:\9047software\PSoC Creator\3.3\PSoC Creator\psoc\content\cycomponentlibrary\CyComponentLibrary.cylib\BLE_v2_0\Library\gccCyBLEStack_BLE_SOC_PERIPHERAL.a(smp_pl.o)
 i.BT_smp_set_key_info_pl
                0x00000000       0x50 C:\9047software\PSoC Creator\3.3\PSoC Creator\psoc\content\cycomponentlibrary\CyComponentLibrary.cylib\BLE_v2_0\Library\gccCyBLEStack_BLE_SOC_PERIPHERAL.a(smp_pl.o)
 i.BT_smp_set_oob_data_pl
                0x00000000       0x80 C:\9047software\PSoC Creator\3.3\PSoC Creator\psoc\content\cycomponentlibrary\CyComponentLibrary.cylib\BLE_v2_0\Library\gccCyBLEStack_BLE_SOC_PERIPHERAL.a(smp_pl.o)
 i.CyBle_GattsDbAuthorize
                0x00000000        0xc C:\9047software\PSoC Creator\3.3\PSoC Creator\psoc\content\cycomponentlibrary\CyComponentLibrary.cylib\BLE_v2_0\Library\gccCyBLEStack_BLE_SOC_PERIPHERAL.a(gattDbInternal.o)
 __ARM_common_switch8
                0x00000000        0xc C:\9047software\PSoC Creator\3.3\PSoC Creator\psoc\content\cycomponentlibrary\CyComponentLibrary.cylib\BLE_v2_0\Library\gccCyBLEStack_BLE_SOC_PERIPHERAL.a(hci_command_queue.o)
 i.__ARM_common_switch8
                0x00000000       0x1a C:\9047software\PSoC Creator\3.3\PSoC Creator\psoc\content\cycomponentlibrary\CyComponentLibrary.cylib\BLE_v2_0\Library\gccCyBLEStack_BLE_SOC_PERIPHERAL.a(hci_command_queue.o)
 .debug_frame   0x00000000       0x48 C:\9047software\PSoC Creator\3.3\PSoC Creator\psoc\content\cycomponentlibrary\CyComponentLibrary.cylib\BLE_v2_0\Library\gccCyBLEStack_BLE_SOC_PERIPHERAL.a(hci_command_queue.o)
 .text          0x00000000        0x0 .\CortexM0\ARM_GCC_493\Debug\BLE Lab 3.a(BLE_HAL_PVT.o)
 .data          0x00000000        0x0 .\CortexM0\ARM_GCC_493\Debug\BLE Lab 3.a(BLE_HAL_PVT.o)
 .bss           0x00000000        0x0 .\CortexM0\ARM_GCC_493\Debug\BLE Lab 3.a(BLE_HAL_PVT.o)
 .text.CyBLE_Nvram_Write
                0x00000000      0x1a0 .\CortexM0\ARM_GCC_493\Debug\BLE Lab 3.a(BLE_HAL_PVT.o)
 .text.CyBLE_Nvram_Erase
                0x00000000       0xc8 .\CortexM0\ARM_GCC_493\Debug\BLE Lab 3.a(BLE_HAL_PVT.o)
 .text.CyBLE_Bless_LlRegRead
                0x00000000       0x1c .\CortexM0\ARM_GCC_493\Debug\BLE Lab 3.a(BLE_HAL_PVT.o)
 .text.CyBLE_Bless_RfRegRead
                0x00000000       0x1c .\CortexM0\ARM_GCC_493\Debug\BLE Lab 3.a(BLE_HAL_PVT.o)
 .text          0x00000000        0x0 .\CortexM0\ARM_GCC_493\Debug\BLE Lab 3.a(BLE_bless_isr.o)
 .data          0x00000000        0x0 .\CortexM0\ARM_GCC_493\Debug\BLE Lab 3.a(BLE_bless_isr.o)
 .bss           0x00000000        0x0 .\CortexM0\ARM_GCC_493\Debug\BLE Lab 3.a(BLE_bless_isr.o)
 .text.BLE_bless_isr_Start
                0x00000000       0x24 .\CortexM0\ARM_GCC_493\Debug\BLE Lab 3.a(BLE_bless_isr.o)
 .text.BLE_bless_isr_Stop
                0x00000000       0x18 .\CortexM0\ARM_GCC_493\Debug\BLE Lab 3.a(BLE_bless_isr.o)
 .text.BLE_bless_isr_Interrupt
                0x00000000        0x8 .\CortexM0\ARM_GCC_493\Debug\BLE Lab 3.a(BLE_bless_isr.o)
 .text.BLE_bless_isr_GetVector
                0x00000000       0x14 .\CortexM0\ARM_GCC_493\Debug\BLE Lab 3.a(BLE_bless_isr.o)
 .text.BLE_bless_isr_GetPriority
                0x00000000       0x2c .\CortexM0\ARM_GCC_493\Debug\BLE Lab 3.a(BLE_bless_isr.o)
 .text.BLE_bless_isr_GetState
                0x00000000       0x20 .\CortexM0\ARM_GCC_493\Debug\BLE Lab 3.a(BLE_bless_isr.o)
 .text.BLE_bless_isr_SetPending
                0x00000000       0x14 .\CortexM0\ARM_GCC_493\Debug\BLE Lab 3.a(BLE_bless_isr.o)
 .text.BLE_bless_isr_ClearPending
                0x00000000       0x14 .\CortexM0\ARM_GCC_493\Debug\BLE Lab 3.a(BLE_bless_isr.o)
 .text          0x00000000        0x0 .\CortexM0\ARM_GCC_493\Debug\BLE Lab 3.a(CyFlash.o)
 .data          0x00000000        0x0 .\CortexM0\ARM_GCC_493\Debug\BLE Lab 3.a(CyFlash.o)
 .bss           0x00000000       0x14 .\CortexM0\ARM_GCC_493\Debug\BLE Lab 3.a(CyFlash.o)
 .text.CySysFlashWriteRow
                0x00000000      0x178 .\CortexM0\ARM_GCC_493\Debug\BLE Lab 3.a(CyFlash.o)
 .text.CySysFlashSetWaitCycles
                0x00000000       0x74 .\CortexM0\ARM_GCC_493\Debug\BLE Lab 3.a(CyFlash.o)
 .text.CySysFlashClockBackup
                0x00000000       0x60 .\CortexM0\ARM_GCC_493\Debug\BLE Lab 3.a(CyFlash.o)
 .text.CySysFlashClockConfig
                0x00000000       0x50 .\CortexM0\ARM_GCC_493\Debug\BLE Lab 3.a(CyFlash.o)
 .text.CySysFlashClockRestore
                0x00000000       0x60 .\CortexM0\ARM_GCC_493\Debug\BLE Lab 3.a(CyFlash.o)
 .text          0x00000000        0x0 .\CortexM0\ARM_GCC_493\Debug\BLE Lab 3.a(BLE_HAL_INT.o)
 .data          0x00000000        0x0 .\CortexM0\ARM_GCC_493\Debug\BLE Lab 3.a(BLE_HAL_INT.o)
 .bss           0x00000000        0x0 .\CortexM0\ARM_GCC_493\Debug\BLE Lab 3.a(BLE_HAL_INT.o)
 .data          0x00000000        0x0 c:/9047software/psoc creator/3.3/psoc creator/import/gnu/arm/4.9.3/bin/../lib/gcc/arm-none-eabi/4.9.3/armv6-m\libgcc.a(_udivsi3.o)
 .bss           0x00000000        0x0 c:/9047software/psoc creator/3.3/psoc creator/import/gnu/arm/4.9.3/bin/../lib/gcc/arm-none-eabi/4.9.3/armv6-m\libgcc.a(_udivsi3.o)
 .data          0x00000000        0x0 c:/9047software/psoc creator/3.3/psoc creator/import/gnu/arm/4.9.3/bin/../lib/gcc/arm-none-eabi/4.9.3/armv6-m\libgcc.a(_divsi3.o)
 .bss           0x00000000        0x0 c:/9047software/psoc creator/3.3/psoc creator/import/gnu/arm/4.9.3/bin/../lib/gcc/arm-none-eabi/4.9.3/armv6-m\libgcc.a(_divsi3.o)
 .data          0x00000000        0x0 c:/9047software/psoc creator/3.3/psoc creator/import/gnu/arm/4.9.3/bin/../lib/gcc/arm-none-eabi/4.9.3/armv6-m\libgcc.a(_dvmd_tls.o)
 .bss           0x00000000        0x0 c:/9047software/psoc creator/3.3/psoc creator/import/gnu/arm/4.9.3/bin/../lib/gcc/arm-none-eabi/4.9.3/armv6-m\libgcc.a(_dvmd_tls.o)
 .text          0x00000000       0x48 c:/9047software/psoc creator/3.3/psoc creator/import/gnu/arm/4.9.3/bin/../lib/gcc/arm-none-eabi/4.9.3/armv6-m\libgcc.a(_aeabi_ldivmod.o)
 .data          0x00000000        0x0 c:/9047software/psoc creator/3.3/psoc creator/import/gnu/arm/4.9.3/bin/../lib/gcc/arm-none-eabi/4.9.3/armv6-m\libgcc.a(_aeabi_ldivmod.o)
 .bss           0x00000000        0x0 c:/9047software/psoc creator/3.3/psoc creator/import/gnu/arm/4.9.3/bin/../lib/gcc/arm-none-eabi/4.9.3/armv6-m\libgcc.a(_aeabi_ldivmod.o)
 .text          0x00000000       0x54 c:/9047software/psoc creator/3.3/psoc creator/import/gnu/arm/4.9.3/bin/../lib/gcc/arm-none-eabi/4.9.3/armv6-m\libgcc.a(_muldi3.o)
 .data          0x00000000        0x0 c:/9047software/psoc creator/3.3/psoc creator/import/gnu/arm/4.9.3/bin/../lib/gcc/arm-none-eabi/4.9.3/armv6-m\libgcc.a(_muldi3.o)
 .bss           0x00000000        0x0 c:/9047software/psoc creator/3.3/psoc creator/import/gnu/arm/4.9.3/bin/../lib/gcc/arm-none-eabi/4.9.3/armv6-m\libgcc.a(_muldi3.o)
 .text          0x00000000       0x6c c:/9047software/psoc creator/3.3/psoc creator/import/gnu/arm/4.9.3/bin/../lib/gcc/arm-none-eabi/4.9.3/armv6-m\libgcc.a(bpabi.o)
 .data          0x00000000        0x0 c:/9047software/psoc creator/3.3/psoc creator/import/gnu/arm/4.9.3/bin/../lib/gcc/arm-none-eabi/4.9.3/armv6-m\libgcc.a(bpabi.o)
 .bss           0x00000000        0x0 c:/9047software/psoc creator/3.3/psoc creator/import/gnu/arm/4.9.3/bin/../lib/gcc/arm-none-eabi/4.9.3/armv6-m\libgcc.a(bpabi.o)
 .text          0x00000000      0x270 c:/9047software/psoc creator/3.3/psoc creator/import/gnu/arm/4.9.3/bin/../lib/gcc/arm-none-eabi/4.9.3/armv6-m\libgcc.a(divsf3.o)
 .data          0x00000000        0x0 c:/9047software/psoc creator/3.3/psoc creator/import/gnu/arm/4.9.3/bin/../lib/gcc/arm-none-eabi/4.9.3/armv6-m\libgcc.a(divsf3.o)
 .bss           0x00000000        0x0 c:/9047software/psoc creator/3.3/psoc creator/import/gnu/arm/4.9.3/bin/../lib/gcc/arm-none-eabi/4.9.3/armv6-m\libgcc.a(divsf3.o)
 .rodata        0x00000000       0x80 c:/9047software/psoc creator/3.3/psoc creator/import/gnu/arm/4.9.3/bin/../lib/gcc/arm-none-eabi/4.9.3/armv6-m\libgcc.a(divsf3.o)
 .text          0x00000000      0x264 c:/9047software/psoc creator/3.3/psoc creator/import/gnu/arm/4.9.3/bin/../lib/gcc/arm-none-eabi/4.9.3/armv6-m\libgcc.a(mulsf3.o)
 .data          0x00000000        0x0 c:/9047software/psoc creator/3.3/psoc creator/import/gnu/arm/4.9.3/bin/../lib/gcc/arm-none-eabi/4.9.3/armv6-m\libgcc.a(mulsf3.o)
 .bss           0x00000000        0x0 c:/9047software/psoc creator/3.3/psoc creator/import/gnu/arm/4.9.3/bin/../lib/gcc/arm-none-eabi/4.9.3/armv6-m\libgcc.a(mulsf3.o)
 .rodata        0x00000000       0x40 c:/9047software/psoc creator/3.3/psoc creator/import/gnu/arm/4.9.3/bin/../lib/gcc/arm-none-eabi/4.9.3/armv6-m\libgcc.a(mulsf3.o)
 .text          0x00000000       0x90 c:/9047software/psoc creator/3.3/psoc creator/import/gnu/arm/4.9.3/bin/../lib/gcc/arm-none-eabi/4.9.3/armv6-m\libgcc.a(floatsisf.o)
 .data          0x00000000        0x0 c:/9047software/psoc creator/3.3/psoc creator/import/gnu/arm/4.9.3/bin/../lib/gcc/arm-none-eabi/4.9.3/armv6-m\libgcc.a(floatsisf.o)
 .bss           0x00000000        0x0 c:/9047software/psoc creator/3.3/psoc creator/import/gnu/arm/4.9.3/bin/../lib/gcc/arm-none-eabi/4.9.3/armv6-m\libgcc.a(floatsisf.o)
 .text          0x00000000       0x3c c:/9047software/psoc creator/3.3/psoc creator/import/gnu/arm/4.9.3/bin/../lib/gcc/arm-none-eabi/4.9.3/armv6-m\libgcc.a(_clzsi2.o)
 .data          0x00000000        0x0 c:/9047software/psoc creator/3.3/psoc creator/import/gnu/arm/4.9.3/bin/../lib/gcc/arm-none-eabi/4.9.3/armv6-m\libgcc.a(_clzsi2.o)
 .bss           0x00000000        0x0 c:/9047software/psoc creator/3.3/psoc creator/import/gnu/arm/4.9.3/bin/../lib/gcc/arm-none-eabi/4.9.3/armv6-m\libgcc.a(_clzsi2.o)
 .text          0x00000000      0x1f0 c:/9047software/psoc creator/3.3/psoc creator/import/gnu/arm/4.9.3/bin/../lib/gcc/arm-none-eabi/4.9.3/armv6-m\libgcc.a(_divdi3.o)
 .data          0x00000000        0x0 c:/9047software/psoc creator/3.3/psoc creator/import/gnu/arm/4.9.3/bin/../lib/gcc/arm-none-eabi/4.9.3/armv6-m\libgcc.a(_divdi3.o)
 .bss           0x00000000        0x0 c:/9047software/psoc creator/3.3/psoc creator/import/gnu/arm/4.9.3/bin/../lib/gcc/arm-none-eabi/4.9.3/armv6-m\libgcc.a(_divdi3.o)
 .ARM.extab     0x00000000        0x0 c:/9047software/psoc creator/3.3/psoc creator/import/gnu/arm/4.9.3/bin/../lib/gcc/arm-none-eabi/4.9.3/armv6-m\libgcc.a(_divdi3.o)
 .ARM.exidx     0x00000000        0x8 c:/9047software/psoc creator/3.3/psoc creator/import/gnu/arm/4.9.3/bin/../lib/gcc/arm-none-eabi/4.9.3/armv6-m\libgcc.a(_divdi3.o)
 .text          0x00000000      0x158 c:/9047software/psoc creator/3.3/psoc creator/import/gnu/arm/4.9.3/bin/../lib/gcc/arm-none-eabi/4.9.3/armv6-m\libgcc.a(_udivdi3.o)
 .data          0x00000000        0x0 c:/9047software/psoc creator/3.3/psoc creator/import/gnu/arm/4.9.3/bin/../lib/gcc/arm-none-eabi/4.9.3/armv6-m\libgcc.a(_udivdi3.o)
 .bss           0x00000000        0x0 c:/9047software/psoc creator/3.3/psoc creator/import/gnu/arm/4.9.3/bin/../lib/gcc/arm-none-eabi/4.9.3/armv6-m\libgcc.a(_udivdi3.o)
 .ARM.extab     0x00000000        0x0 c:/9047software/psoc creator/3.3/psoc creator/import/gnu/arm/4.9.3/bin/../lib/gcc/arm-none-eabi/4.9.3/armv6-m\libgcc.a(_udivdi3.o)
 .ARM.exidx     0x00000000        0x8 c:/9047software/psoc creator/3.3/psoc creator/import/gnu/arm/4.9.3/bin/../lib/gcc/arm-none-eabi/4.9.3/armv6-m\libgcc.a(_udivdi3.o)
 .text          0x00000000       0x18 c:/9047software/psoc creator/3.3/psoc creator/import/gnu/arm/4.9.3/bin/../lib/gcc/arm-none-eabi/4.9.3/armv6-m\libgcc.a(_clzdi2.o)
 .data          0x00000000        0x0 c:/9047software/psoc creator/3.3/psoc creator/import/gnu/arm/4.9.3/bin/../lib/gcc/arm-none-eabi/4.9.3/armv6-m\libgcc.a(_clzdi2.o)
 .bss           0x00000000        0x0 c:/9047software/psoc creator/3.3/psoc creator/import/gnu/arm/4.9.3/bin/../lib/gcc/arm-none-eabi/4.9.3/armv6-m\libgcc.a(_clzdi2.o)
 .text          0x00000000        0x0 c:/9047software/psoc creator/3.3/psoc creator/import/gnu/arm/4.9.3/bin/../lib/gcc/arm-none-eabi/4.9.3/../../../../arm-none-eabi/lib/armv6-m\libg_nano.a(lib_a-errno.o)
 .data          0x00000000        0x0 c:/9047software/psoc creator/3.3/psoc creator/import/gnu/arm/4.9.3/bin/../lib/gcc/arm-none-eabi/4.9.3/../../../../arm-none-eabi/lib/armv6-m\libg_nano.a(lib_a-errno.o)
 .bss           0x00000000        0x0 c:/9047software/psoc creator/3.3/psoc creator/import/gnu/arm/4.9.3/bin/../lib/gcc/arm-none-eabi/4.9.3/../../../../arm-none-eabi/lib/armv6-m\libg_nano.a(lib_a-errno.o)
 .text.__errno  0x00000000        0xc c:/9047software/psoc creator/3.3/psoc creator/import/gnu/arm/4.9.3/bin/../lib/gcc/arm-none-eabi/4.9.3/../../../../arm-none-eabi/lib/armv6-m\libg_nano.a(lib_a-errno.o)
 .text          0x00000000        0x0 c:/9047software/psoc creator/3.3/psoc creator/import/gnu/arm/4.9.3/bin/../lib/gcc/arm-none-eabi/4.9.3/../../../../arm-none-eabi/lib/armv6-m\libg_nano.a(lib_a-exit.o)
 .data          0x00000000        0x0 c:/9047software/psoc creator/3.3/psoc creator/import/gnu/arm/4.9.3/bin/../lib/gcc/arm-none-eabi/4.9.3/../../../../arm-none-eabi/lib/armv6-m\libg_nano.a(lib_a-exit.o)
 .bss           0x00000000        0x0 c:/9047software/psoc creator/3.3/psoc creator/import/gnu/arm/4.9.3/bin/../lib/gcc/arm-none-eabi/4.9.3/../../../../arm-none-eabi/lib/armv6-m\libg_nano.a(lib_a-exit.o)
 .text.exit     0x00000000       0x2c c:/9047software/psoc creator/3.3/psoc creator/import/gnu/arm/4.9.3/bin/../lib/gcc/arm-none-eabi/4.9.3/../../../../arm-none-eabi/lib/armv6-m\libg_nano.a(lib_a-exit.o)
 .text          0x00000000        0x0 c:/9047software/psoc creator/3.3/psoc creator/import/gnu/arm/4.9.3/bin/../lib/gcc/arm-none-eabi/4.9.3/../../../../arm-none-eabi/lib/armv6-m\libg_nano.a(lib_a-impure.o)
 .data          0x00000000        0x0 c:/9047software/psoc creator/3.3/psoc creator/import/gnu/arm/4.9.3/bin/../lib/gcc/arm-none-eabi/4.9.3/../../../../arm-none-eabi/lib/armv6-m\libg_nano.a(lib_a-impure.o)
 .bss           0x00000000        0x0 c:/9047software/psoc creator/3.3/psoc creator/import/gnu/arm/4.9.3/bin/../lib/gcc/arm-none-eabi/4.9.3/../../../../arm-none-eabi/lib/armv6-m\libg_nano.a(lib_a-impure.o)
 .data.impure_data
                0x00000000       0x60 c:/9047software/psoc creator/3.3/psoc creator/import/gnu/arm/4.9.3/bin/../lib/gcc/arm-none-eabi/4.9.3/../../../../arm-none-eabi/lib/armv6-m\libg_nano.a(lib_a-impure.o)
 .data._impure_ptr
                0x00000000        0x4 c:/9047software/psoc creator/3.3/psoc creator/import/gnu/arm/4.9.3/bin/../lib/gcc/arm-none-eabi/4.9.3/../../../../arm-none-eabi/lib/armv6-m\libg_nano.a(lib_a-impure.o)
 .rodata.str1.1
                0x00000000        0x2 c:/9047software/psoc creator/3.3/psoc creator/import/gnu/arm/4.9.3/bin/../lib/gcc/arm-none-eabi/4.9.3/../../../../arm-none-eabi/lib/armv6-m\libg_nano.a(lib_a-impure.o)
 .rodata._global_impure_ptr
                0x00000000        0x4 c:/9047software/psoc creator/3.3/psoc creator/import/gnu/arm/4.9.3/bin/../lib/gcc/arm-none-eabi/4.9.3/../../../../arm-none-eabi/lib/armv6-m\libg_nano.a(lib_a-impure.o)
 .text          0x00000000        0x0 c:/9047software/psoc creator/3.3/psoc creator/import/gnu/arm/4.9.3/bin/../lib/gcc/arm-none-eabi/4.9.3/../../../../arm-none-eabi/lib/armv6-m\libg_nano.a(lib_a-init.o)
 .data          0x00000000        0x0 c:/9047software/psoc creator/3.3/psoc creator/import/gnu/arm/4.9.3/bin/../lib/gcc/arm-none-eabi/4.9.3/../../../../arm-none-eabi/lib/armv6-m\libg_nano.a(lib_a-init.o)
 .bss           0x00000000        0x0 c:/9047software/psoc creator/3.3/psoc creator/import/gnu/arm/4.9.3/bin/../lib/gcc/arm-none-eabi/4.9.3/../../../../arm-none-eabi/lib/armv6-m\libg_nano.a(lib_a-init.o)
 .text          0x00000000        0x0 c:/9047software/psoc creator/3.3/psoc creator/import/gnu/arm/4.9.3/bin/../lib/gcc/arm-none-eabi/4.9.3/../../../../arm-none-eabi/lib/armv6-m\libg_nano.a(lib_a-memcmp.o)
 .data          0x00000000        0x0 c:/9047software/psoc creator/3.3/psoc creator/import/gnu/arm/4.9.3/bin/../lib/gcc/arm-none-eabi/4.9.3/../../../../arm-none-eabi/lib/armv6-m\libg_nano.a(lib_a-memcmp.o)
 .bss           0x00000000        0x0 c:/9047software/psoc creator/3.3/psoc creator/import/gnu/arm/4.9.3/bin/../lib/gcc/arm-none-eabi/4.9.3/../../../../arm-none-eabi/lib/armv6-m\libg_nano.a(lib_a-memcmp.o)
 .text          0x00000000        0x0 c:/9047software/psoc creator/3.3/psoc creator/import/gnu/arm/4.9.3/bin/../lib/gcc/arm-none-eabi/4.9.3/../../../../arm-none-eabi/lib/armv6-m\libg_nano.a(lib_a-memcpy.o)
 .data          0x00000000        0x0 c:/9047software/psoc creator/3.3/psoc creator/import/gnu/arm/4.9.3/bin/../lib/gcc/arm-none-eabi/4.9.3/../../../../arm-none-eabi/lib/armv6-m\libg_nano.a(lib_a-memcpy.o)
 .bss           0x00000000        0x0 c:/9047software/psoc creator/3.3/psoc creator/import/gnu/arm/4.9.3/bin/../lib/gcc/arm-none-eabi/4.9.3/../../../../arm-none-eabi/lib/armv6-m\libg_nano.a(lib_a-memcpy.o)
 .text          0x00000000        0x0 c:/9047software/psoc creator/3.3/psoc creator/import/gnu/arm/4.9.3/bin/../lib/gcc/arm-none-eabi/4.9.3/../../../../arm-none-eabi/lib/armv6-m\libg_nano.a(lib_a-memset.o)
 .data          0x00000000        0x0 c:/9047software/psoc creator/3.3/psoc creator/import/gnu/arm/4.9.3/bin/../lib/gcc/arm-none-eabi/4.9.3/../../../../arm-none-eabi/lib/armv6-m\libg_nano.a(lib_a-memset.o)
 .bss           0x00000000        0x0 c:/9047software/psoc creator/3.3/psoc creator/import/gnu/arm/4.9.3/bin/../lib/gcc/arm-none-eabi/4.9.3/../../../../arm-none-eabi/lib/armv6-m\libg_nano.a(lib_a-memset.o)
 .text          0x00000000        0x0 c:/9047software/psoc creator/3.3/psoc creator/import/gnu/arm/4.9.3/bin/../lib/gcc/arm-none-eabi/4.9.3/armv6-m/crtend.o
 .data          0x00000000        0x0 c:/9047software/psoc creator/3.3/psoc creator/import/gnu/arm/4.9.3/bin/../lib/gcc/arm-none-eabi/4.9.3/armv6-m/crtend.o
 .bss           0x00000000        0x0 c:/9047software/psoc creator/3.3/psoc creator/import/gnu/arm/4.9.3/bin/../lib/gcc/arm-none-eabi/4.9.3/armv6-m/crtend.o
 .text          0x00000000        0x0 c:/9047software/psoc creator/3.3/psoc creator/import/gnu/arm/4.9.3/bin/../lib/gcc/arm-none-eabi/4.9.3/armv6-m/crtn.o
 .data          0x00000000        0x0 c:/9047software/psoc creator/3.3/psoc creator/import/gnu/arm/4.9.3/bin/../lib/gcc/arm-none-eabi/4.9.3/armv6-m/crtn.o
 .bss           0x00000000        0x0 c:/9047software/psoc creator/3.3/psoc creator/import/gnu/arm/4.9.3/bin/../lib/gcc/arm-none-eabi/4.9.3/armv6-m/crtn.o

Memory Configuration

Name             Origin             Length             Attributes
rom              0x00000000         0x00020000         xr
ram              0x20000000         0x00004000         xrw
*default*        0x00000000         0xffffffff

Linker script and memory map

LOAD c:/9047software/psoc creator/3.3/psoc creator/import/gnu/arm/4.9.3/bin/../lib/gcc/arm-none-eabi/4.9.3/armv6-m/crti.o
LOAD c:/9047software/psoc creator/3.3/psoc creator/import/gnu/arm/4.9.3/bin/../lib/gcc/arm-none-eabi/4.9.3/armv6-m/crtbegin.o
LOAD c:/9047software/psoc creator/3.3/psoc creator/import/gnu/arm/4.9.3/bin/../lib/gcc/arm-none-eabi/4.9.3/../../../../arm-none-eabi/lib/armv6-m/crt0.o
START GROUP
LOAD .\CortexM0\ARM_GCC_493\Debug\main.o
LOAD .\CortexM0\ARM_GCC_493\Debug\HeartRateProcessing.o
LOAD .\CortexM0\ARM_GCC_493\Debug\BleProcessing.o
LOAD .\CortexM0\ARM_GCC_493\Debug\WatchdogTimer.o
LOAD .\CortexM0\ARM_GCC_493\Debug\cymetadata.o
LOAD .\CortexM0\ARM_GCC_493\Debug\Cm0Start.o
LOAD .\CortexM0\ARM_GCC_493\Debug\BLE Lab 3.a
LOAD C:\9047software\PSoC Creator\3.3\PSoC Creator\psoc\content\cycomponentlibrary\CyComponentLibrary.cylib\BLE_v2_0\Library\gccCyBLEStack_BLE_SOC_PERIPHERAL.a
LOAD C:\9047software\PSoC Creator\3.3\PSoC Creator\psoc\content\cycomponentlibrary\CyComponentLibrary.cylib\CortexM0\ARM_GCC_493\Debug\CyComponentLibrary.a
END GROUP
START GROUP
LOAD c:/9047software/psoc creator/3.3/psoc creator/import/gnu/arm/4.9.3/bin/../lib/gcc/arm-none-eabi/4.9.3/armv6-m\libgcc.a
LOAD c:/9047software/psoc creator/3.3/psoc creator/import/gnu/arm/4.9.3/bin/../lib/gcc/arm-none-eabi/4.9.3/../../../../arm-none-eabi/lib/armv6-m\libg_nano.a
LOAD c:/9047software/psoc creator/3.3/psoc creator/import/gnu/arm/4.9.3/bin/../lib/gcc/arm-none-eabi/4.9.3/../../../../arm-none-eabi/lib/armv6-m\libc_nano.a
END GROUP
START GROUP
LOAD c:/9047software/psoc creator/3.3/psoc creator/import/gnu/arm/4.9.3/bin/../lib/gcc/arm-none-eabi/4.9.3/armv6-m\libgcc.a
LOAD c:/9047software/psoc creator/3.3/psoc creator/import/gnu/arm/4.9.3/bin/../lib/gcc/arm-none-eabi/4.9.3/../../../../arm-none-eabi/lib/armv6-m\libc_nano.a
END GROUP
LOAD c:/9047software/psoc creator/3.3/psoc creator/import/gnu/arm/4.9.3/bin/../lib/gcc/arm-none-eabi/4.9.3/armv6-m/crtend.o
LOAD c:/9047software/psoc creator/3.3/psoc creator/import/gnu/arm/4.9.3/bin/../lib/gcc/arm-none-eabi/4.9.3/armv6-m/crtn.o
START GROUP
LOAD c:/9047software/psoc creator/3.3/psoc creator/import/gnu/arm/4.9.3/bin/../lib/gcc/arm-none-eabi/4.9.3/armv6-m\libgcc.a
LOAD c:/9047software/psoc creator/3.3/psoc creator/import/gnu/arm/4.9.3/bin/../lib/gcc/arm-none-eabi/4.9.3/../../../../arm-none-eabi/lib/armv6-m\libc.a
LOAD c:/9047software/psoc creator/3.3/psoc creator/import/gnu/arm/4.9.3/bin/../lib/gcc/arm-none-eabi/4.9.3/../../../../arm-none-eabi/lib/armv6-m\libnosys.a
END GROUP
                0x00000000                CY_APPL_ORIGIN = 0x0
                0x00000080                CY_FLASH_ROW_SIZE = 0x80
                0x00000001                CY_APPL_NUM = 0x1
                0x00000040                CY_METADATA_SIZE = 0x40
                0x20001de0                PROVIDE (__cy_heap_start, _end)
                0x00000001                PROVIDE (__cy_region_num, ((__cy_regions_end - __cy_regions) / 0x10))
                0x20004000                PROVIDE (__cy_stack, (ORIGIN (ram) + 0x4000))
                0x20003c00                PROVIDE (__cy_heap_end, (__cy_stack - 0x400))

.cybootloader   0x00000000        0x0
 *(.cybootloader)
                0x00000000                appl1_start = CY_APPL_ORIGIN?CY_APPL_ORIGIN:ALIGN (CY_FLASH_ROW_SIZE)
                0x0000ff80                appl2_start = (appl1_start + ALIGN ((((0x20000 - appl1_start) - (0x2 * CY_FLASH_ROW_SIZE)) / 0x2), CY_FLASH_ROW_SIZE))
                0x00000000                appl_start = (CY_APPL_NUM == 0x1)?appl1_start:appl2_start

.text           0x00000000     0x26c4
 CREATE_OBJECT_SYMBOLS
                0x00000000                PROVIDE (__cy_interrupt_vector, RomVectors)
 *(.romvectors)
 .romvectors    0x00000000       0x10 .\CortexM0\ARM_GCC_493\Debug\Cm0Start.o
                0x00000000                RomVectors
                0x00000001                ASSERT ((. != __cy_interrupt_vector), No interrupt vector)
                0x00000001                ASSERT (CY_APPL_ORIGIN?(SIZEOF (.cybootloader) <= CY_APPL_ORIGIN):0x1, Wrong image location)
                0x00000010                PROVIDE (__cy_reset, Reset)
 *(.text.Reset)
 .text.Reset    0x00000010        0x8 .\CortexM0\ARM_GCC_493\Debug\Cm0Start.o
                0x00000010                Reset
                0x00000001                ASSERT ((. != __cy_reset), No reset code)
 *(.psocinit)
 .psocinit      0x00000018      0x238 .\CortexM0\ARM_GCC_493\Debug\BLE Lab 3.a(cyfitter_cfg.o)
                0x000000ec                cyfitter_cfg
                0x00000250                . = MAX (., 0x100)
 *(.text .text.* .gnu.linkonce.t.*)
 .text          0x00000250       0x60 c:/9047software/psoc creator/3.3/psoc creator/import/gnu/arm/4.9.3/bin/../lib/gcc/arm-none-eabi/4.9.3/armv6-m/crtbegin.o
 .text.InitializeSystem
                0x000002b0       0x3c .\CortexM0\ARM_GCC_493\Debug\main.o
 .text.main     0x000002ec       0xe4 .\CortexM0\ARM_GCC_493\Debug\main.o
                0x000002ec                main
 .text.ProcessHeartRateSignal
                0x000003d0       0xb0 .\CortexM0\ARM_GCC_493\Debug\HeartRateProcessing.o
                0x000003d0                ProcessHeartRateSignal
 .text.SendHeartRateOverBLE
                0x00000480       0x58 .\CortexM0\ARM_GCC_493\Debug\BleProcessing.o
                0x00000480                SendHeartRateOverBLE
 .text.HrsEventHandler
                0x000004d8       0x38 .\CortexM0\ARM_GCC_493\Debug\BleProcessing.o
                0x000004d8                HrsEventHandler
 .text.GeneralEventHandler
                0x00000510       0xac .\CortexM0\ARM_GCC_493\Debug\BleProcessing.o
                0x00000510                GeneralEventHandler
 .text.WatchdogTimer_Isr
                0x000005bc       0x20 .\CortexM0\ARM_GCC_493\Debug\WatchdogTimer.o
                0x000005bc                WatchdogTimer_Isr
 .text.WatchdogTimer_Start
                0x000005dc       0x48 .\CortexM0\ARM_GCC_493\Debug\WatchdogTimer.o
                0x000005dc                WatchdogTimer_Start
 .text.WatchdogTimer_GetTimestamp
                0x00000624       0x14 .\CortexM0\ARM_GCC_493\Debug\WatchdogTimer.o
                0x00000624                WatchdogTimer_GetTimestamp
 .text.IntDefaultHandler
                0x00000638        0x8 .\CortexM0\ARM_GCC_493\Debug\Cm0Start.o
                0x00000638                IntDefaultHandler
 .text.Start_c  0x00000640       0x98 .\CortexM0\ARM_GCC_493\Debug\Cm0Start.o
                0x00000640                Start_c
 .text.initialize_psoc
                0x000006d8       0x70 .\CortexM0\ARM_GCC_493\Debug\Cm0Start.o
                0x000006d8                initialize_psoc
 .text.CYMEMZERO
                0x00000748       0x20 .\CortexM0\ARM_GCC_493\Debug\BLE Lab 3.a(cyfitter_cfg.o)
 .text.cfg_write_bytes32
                0x00000768       0x80 .\CortexM0\ARM_GCC_493\Debug\BLE Lab 3.a(cyfitter_cfg.o)
 .text.AnalogSetDefault
                0x000007e8       0x60 .\CortexM0\ARM_GCC_493\Debug\BLE Lab 3.a(cyfitter_cfg.o)
 .text.SetAnalogRoutingPumps
                0x00000848       0x40 .\CortexM0\ARM_GCC_493\Debug\BLE Lab 3.a(cyfitter_cfg.o)
                0x00000848                SetAnalogRoutingPumps
 .text.SW2_Switch_ClearInterrupt
                0x00000888       0x30 .\CortexM0\ARM_GCC_493\Debug\BLE Lab 3.a(SW2_Switch.o)
                0x00000888                SW2_Switch_ClearInterrupt
 .text.Wakeup_ISR_Start
                0x000008b8       0x24 .\CortexM0\ARM_GCC_493\Debug\BLE Lab 3.a(Wakeup_ISR.o)
                0x000008b8                Wakeup_ISR_Start
 .text.Wakeup_ISR_Interrupt
                0x000008dc        0x8 .\CortexM0\ARM_GCC_493\Debug\BLE Lab 3.a(Wakeup_ISR.o)
                0x000008dc                Wakeup_ISR_Interrupt
 .text.Wakeup_ISR_SetVector
                0x000008e4       0x18 .\CortexM0\ARM_GCC_493\Debug\BLE Lab 3.a(Wakeup_ISR.o)
                0x000008e4                Wakeup_ISR_SetVector
 .text.Wakeup_ISR_SetPriority
                0x000008fc       0x50 .\CortexM0\ARM_GCC_493\Debug\BLE Lab 3.a(Wakeup_ISR.o)
                0x000008fc                Wakeup_ISR_SetPriority
 .text.Wakeup_ISR_Enable
                0x0000094c       0x14 .\CortexM0\ARM_GCC_493\Debug\BLE Lab 3.a(Wakeup_ISR.o)
                0x0000094c                Wakeup_ISR_Enable
 .text.Wakeup_ISR_Disable
                0x00000960       0x14 .\CortexM0\ARM_GCC_493\Debug\BLE Lab 3.a(Wakeup_ISR.o)
                0x00000960                Wakeup_ISR_Disable
 .text.Led_Advertising_Green_Write
                0x00000974       0x4c .\CortexM0\ARM_GCC_493\Debug\BLE Lab 3.a(Led_Advertising_Green.o)
                0x00000974                Led_Advertising_Green_Write
 .text.Led_Advertising_Green_SetDriveMode
                0x000009c0       0x30 .\CortexM0\ARM_GCC_493\Debug\BLE Lab 3.a(Led_Advertising_Green.o)
                0x000009c0                Led_Advertising_Green_SetDriveMode
 .text.Led_Connected_Blue_Write
                0x000009f0       0x48 .\CortexM0\ARM_GCC_493\Debug\BLE Lab 3.a(Led_Connected_Blue.o)
                0x000009f0                Led_Connected_Blue_Write
 .text.Led_Connected_Blue_SetDriveMode
                0x00000a38       0x30 .\CortexM0\ARM_GCC_493\Debug\BLE Lab 3.a(Led_Connected_Blue.o)
                0x00000a38                Led_Connected_Blue_SetDriveMode
 .text.CyBle_HrsInit
                0x00000a68        0x8 .\CortexM0\ARM_GCC_493\Debug\BLE Lab 3.a(BLE_hrs.o)
                0x00000a68                CyBle_HrsInit
 .text.CyBle_HrsRegisterAttrCallback
                0x00000a70       0x18 .\CortexM0\ARM_GCC_493\Debug\BLE Lab 3.a(BLE_hrs.o)
                0x00000a70                CyBle_HrsRegisterAttrCallback
 .text.CyBle_HrssGetCharacteristicValue
                0x00000a88       0x98 .\CortexM0\ARM_GCC_493\Debug\BLE Lab 3.a(BLE_hrs.o)
                0x00000a88                CyBle_HrssGetCharacteristicValue
 .text.CyBle_HrssSendNotification
                0x00000b20       0xe4 .\CortexM0\ARM_GCC_493\Debug\BLE Lab 3.a(BLE_hrs.o)
                0x00000b20                CyBle_HrssSendNotification
 .text.CyBle_HrssWriteEventHandler
                0x00000c04      0x118 .\CortexM0\ARM_GCC_493\Debug\BLE Lab 3.a(BLE_hrs.o)
                0x00000c04                CyBle_HrssWriteEventHandler
 .text.CyBle_Init
                0x00000d1c       0x2c .\CortexM0\ARM_GCC_493\Debug\BLE Lab 3.a(BLE.o)
                0x00000d1c                CyBle_Init
 .text.CyBle_ServiceInit
                0x00000d48       0x10 .\CortexM0\ARM_GCC_493\Debug\BLE Lab 3.a(BLE.o)
                0x00000d48                CyBle_ServiceInit
 .text.CyBle_Start
                0x00000d58       0xb8 .\CortexM0\ARM_GCC_493\Debug\BLE Lab 3.a(BLE.o)
                0x00000d58                CyBle_Start
 .text.CyBle_Stop
                0x00000e10       0x18 .\CortexM0\ARM_GCC_493\Debug\BLE Lab 3.a(BLE.o)
                0x00000e10                CyBle_Stop
 .text.CyBle_GappStartAdvertisement
                0x00000e28       0xd4 .\CortexM0\ARM_GCC_493\Debug\BLE Lab 3.a(BLE.o)
                0x00000e28                CyBle_GappStartAdvertisement
 .text.CyBle_ChangeAdDeviceAddress
                0x00000efc       0x60 .\CortexM0\ARM_GCC_493\Debug\BLE Lab 3.a(BLE.o)
                0x00000efc                CyBle_ChangeAdDeviceAddress
 .text.CyBle_Get16ByPtr
                0x00000f5c       0x28 .\CortexM0\ARM_GCC_493\Debug\BLE Lab 3.a(BLE.o)
                0x00000f5c                CyBle_Get16ByPtr
 .text.CyBle_GattsWriteEventHandler
                0x00000f84       0xa0 .\CortexM0\ARM_GCC_493\Debug\BLE Lab 3.a(BLE_gatt.o)
                0x00000f84                CyBle_GattsWriteEventHandler
 .text.CyBle_WriteReqHandler
                0x00001024       0x98 .\CortexM0\ARM_GCC_493\Debug\BLE Lab 3.a(BLE_eventHandler.o)
 .text.CyBle_ValueConfirmation
                0x000010bc       0x10 .\CortexM0\ARM_GCC_493\Debug\BLE Lab 3.a(BLE_eventHandler.o)
 .text.CyBle_GattDisconnectEventHandler
                0x000010cc       0x18 .\CortexM0\ARM_GCC_493\Debug\BLE Lab 3.a(BLE_eventHandler.o)
 .text.CyBle_TimeOutEventHandler
                0x000010e4       0x10 .\CortexM0\ARM_GCC_493\Debug\BLE Lab 3.a(BLE_eventHandler.o)
 .text.CyBle_GattConnectReqHandler
                0x000010f4        0x8 .\CortexM0\ARM_GCC_493\Debug\BLE Lab 3.a(BLE_eventHandler.o)
 .text.CyBle_IsDeviceAddressValid
                0x000010fc       0x60 .\CortexM0\ARM_GCC_493\Debug\BLE Lab 3.a(BLE_eventHandler.o)
 .text.CyBle_L2Cap_ConnParamUpdateRspEventHandler
                0x0000115c       0x14 .\CortexM0\ARM_GCC_493\Debug\BLE Lab 3.a(BLE_eventHandler.o)
 .text.CyBle_GapConnUpdateCompleteEventHandler
                0x00001170       0x10 .\CortexM0\ARM_GCC_493\Debug\BLE Lab 3.a(BLE_eventHandler.o)
 .text.CyBle_EventHandler
                0x00001180      0x2b8 .\CortexM0\ARM_GCC_493\Debug\BLE Lab 3.a(BLE_eventHandler.o)
                0x00001180                CyBle_EventHandler
 .text.CyBle_DisInit
                0x00001438        0x8 .\CortexM0\ARM_GCC_493\Debug\BLE Lab 3.a(BLE_dis.o)
                0x00001438                CyBle_DisInit
 .text.Opamp_Init
                0x00001440       0x34 .\CortexM0\ARM_GCC_493\Debug\BLE Lab 3.a(Opamp.o)
                0x00001440                Opamp_Init
 .text.Opamp_Enable
                0x00001474       0x24 .\CortexM0\ARM_GCC_493\Debug\BLE Lab 3.a(Opamp.o)
                0x00001474                Opamp_Enable
 .text.Opamp_Start
                0x00001498       0x24 .\CortexM0\ARM_GCC_493\Debug\BLE Lab 3.a(Opamp.o)
                0x00001498                Opamp_Start
 .text.ADC_Start
                0x000014bc       0x24 .\CortexM0\ARM_GCC_493\Debug\BLE Lab 3.a(ADC.o)
                0x000014bc                ADC_Start
 .text.ADC_Init
                0x000014e0      0x1c4 .\CortexM0\ARM_GCC_493\Debug\BLE Lab 3.a(ADC.o)
                0x000014e0                ADC_Init
 .text.ADC_Enable
                0x000016a4       0x38 .\CortexM0\ARM_GCC_493\Debug\BLE Lab 3.a(ADC.o)
                0x000016a4                ADC_Enable
 .text.ADC_Stop
                0x000016dc       0x18 .\CortexM0\ARM_GCC_493\Debug\BLE Lab 3.a(ADC.o)
                0x000016dc                ADC_Stop
 .text.ADC_StartConvert
                0x000016f4       0x14 .\CortexM0\ARM_GCC_493\Debug\BLE Lab 3.a(ADC.o)
                0x000016f4                ADC_StartConvert
 .text.ADC_StopConvert
                0x00001708        0x8 .\CortexM0\ARM_GCC_493\Debug\BLE Lab 3.a(ADC.o)
                0x00001708                ADC_StopConvert
 .text.ADC_IsEndConversion
                0x00001710       0x48 .\CortexM0\ARM_GCC_493\Debug\BLE Lab 3.a(ADC.o)
                0x00001710                ADC_IsEndConversion
 .text.ADC_GetResult16
                0x00001758       0x44 .\CortexM0\ARM_GCC_493\Debug\BLE Lab 3.a(ADC.o)
                0x00001758                ADC_GetResult16
 .text.ADC_Sleep
                0x0000179c       0x84 .\CortexM0\ARM_GCC_493\Debug\BLE Lab 3.a(ADC_PM.o)
                0x0000179c                ADC_Sleep
 .text.ADC_Wakeup
                0x00001820       0x58 .\CortexM0\ARM_GCC_493\Debug\BLE Lab 3.a(ADC_PM.o)
                0x00001820                ADC_Wakeup
 .text.ADC_ISR  0x00001878       0x1c .\CortexM0\ARM_GCC_493\Debug\BLE Lab 3.a(ADC_INT.o)
                0x00001878                ADC_ISR
 *fill*         0x00001894        0x4 
 .text          0x00001898       0x20 .\CortexM0\ARM_GCC_493\Debug\BLE Lab 3.a(CyBootAsmGnu.o)
                0x00001898                CyDelayCycles
                0x000018aa                CyEnterCriticalSection
                0x000018b2                CyExitCriticalSection
 .text.CySysClkWriteSysclkDiv
                0x000018b8       0x44 .\CortexM0\ARM_GCC_493\Debug\BLE Lab 3.a(CyLib.o)
                0x000018b8                CySysClkWriteSysclkDiv
 .text.CySysClkWriteImoFreq
                0x000018fc       0x98 .\CortexM0\ARM_GCC_493\Debug\BLE Lab 3.a(CyLib.o)
                0x000018fc                CySysClkWriteImoFreq
 .text.CySysClkEcoStart
                0x00001994       0x74 .\CortexM0\ARM_GCC_493\Debug\BLE Lab 3.a(CyLib.o)
                0x00001994                CySysClkEcoStart
 .text.CySysClkEcoReadStatus
                0x00001a08       0x18 .\CortexM0\ARM_GCC_493\Debug\BLE Lab 3.a(CyLib.o)
                0x00001a08                CySysClkEcoReadStatus
 .text.CyIntSetVector
                0x00001a20       0x4c .\CortexM0\ARM_GCC_493\Debug\BLE Lab 3.a(CyLib.o)
                0x00001a20                CyIntSetVector
 .text.CyIntSetPriority
                0x00001a6c       0xa8 .\CortexM0\ARM_GCC_493\Debug\BLE Lab 3.a(CyLib.o)
                0x00001a6c                CyIntSetPriority
 .text.CyIntEnable
                0x00001b14       0x28 .\CortexM0\ARM_GCC_493\Debug\BLE Lab 3.a(CyLib.o)
                0x00001b14                CyIntEnable
 .text.CyHalt   0x00001b3c       0x14 .\CortexM0\ARM_GCC_493\Debug\BLE Lab 3.a(CyLib.o)
                0x00001b3c                CyHalt
 .text.CyDelay  0x00001b50       0x48 .\CortexM0\ARM_GCC_493\Debug\BLE Lab 3.a(CyLib.o)
                0x00001b50                CyDelay
 .text.CyDelayUs
                0x00001b98       0x28 .\CortexM0\ARM_GCC_493\Debug\BLE Lab 3.a(CyLib.o)
                0x00001b98                CyDelayUs
 .text.CySysPmSleep
                0x00001bc0       0x34 .\CortexM0\ARM_GCC_493\Debug\BLE Lab 3.a(cyPm.o)
                0x00001bc0                CySysPmSleep
 .text.CySysPmDeepSleep
                0x00001bf4       0x6c .\CortexM0\ARM_GCC_493\Debug\BLE Lab 3.a(cyPm.o)
                0x00001bf4                CySysPmDeepSleep
 .text.CySysPmHibernate
                0x00001c60       0x6c .\CortexM0\ARM_GCC_493\Debug\BLE Lab 3.a(cyPm.o)
                0x00001c60                CySysPmHibernate
 .text.CySysClkWcoSetHighPowerMode
                0x00001ccc       0x48 .\CortexM0\ARM_GCC_493\Debug\BLE Lab 3.a(CyLFClk.o)
 .text.CySysClkWcoSetLowPowerMode
                0x00001d14       0x48 .\CortexM0\ARM_GCC_493\Debug\BLE Lab 3.a(CyLFClk.o)
 .text.CySysClkWcoStart
                0x00001d5c       0x20 .\CortexM0\ARM_GCC_493\Debug\BLE Lab 3.a(CyLFClk.o)
                0x00001d5c                CySysClkWcoStart
 .text.CySysClkWcoSetPowerMode
                0x00001d7c       0x40 .\CortexM0\ARM_GCC_493\Debug\BLE Lab 3.a(CyLFClk.o)
                0x00001d7c                CySysClkWcoSetPowerMode
 .text.CySysWdtLock
                0x00001dbc       0x34 .\CortexM0\ARM_GCC_493\Debug\BLE Lab 3.a(CyLFClk.o)
                0x00001dbc                CySysWdtLock
 .text.CySysWdtLocked
                0x00001df0       0x20 .\CortexM0\ARM_GCC_493\Debug\BLE Lab 3.a(CyLFClk.o)
 .text.CySysWdtUnlock
                0x00001e10       0x4c .\CortexM0\ARM_GCC_493\Debug\BLE Lab 3.a(CyLFClk.o)
                0x00001e10                CySysWdtUnlock
 .text.CySysWdtGetEnabledStatus
                0x00001e5c       0x30 .\CortexM0\ARM_GCC_493\Debug\BLE Lab 3.a(CyLFClk.o)
                0x00001e5c                CySysWdtGetEnabledStatus
 .text.CySysWdtSetMode
                0x00001e8c       0x58 .\CortexM0\ARM_GCC_493\Debug\BLE Lab 3.a(CyLFClk.o)
                0x00001e8c                CySysWdtSetMode
 .text.CySysWdtSetClearOnMatch
                0x00001ee4       0x6c .\CortexM0\ARM_GCC_493\Debug\BLE Lab 3.a(CyLFClk.o)
                0x00001ee4                CySysWdtSetClearOnMatch
 .text.CySysWdtEnable
                0x00001f50       0x60 .\CortexM0\ARM_GCC_493\Debug\BLE Lab 3.a(CyLFClk.o)
                0x00001f50                CySysWdtEnable
 .text.CySysWdtSetMatch
                0x00001fb0       0x90 .\CortexM0\ARM_GCC_493\Debug\BLE Lab 3.a(CyLFClk.o)
                0x00001fb0                CySysWdtSetMatch
 .text.CySysWdtClearInterrupt
                0x00002040       0x70 .\CortexM0\ARM_GCC_493\Debug\BLE Lab 3.a(CyLFClk.o)
                0x00002040                CySysWdtClearInterrupt
 .text.CyBLE_Bless_LlRegWrite
                0x000020b0       0x1c .\CortexM0\ARM_GCC_493\Debug\BLE Lab 3.a(BLE_HAL_PVT.o)
                0x000020b0                CyBLE_Bless_LlRegWrite
 .text.CyBLE_Bless_RfRegWrite
                0x000020cc       0x1c .\CortexM0\ARM_GCC_493\Debug\BLE Lab 3.a(BLE_HAL_PVT.o)
                0x000020cc                CyBLE_Bless_RfRegWrite
 .text.CyBLE_BlessDeviceConfig
                0x000020e8      0x110 .\CortexM0\ARM_GCC_493\Debug\BLE Lab 3.a(BLE_HAL_PVT.o)
                0x000020e8                CyBLE_BlessDeviceConfig
 .text.CyBleHal_DelayUs
                0x000021f8       0x1c .\CortexM0\ARM_GCC_493\Debug\BLE Lab 3.a(BLE_HAL_PVT.o)
                0x000021f8                CyBleHal_DelayUs
 .text.CyBleHal_DelayMs
                0x00002214       0x18 .\CortexM0\ARM_GCC_493\Debug\BLE Lab 3.a(BLE_HAL_PVT.o)
                0x00002214                CyBleHal_DelayMs
 .text.CyBleHal_EnableGlobalInterrupts
                0x0000222c        0xc .\CortexM0\ARM_GCC_493\Debug\BLE Lab 3.a(BLE_HAL_PVT.o)
                0x0000222c                CyBleHal_EnableGlobalInterrupts
 .text.CyBleHal_DisableGlobalInterrupts
                0x00002238        0xc .\CortexM0\ARM_GCC_493\Debug\BLE Lab 3.a(BLE_HAL_PVT.o)
                0x00002238                CyBleHal_DisableGlobalInterrupts
 .text.CyBle_HalInit
                0x00002244       0x20 .\CortexM0\ARM_GCC_493\Debug\BLE Lab 3.a(BLE_HAL_PVT.o)
                0x00002244                CyBle_HalInit
 .text.CYBLE_BlessStart
                0x00002264       0x14 .\CortexM0\ARM_GCC_493\Debug\BLE Lab 3.a(BLE_HAL_PVT.o)
                0x00002264                CYBLE_BlessStart
 .text.BLE_bless_isr_StartEx
                0x00002278       0x24 .\CortexM0\ARM_GCC_493\Debug\BLE Lab 3.a(BLE_bless_isr.o)
                0x00002278                BLE_bless_isr_StartEx
 .text.BLE_bless_isr_SetVector
                0x0000229c       0x18 .\CortexM0\ARM_GCC_493\Debug\BLE Lab 3.a(BLE_bless_isr.o)
                0x0000229c                BLE_bless_isr_SetVector
 .text.BLE_bless_isr_SetPriority
                0x000022b4       0x4c .\CortexM0\ARM_GCC_493\Debug\BLE Lab 3.a(BLE_bless_isr.o)
                0x000022b4                BLE_bless_isr_SetPriority
 .text.BLE_bless_isr_Enable
                0x00002300       0x14 .\CortexM0\ARM_GCC_493\Debug\BLE Lab 3.a(BLE_bless_isr.o)
                0x00002300                BLE_bless_isr_Enable
 .text.BLE_bless_isr_Disable
                0x00002314       0x14 .\CortexM0\ARM_GCC_493\Debug\BLE Lab 3.a(BLE_bless_isr.o)
                0x00002314                BLE_bless_isr_Disable
 .text.CyBLE_Bless_Interrupt
                0x00002328        0xc .\CortexM0\ARM_GCC_493\Debug\BLE Lab 3.a(BLE_HAL_INT.o)
                0x00002328                CyBLE_Bless_Interrupt
 .text          0x00002334      0x120 c:/9047software/psoc creator/3.3/psoc creator/import/gnu/arm/4.9.3/bin/../lib/gcc/arm-none-eabi/4.9.3/armv6-m\libgcc.a(_udivsi3.o)
                0x00002334                __aeabi_uidiv
                0x00002334                __udivsi3
                0x00002440                __aeabi_uidivmod
 .text          0x00002454      0x1e0 c:/9047software/psoc creator/3.3/psoc creator/import/gnu/arm/4.9.3/bin/../lib/gcc/arm-none-eabi/4.9.3/armv6-m\libgcc.a(_divsi3.o)
                0x00002454                __divsi3
                0x00002454                __aeabi_idiv
                0x00002620                __aeabi_idivmod
 .text          0x00002634        0x4 c:/9047software/psoc creator/3.3/psoc creator/import/gnu/arm/4.9.3/bin/../lib/gcc/arm-none-eabi/4.9.3/armv6-m\libgcc.a(_dvmd_tls.o)
                0x00002634                __aeabi_idiv0
                0x00002634                __aeabi_ldiv0
 .text.__libc_init_array
                0x00002638       0x4c c:/9047software/psoc creator/3.3/psoc creator/import/gnu/arm/4.9.3/bin/../lib/gcc/arm-none-eabi/4.9.3/../../../../arm-none-eabi/lib/armv6-m\libg_nano.a(lib_a-init.o)
                0x00002638                __libc_init_array
 .text.memcmp   0x00002684       0x1e c:/9047software/psoc creator/3.3/psoc creator/import/gnu/arm/4.9.3/bin/../lib/gcc/arm-none-eabi/4.9.3/../../../../arm-none-eabi/lib/armv6-m\libg_nano.a(lib_a-memcmp.o)
                0x00002684                memcmp
 .text.memcpy   0x000026a2       0x12 c:/9047software/psoc creator/3.3/psoc creator/import/gnu/arm/4.9.3/bin/../lib/gcc/arm-none-eabi/4.9.3/../../../../arm-none-eabi/lib/armv6-m\libg_nano.a(lib_a-memcpy.o)
                0x000026a2                memcpy
 .text.memset   0x000026b4       0x10 c:/9047software/psoc creator/3.3/psoc creator/import/gnu/arm/4.9.3/bin/../lib/gcc/arm-none-eabi/4.9.3/../../../../arm-none-eabi/lib/armv6-m\libg_nano.a(lib_a-memset.o)
                0x000026b4                memset
 *(.plt)
 *(.gnu.warning)
 *(.glue_7t)
 .glue_7t       0x00000000        0x0 linker stubs
 *(.glue_7)
 .glue_7        0x00000000        0x0 linker stubs
 *(.vfp11_veneer)
 .vfp11_veneer  0x00000000        0x0 linker stubs
 *(.bootloader)
 *(.ARM.extab* .gnu.linkonce.armextab.*)
 *(.gcc_except_table)

.v4_bx          0x000026c4        0x0
 .v4_bx         0x00000000        0x0 linker stubs

.iplt           0x000026c4        0x0
 .iplt          0x00000000        0x0 c:/9047software/psoc creator/3.3/psoc creator/import/gnu/arm/4.9.3/bin/../lib/gcc/arm-none-eabi/4.9.3/armv6-m/crtbegin.o

i.CyBle_EnterLPM
                0x000026c4        0x8
 i.CyBle_EnterLPM
                0x000026c4        0x8 C:\9047software\PSoC Creator\3.3\PSoC Creator\psoc\content\cycomponentlibrary\CyComponentLibrary.cylib\BLE_v2_0\Library\gccCyBLEStack_BLE_SOC_PERIPHERAL.a(CyBle.o)
                0x000026c4                CyBle_EnterLPM

i.CyBle_ExitLPM
                0x000026cc        0x8
 i.CyBle_ExitLPM
                0x000026cc        0x8 C:\9047software\PSoC Creator\3.3\PSoC Creator\psoc\content\cycomponentlibrary\CyComponentLibrary.cylib\BLE_v2_0\Library\gccCyBLEStack_BLE_SOC_PERIPHERAL.a(CyBle.o)
                0x000026cc                CyBle_ExitLPM

i.CyBle_ProcessEvents
                0x000026d4        0x8
 i.CyBle_ProcessEvents
                0x000026d4        0x8 C:\9047software\PSoC Creator\3.3\PSoC Creator\psoc\content\cycomponentlibrary\CyComponentLibrary.cylib\BLE_v2_0\Library\gccCyBLEStack_BLE_SOC_PERIPHERAL.a(CyBle.o)
                0x000026d4                CyBle_ProcessEvents

i.CyBle_SetDeviceAddress
                0x000026dc       0x24
 i.CyBle_SetDeviceAddress
                0x000026dc       0x24 C:\9047software\PSoC Creator\3.3\PSoC Creator\psoc\content\cycomponentlibrary\CyComponentLibrary.cylib\BLE_v2_0\Library\gccCyBLEStack_BLE_SOC_PERIPHERAL.a(CyBle.o)
                0x000026dc                CyBle_SetDeviceAddress

i.CyBle_Shutdown
                0x00002700       0x24
 i.CyBle_Shutdown
                0x00002700       0x24 C:\9047software\PSoC Creator\3.3\PSoC Creator\psoc\content\cycomponentlibrary\CyComponentLibrary.cylib\BLE_v2_0\Library\gccCyBLEStack_BLE_SOC_PERIPHERAL.a(CyBle.o)
                0x00002700                CyBle_Shutdown

i.CyBle_StackInit
                0x00002724       0x80
 i.CyBle_StackInit
                0x00002724       0x80 C:\9047software\PSoC Creator\3.3\PSoC Creator\psoc\content\cycomponentlibrary\CyComponentLibrary.cylib\BLE_v2_0\Library\gccCyBLEStack_BLE_SOC_PERIPHERAL.a(CyBle.o)
                0x00002724                CyBle_StackInit

i.CyBleStackMgr_Init
                0x000027a4       0xb4
 i.CyBleStackMgr_Init
                0x000027a4       0xb4 C:\9047software\PSoC Creator\3.3\PSoC Creator\psoc\content\cycomponentlibrary\CyComponentLibrary.cylib\BLE_v2_0\Library\gccCyBLEStack_BLE_SOC_PERIPHERAL.a(CyBleStackMgrIP_Interface.o)
                0x000027a4                CyBleStackMgr_Init

i.CyBleStackMgr_ProcessBleEvents
                0x00002858       0x14
 i.CyBleStackMgr_ProcessBleEvents
                0x00002858       0x14 C:\9047software\PSoC Creator\3.3\PSoC Creator\psoc\content\cycomponentlibrary\CyComponentLibrary.cylib\BLE_v2_0\Library\gccCyBLEStack_BLE_SOC_PERIPHERAL.a(CyBleStackMgrIP_Interface.o)
                0x00002858                CyBleStackMgr_ProcessBleEvents

i.CyBleStackMgr_Reset
                0x0000286c       0x34
 i.CyBleStackMgr_Reset
                0x0000286c       0x34 C:\9047software\PSoC Creator\3.3\PSoC Creator\psoc\content\cycomponentlibrary\CyComponentLibrary.cylib\BLE_v2_0\Library\gccCyBLEStack_BLE_SOC_PERIPHERAL.a(CyBleStackMgrIP_Interface.o)
                0x0000286c                CyBleStackMgr_Reset

i.CyBleStackMgr_Shutdown
                0x000028a0       0x24
 i.CyBleStackMgr_Shutdown
                0x000028a0       0x24 C:\9047software\PSoC Creator\3.3\PSoC Creator\psoc\content\cycomponentlibrary\CyComponentLibrary.cylib\BLE_v2_0\Library\gccCyBLEStack_BLE_SOC_PERIPHERAL.a(CyBleStackMgrIP_Interface.o)
                0x000028a0                CyBleStackMgr_Shutdown

i.CyBle_GetHeapMemory
                0x000028c4       0x28
 i.CyBle_GetHeapMemory
                0x000028c4       0x28 C:\9047software\PSoC Creator\3.3\PSoC Creator\psoc\content\cycomponentlibrary\CyComponentLibrary.cylib\BLE_v2_0\Library\gccCyBLEStack_BLE_SOC_PERIPHERAL.a(CyBleStackMgrIP_Interface.o)
                0x000028c4                CyBle_GetHeapMemory

i.CyBle_GetNumAppBufferPools
                0x000028ec        0xc
 i.CyBle_GetNumAppBufferPools
                0x000028ec        0xc C:\9047software\PSoC Creator\3.3\PSoC Creator\psoc\content\cycomponentlibrary\CyComponentLibrary.cylib\BLE_v2_0\Library\gccCyBLEStack_BLE_SOC_PERIPHERAL.a(CyBleStackMgrIP_Interface.o)
                0x000028ec                CyBle_GetNumAppBufferPools

i.CyBle_GetReservedPoolInfo
                0x000028f8       0x3c
 i.CyBle_GetReservedPoolInfo
                0x000028f8       0x3c C:\9047software\PSoC Creator\3.3\PSoC Creator\psoc\content\cycomponentlibrary\CyComponentLibrary.cylib\BLE_v2_0\Library\gccCyBLEStack_BLE_SOC_PERIPHERAL.a(CyBleStackMgrIP_Interface.o)
                0x000028f8                CyBle_GetReservedPoolInfo

i.CyBle_HostStackBufferPoolInit
                0x00002934       0x7c
 i.CyBle_HostStackBufferPoolInit
                0x00002934       0x7c C:\9047software\PSoC Creator\3.3\PSoC Creator\psoc\content\cycomponentlibrary\CyComponentLibrary.cylib\BLE_v2_0\Library\gccCyBLEStack_BLE_SOC_PERIPHERAL.a(CyBleStackMgrIP_Interface.o)

i.ble_stack_idle_task_callback
                0x000029b0        0x2
 i.ble_stack_idle_task_callback
                0x000029b0        0x2 C:\9047software\PSoC Creator\3.3\PSoC Creator\psoc\content\cycomponentlibrary\CyComponentLibrary.cylib\BLE_v2_0\Library\gccCyBLEStack_BLE_SOC_PERIPHERAL.a(CyBleStackMgrIP_Interface.o)
                0x000029b0                ble_stack_idle_task_callback

i.BT_OSFreeBuf  0x000029b4       0x20
 i.BT_OSFreeBuf
                0x000029b4       0x20 C:\9047software\PSoC Creator\3.3\PSoC Creator\psoc\content\cycomponentlibrary\CyComponentLibrary.cylib\BLE_v2_0\Library\gccCyBLEStack_BLE_SOC_PERIPHERAL.a(BT_os.o)
                0x000029b4                BT_OSFreeBuf

i.BT_OSGetBuF   0x000029d4       0x30
 i.BT_OSGetBuF  0x000029d4       0x30 C:\9047software\PSoC Creator\3.3\PSoC Creator\psoc\content\cycomponentlibrary\CyComponentLibrary.cylib\BLE_v2_0\Library\gccCyBLEStack_BLE_SOC_PERIPHERAL.a(BT_os.o)
                0x000029d4                BT_OSGetBuF

i.BT_OSMemCreate
                0x00002a04       0x3c
 i.BT_OSMemCreate
                0x00002a04       0x3c C:\9047software\PSoC Creator\3.3\PSoC Creator\psoc\content\cycomponentlibrary\CyComponentLibrary.cylib\BLE_v2_0\Library\gccCyBLEStack_BLE_SOC_PERIPHERAL.a(BT_os.o)
                0x00002a04                BT_OSMemCreate

i.BT_alloc_mem_ext
                0x00002a40       0x40
 i.BT_alloc_mem_ext
                0x00002a40       0x40 C:\9047software\PSoC Creator\3.3\PSoC Creator\psoc\content\cycomponentlibrary\CyComponentLibrary.cylib\BLE_v2_0\Library\gccCyBLEStack_BLE_SOC_PERIPHERAL.a(BT_os.o)
                0x00002a40                BT_alloc_mem_ext

i.BT_buff_alloc_from_cfg_pool_ext
                0x00002a80       0x18
 i.BT_buff_alloc_from_cfg_pool_ext
                0x00002a80       0x18 C:\9047software\PSoC Creator\3.3\PSoC Creator\psoc\content\cycomponentlibrary\CyComponentLibrary.cylib\BLE_v2_0\Library\gccCyBLEStack_BLE_SOC_PERIPHERAL.a(BT_os.o)
                0x00002a80                BT_buff_alloc_from_cfg_pool_ext

i.BT_free_mem   0x00002a98        0xc
 i.BT_free_mem  0x00002a98        0xc C:\9047software\PSoC Creator\3.3\PSoC Creator\psoc\content\cycomponentlibrary\CyComponentLibrary.cylib\BLE_v2_0\Library\gccCyBLEStack_BLE_SOC_PERIPHERAL.a(BT_os.o)
                0x00002a98                BT_free_mem

i.bt_stack_create_buffer_pool
                0x00002aa4       0x30
 i.bt_stack_create_buffer_pool
                0x00002aa4       0x30 C:\9047software\PSoC Creator\3.3\PSoC Creator\psoc\content\cycomponentlibrary\CyComponentLibrary.cylib\BLE_v2_0\Library\gccCyBLEStack_BLE_SOC_PERIPHERAL.a(BT_os.o)
                0x00002aa4                bt_stack_create_buffer_pool

i.bt_stack_reset_buffer_pool
                0x00002ad4       0x28
 i.bt_stack_reset_buffer_pool
                0x00002ad4       0x28 C:\9047software\PSoC Creator\3.3\PSoC Creator\psoc\content\cycomponentlibrary\CyComponentLibrary.cylib\BLE_v2_0\Library\gccCyBLEStack_BLE_SOC_PERIPHERAL.a(BT_os.o)
                0x00002ad4                bt_stack_reset_buffer_pool

i.CyBle_CheckBleStackTaskStatus
                0x00002afc        0x4
 i.CyBle_CheckBleStackTaskStatus
                0x00002afc        0x4 C:\9047software\PSoC Creator\3.3\PSoC Creator\psoc\content\cycomponentlibrary\CyComponentLibrary.cylib\BLE_v2_0\Library\gccCyBLEStack_BLE_SOC_PERIPHERAL.a(CyBleStackMgr_StackTaskHandler.o)
                0x00002afc                CyBle_CheckBleStackTaskStatus

i.CyBle_CreateBleStackTask
                0x00002b00       0x2c
 i.CyBle_CreateBleStackTask
                0x00002b00       0x2c C:\9047software\PSoC Creator\3.3\PSoC Creator\psoc\content\cycomponentlibrary\CyComponentLibrary.cylib\BLE_v2_0\Library\gccCyBLEStack_BLE_SOC_PERIPHERAL.a(CyBleStackMgr_StackTaskHandler.o)
                0x00002b00                CyBle_CreateBleStackTask

i.CyBle_SignalBleStackTask
                0x00002b2c       0x50
 i.CyBle_SignalBleStackTask
                0x00002b2c       0x50 C:\9047software\PSoC Creator\3.3\PSoC Creator\psoc\content\cycomponentlibrary\CyComponentLibrary.cylib\BLE_v2_0\Library\gccCyBLEStack_BLE_SOC_PERIPHERAL.a(CyBleStackMgr_StackTaskHandler.o)
                0x00002b2c                CyBle_SignalBleStackTask

i.CyBle_StackTaskHandler
                0x00002b7c       0x5c
 i.CyBle_StackTaskHandler
                0x00002b7c       0x5c C:\9047software\PSoC Creator\3.3\PSoC Creator\psoc\content\cycomponentlibrary\CyComponentLibrary.cylib\BLE_v2_0\Library\gccCyBLEStack_BLE_SOC_PERIPHERAL.a(CyBleStackMgr_StackTaskHandler.o)
                0x00002b7c                CyBle_StackTaskHandler

i.__ARM_common_switch8
                0x00002bd8       0x1a
 i.__ARM_common_switch8
                0x00002bd8       0x1a C:\9047software\PSoC Creator\3.3\PSoC Creator\psoc\content\cycomponentlibrary\CyComponentLibrary.cylib\BLE_v2_0\Library\gccCyBLEStack_BLE_SOC_PERIPHERAL.a(CyBleStackMgr_StackTaskHandler.o)
                0x00002bd8                __ARM_common_switch8

i.hci_soft_transport_notify_data_received
                0x00002bf4        0xc
 i.hci_soft_transport_notify_data_received
                0x00002bf4        0xc C:\9047software\PSoC Creator\3.3\PSoC Creator\psoc\content\cycomponentlibrary\CyComponentLibrary.cylib\BLE_v2_0\Library\gccCyBLEStack_BLE_SOC_PERIPHERAL.a(transport_sf.o)
                0x00002bf4                hci_soft_transport_notify_data_received

i.hci_soft_transport_rx_data
                0x00002c00       0x40
 i.hci_soft_transport_rx_data
                0x00002c00       0x40 C:\9047software\PSoC Creator\3.3\PSoC Creator\psoc\content\cycomponentlibrary\CyComponentLibrary.cylib\BLE_v2_0\Library\gccCyBLEStack_BLE_SOC_PERIPHERAL.a(transport_sf.o)
                0x00002c00                hci_soft_transport_rx_data

i.hci_transport_bt_init
                0x00002c40        0x2
 i.hci_transport_bt_init
                0x00002c40        0x2 C:\9047software\PSoC Creator\3.3\PSoC Creator\psoc\content\cycomponentlibrary\CyComponentLibrary.cylib\BLE_v2_0\Library\gccCyBLEStack_BLE_SOC_PERIPHERAL.a(transport_sf.o)
                0x00002c40                hci_transport_bt_init

i.hci_transport_bt_shutdown
                0x00002c42        0x2
 i.hci_transport_bt_shutdown
                0x00002c42        0x2 C:\9047software\PSoC Creator\3.3\PSoC Creator\psoc\content\cycomponentlibrary\CyComponentLibrary.cylib\BLE_v2_0\Library\gccCyBLEStack_BLE_SOC_PERIPHERAL.a(transport_sf.o)
                0x00002c42                hci_transport_bt_shutdown

i.hci_transport_init
                0x00002c44       0x10
 i.hci_transport_init
                0x00002c44       0x10 C:\9047software\PSoC Creator\3.3\PSoC Creator\psoc\content\cycomponentlibrary\CyComponentLibrary.cylib\BLE_v2_0\Library\gccCyBLEStack_BLE_SOC_PERIPHERAL.a(transport_sf.o)
                0x00002c44                hci_transport_init

i.hci_transport_write_data
                0x00002c54       0xd4
 i.hci_transport_write_data
                0x00002c54       0xd4 C:\9047software\PSoC Creator\3.3\PSoC Creator\psoc\content\cycomponentlibrary\CyComponentLibrary.cylib\BLE_v2_0\Library\gccCyBLEStack_BLE_SOC_PERIPHERAL.a(transport_sf.o)
                0x00002c54                hci_transport_write_data

i.pf_hci_soft_transport_write
                0x00002d28       0x44
 i.pf_hci_soft_transport_write
                0x00002d28       0x44 C:\9047software\PSoC Creator\3.3\PSoC Creator\psoc\content\cycomponentlibrary\CyComponentLibrary.cylib\BLE_v2_0\Library\gccCyBLEStack_BLE_SOC_PERIPHERAL.a(transport_sf.o)
                0x00002d28                pf_hci_soft_transport_write

i.pf_soft_hci_transport_init
                0x00002d6c        0xc
 i.pf_soft_hci_transport_init
                0x00002d6c        0xc C:\9047software\PSoC Creator\3.3\PSoC Creator\psoc\content\cycomponentlibrary\CyComponentLibrary.cylib\BLE_v2_0\Library\gccCyBLEStack_BLE_SOC_PERIPHERAL.a(transport_sf.o)
                0x00002d6c                pf_soft_hci_transport_init

i.CyBleStackMgr_GetTime
                0x00002d78       0x14
 i.CyBleStackMgr_GetTime
                0x00002d78       0x14 C:\9047software\PSoC Creator\3.3\PSoC Creator\psoc\content\cycomponentlibrary\CyComponentLibrary.cylib\BLE_v2_0\Library\gccCyBLEStack_BLE_SOC_PERIPHERAL.a(CyBleStackMgr_PSoCHal.o)
                0x00002d78                CyBleStackMgr_GetTime

i.CyBleStackMgr_HalInit
                0x00002d8c       0x24
 i.CyBleStackMgr_HalInit
                0x00002d8c       0x24 C:\9047software\PSoC Creator\3.3\PSoC Creator\psoc\content\cycomponentlibrary\CyComponentLibrary.cylib\BLE_v2_0\Library\gccCyBLEStack_BLE_SOC_PERIPHERAL.a(CyBleStackMgr_PSoCHal.o)
                0x00002d8c                CyBleStackMgr_HalInit

i.CyBleStackMgr_HalIntrEnable
                0x00002db0        0x8
 i.CyBleStackMgr_HalIntrEnable
                0x00002db0        0x8 C:\9047software\PSoC Creator\3.3\PSoC Creator\psoc\content\cycomponentlibrary\CyComponentLibrary.cylib\BLE_v2_0\Library\gccCyBLEStack_BLE_SOC_PERIPHERAL.a(CyBleStackMgr_PSoCHal.o)
                0x00002db0                CyBleStackMgr_HalIntrEnable

i.CyBleStackMgr_HalReset
                0x00002db8        0x4
 i.CyBleStackMgr_HalReset
                0x00002db8        0x4 C:\9047software\PSoC Creator\3.3\PSoC Creator\psoc\content\cycomponentlibrary\CyComponentLibrary.cylib\BLE_v2_0\Library\gccCyBLEStack_BLE_SOC_PERIPHERAL.a(CyBleStackMgr_PSoCHal.o)
                0x00002db8                CyBleStackMgr_HalReset

i.CyBleStackMgr_HandleLinkLayerTick
                0x00002dbc       0x5c
 i.CyBleStackMgr_HandleLinkLayerTick
                0x00002dbc       0x5c C:\9047software\PSoC Creator\3.3\PSoC Creator\psoc\content\cycomponentlibrary\CyComponentLibrary.cylib\BLE_v2_0\Library\gccCyBLEStack_BLE_SOC_PERIPHERAL.a(CyBleStackMgr_PSoCHal.o)
                0x00002dbc                CyBleStackMgr_HandleLinkLayerTick

i.CyBleStackMgr_HciPortInit
                0x00002e18        0xc
 i.CyBleStackMgr_HciPortInit
                0x00002e18        0xc C:\9047software\PSoC Creator\3.3\PSoC Creator\psoc\content\cycomponentlibrary\CyComponentLibrary.cylib\BLE_v2_0\Library\gccCyBLEStack_BLE_SOC_PERIPHERAL.a(CyBleStackMgr_PSoCHal.o)
                0x00002e18                CyBleStackMgr_HciPortInit

i.CyBleStackMgr_HciPortReset
                0x00002e24        0x2
 i.CyBleStackMgr_HciPortReset
                0x00002e24        0x2 C:\9047software\PSoC Creator\3.3\PSoC Creator\psoc\content\cycomponentlibrary\CyComponentLibrary.cylib\BLE_v2_0\Library\gccCyBLEStack_BLE_SOC_PERIPHERAL.a(CyBleStackMgr_PSoCHal.o)
                0x00002e24                CyBleStackMgr_HciPortReset

i.CyBleStackMgr_HciPortWrite
                0x00002e26        0x8
 i.CyBleStackMgr_HciPortWrite
                0x00002e26        0x8 C:\9047software\PSoC Creator\3.3\PSoC Creator\psoc\content\cycomponentlibrary\CyComponentLibrary.cylib\BLE_v2_0\Library\gccCyBLEStack_BLE_SOC_PERIPHERAL.a(CyBleStackMgr_PSoCHal.o)
                0x00002e26                CyBleStackMgr_HciPortWrite

i.CyBleStackMgr_ResetLinkLayerTimerEntity
                0x00002e30       0x14
 i.CyBleStackMgr_ResetLinkLayerTimerEntity
                0x00002e30       0x14 C:\9047software\PSoC Creator\3.3\PSoC Creator\psoc\content\cycomponentlibrary\CyComponentLibrary.cylib\BLE_v2_0\Library\gccCyBLEStack_BLE_SOC_PERIPHERAL.a(CyBleStackMgr_PSoCHal.o)
                0x00002e30                CyBleStackMgr_ResetLinkLayerTimerEntity

i.CyBleStackMgr_TimerStart
                0x00002e44       0x2c
 i.CyBleStackMgr_TimerStart
                0x00002e44       0x2c C:\9047software\PSoC Creator\3.3\PSoC Creator\psoc\content\cycomponentlibrary\CyComponentLibrary.cylib\BLE_v2_0\Library\gccCyBLEStack_BLE_SOC_PERIPHERAL.a(CyBleStackMgr_PSoCHal.o)
                0x00002e44                CyBleStackMgr_TimerStart

i.CyBleStackMgr_TimerStop
                0x00002e70       0x18
 i.CyBleStackMgr_TimerStop
                0x00002e70       0x18 C:\9047software\PSoC Creator\3.3\PSoC Creator\psoc\content\cycomponentlibrary\CyComponentLibrary.cylib\BLE_v2_0\Library\gccCyBLEStack_BLE_SOC_PERIPHERAL.a(CyBleStackMgr_PSoCHal.o)
                0x00002e70                CyBleStackMgr_TimerStop

i.CyBleStackMgr_isTimerRunning
                0x00002e88       0x10
 i.CyBleStackMgr_isTimerRunning
                0x00002e88       0x10 C:\9047software\PSoC Creator\3.3\PSoC Creator\psoc\content\cycomponentlibrary\CyComponentLibrary.cylib\BLE_v2_0\Library\gccCyBLEStack_BLE_SOC_PERIPHERAL.a(CyBleStackMgr_PSoCHal.o)
                0x00002e88                CyBleStackMgr_isTimerRunning

i.CyBleAtlantisRadioInit
                0x00002e98      0x150
 i.CyBleAtlantisRadioInit
                0x00002e98      0x150 C:\9047software\PSoC Creator\3.3\PSoC Creator\psoc\content\cycomponentlibrary\CyComponentLibrary.cylib\BLE_v2_0\Library\gccCyBLEStack_BLE_SOC_PERIPHERAL.a(CyBleStackMgr_BleSSDriver.o)

i.CyBleStackMgr_BleSSFifoRead
                0x00002fe8       0x38
 i.CyBleStackMgr_BleSSFifoRead
                0x00002fe8       0x38 C:\9047software\PSoC Creator\3.3\PSoC Creator\psoc\content\cycomponentlibrary\CyComponentLibrary.cylib\BLE_v2_0\Library\gccCyBLEStack_BLE_SOC_PERIPHERAL.a(CyBleStackMgr_BleSSDriver.o)
                0x00002fe8                CyBleStackMgr_BleSSFifoRead

i.CyBleStackMgr_BleSSFifoWrite
                0x00003020       0x30
 i.CyBleStackMgr_BleSSFifoWrite
                0x00003020       0x30 C:\9047software\PSoC Creator\3.3\PSoC Creator\psoc\content\cycomponentlibrary\CyComponentLibrary.cylib\BLE_v2_0\Library\gccCyBLEStack_BLE_SOC_PERIPHERAL.a(CyBleStackMgr_BleSSDriver.o)
                0x00003020                CyBleStackMgr_BleSSFifoWrite

i.CyBleStackMgr_BleSSInit
                0x00003050       0x50
 i.CyBleStackMgr_BleSSInit
                0x00003050       0x50 C:\9047software\PSoC Creator\3.3\PSoC Creator\psoc\content\cycomponentlibrary\CyComponentLibrary.cylib\BLE_v2_0\Library\gccCyBLEStack_BLE_SOC_PERIPHERAL.a(CyBleStackMgr_BleSSDriver.o)
                0x00003050                CyBleStackMgr_BleSSInit

i.CyBleStackMgr_BleSSMemRead
                0x000030a0       0x26
 i.CyBleStackMgr_BleSSMemRead
                0x000030a0       0x26 C:\9047software\PSoC Creator\3.3\PSoC Creator\psoc\content\cycomponentlibrary\CyComponentLibrary.cylib\BLE_v2_0\Library\gccCyBLEStack_BLE_SOC_PERIPHERAL.a(CyBleStackMgr_BleSSDriver.o)
                0x000030a0                CyBleStackMgr_BleSSMemRead

i.CyBleStackMgr_BleSSMemWrite
                0x000030c8       0x34
 i.CyBleStackMgr_BleSSMemWrite
                0x000030c8       0x34 C:\9047software\PSoC Creator\3.3\PSoC Creator\psoc\content\cycomponentlibrary\CyComponentLibrary.cylib\BLE_v2_0\Library\gccCyBLEStack_BLE_SOC_PERIPHERAL.a(CyBleStackMgr_BleSSDriver.o)
                0x000030c8                CyBleStackMgr_BleSSMemWrite

i.CyBleStackMgr_BleSSRegRead
                0x000030fc        0xc
 i.CyBleStackMgr_BleSSRegRead
                0x000030fc        0xc C:\9047software\PSoC Creator\3.3\PSoC Creator\psoc\content\cycomponentlibrary\CyComponentLibrary.cylib\BLE_v2_0\Library\gccCyBLEStack_BLE_SOC_PERIPHERAL.a(CyBleStackMgr_BleSSDriver.o)
                0x000030fc                CyBleStackMgr_BleSSRegRead

i.CyBleStackMgr_BleSSRegWrite
                0x00003108        0xc
 i.CyBleStackMgr_BleSSRegWrite
                0x00003108        0xc C:\9047software\PSoC Creator\3.3\PSoC Creator\psoc\content\cycomponentlibrary\CyComponentLibrary.cylib\BLE_v2_0\Library\gccCyBLEStack_BLE_SOC_PERIPHERAL.a(CyBleStackMgr_BleSSDriver.o)
                0x00003108                CyBleStackMgr_BleSSRegWrite

i.CyBleStackMgr_BleSSReset
                0x00003114       0x38
 i.CyBleStackMgr_BleSSReset
                0x00003114       0x38 C:\9047software\PSoC Creator\3.3\PSoC Creator\psoc\content\cycomponentlibrary\CyComponentLibrary.cylib\BLE_v2_0\Library\gccCyBLEStack_BLE_SOC_PERIPHERAL.a(CyBleStackMgr_BleSSDriver.o)
                0x00003114                CyBleStackMgr_BleSSReset

i.CyBleStackMgr_BleSSShutdown
                0x0000314c       0x24
 i.CyBleStackMgr_BleSSShutdown
                0x0000314c       0x24 C:\9047software\PSoC Creator\3.3\PSoC Creator\psoc\content\cycomponentlibrary\CyComponentLibrary.cylib\BLE_v2_0\Library\gccCyBLEStack_BLE_SOC_PERIPHERAL.a(CyBleStackMgr_BleSSDriver.o)
                0x0000314c                CyBleStackMgr_BleSSShutdown

i.CyBleStackMgr_GenericIface
                0x00003170       0x3c
 i.CyBleStackMgr_GenericIface
                0x00003170       0x3c C:\9047software\PSoC Creator\3.3\PSoC Creator\psoc\content\cycomponentlibrary\CyComponentLibrary.cylib\BLE_v2_0\Library\gccCyBLEStack_BLE_SOC_PERIPHERAL.a(CyBleStackMgr_BleSSDriver.o)
                0x00003170                CyBleStackMgr_GenericIface

i.CyBleStackMgr_HandleBleSSIntr
                0x000031ac       0x90
 i.CyBleStackMgr_HandleBleSSIntr
                0x000031ac       0x90 C:\9047software\PSoC Creator\3.3\PSoC Creator\psoc\content\cycomponentlibrary\CyComponentLibrary.cylib\BLE_v2_0\Library\gccCyBLEStack_BLE_SOC_PERIPHERAL.a(CyBleStackMgr_BleSSDriver.o)
                0x000031ac                CyBleStackMgr_HandleBleSSIntr

i.CyBleStackMgr_SetClockParam
                0x0000323c       0xb4
 i.CyBleStackMgr_SetClockParam
                0x0000323c       0xb4 C:\9047software\PSoC Creator\3.3\PSoC Creator\psoc\content\cycomponentlibrary\CyComponentLibrary.cylib\BLE_v2_0\Library\gccCyBLEStack_BLE_SOC_PERIPHERAL.a(CyBleStackMgr_BleSSDriver.o)

i.CyBleStackMgr_isXtalCpuClkSource
                0x000032f0       0x18
 i.CyBleStackMgr_isXtalCpuClkSource
                0x000032f0       0x18 C:\9047software\PSoC Creator\3.3\PSoC Creator\psoc\content\cycomponentlibrary\CyComponentLibrary.cylib\BLE_v2_0\Library\gccCyBLEStack_BLE_SOC_PERIPHERAL.a(CyBleStackMgr_BleSSDriver.o)
                0x000032f0                CyBleStackMgr_isXtalCpuClkSource

i.CyBle_EnterDsmMode
                0x00003308       0x3c
 i.CyBle_EnterDsmMode
                0x00003308       0x3c C:\9047software\PSoC Creator\3.3\PSoC Creator\psoc\content\cycomponentlibrary\CyComponentLibrary.cylib\BLE_v2_0\Library\gccCyBLEStack_BLE_SOC_PERIPHERAL.a(CyBleStackMgr_BleSSDriver.o)
                0x00003308                CyBle_EnterDsmMode

i.CyBle_ExitDsmMode
                0x00003344       0x2c
 i.CyBle_ExitDsmMode
                0x00003344       0x2c C:\9047software\PSoC Creator\3.3\PSoC Creator\psoc\content\cycomponentlibrary\CyComponentLibrary.cylib\BLE_v2_0\Library\gccCyBLEStack_BLE_SOC_PERIPHERAL.a(CyBleStackMgr_BleSSDriver.o)
                0x00003344                CyBle_ExitDsmMode

i.CyBle_GetBleSsOperationalMode
                0x00003370        0xc
 i.CyBle_GetBleSsOperationalMode
                0x00003370        0xc C:\9047software\PSoC Creator\3.3\PSoC Creator\psoc\content\cycomponentlibrary\CyComponentLibrary.cylib\BLE_v2_0\Library\gccCyBLEStack_BLE_SOC_PERIPHERAL.a(CyBleStackMgr_BleSSDriver.o)
                0x00003370                CyBle_GetBleSsOperationalMode

i.CyBle_GetEventCloseState
                0x0000337c       0x10
 i.CyBle_GetEventCloseState
                0x0000337c       0x10 C:\9047software\PSoC Creator\3.3\PSoC Creator\psoc\content\cycomponentlibrary\CyComponentLibrary.cylib\BLE_v2_0\Library\gccCyBLEStack_BLE_SOC_PERIPHERAL.a(CyBleStackMgr_BleSSDriver.o)
                0x0000337c                CyBle_GetEventCloseState

i.CyBle_GetLpMode
                0x0000338c       0x26
 i.CyBle_GetLpMode
                0x0000338c       0x26 C:\9047software\PSoC Creator\3.3\PSoC Creator\psoc\content\cycomponentlibrary\CyComponentLibrary.cylib\BLE_v2_0\Library\gccCyBLEStack_BLE_SOC_PERIPHERAL.a(CyBleStackMgr_BleSSDriver.o)
                0x0000338c                CyBle_GetLpMode

i.CyBle_GetTxGainMode
                0x000033b4       0x2c
 i.CyBle_GetTxGainMode
                0x000033b4       0x2c C:\9047software\PSoC Creator\3.3\PSoC Creator\psoc\content\cycomponentlibrary\CyComponentLibrary.cylib\BLE_v2_0\Library\gccCyBLEStack_BLE_SOC_PERIPHERAL.a(CyBleStackMgr_BleSSDriver.o)
                0x000033b4                CyBle_GetTxGainMode

i.CyBle_SetAutoWakeUp
                0x000033e0        0xc
 i.CyBle_SetAutoWakeUp
                0x000033e0        0xc C:\9047software\PSoC Creator\3.3\PSoC Creator\psoc\content\cycomponentlibrary\CyComponentLibrary.cylib\BLE_v2_0\Library\gccCyBLEStack_BLE_SOC_PERIPHERAL.a(CyBleStackMgr_BleSSDriver.o)
                0x000033e0                CyBle_SetAutoWakeUp

i.CyBle_SetBleSsOperationalMode
                0x000033ec       0x20
 i.CyBle_SetBleSsOperationalMode
                0x000033ec       0x20 C:\9047software\PSoC Creator\3.3\PSoC Creator\psoc\content\cycomponentlibrary\CyComponentLibrary.cylib\BLE_v2_0\Library\gccCyBLEStack_BLE_SOC_PERIPHERAL.a(CyBleStackMgr_BleSSDriver.o)
                0x000033ec                CyBle_SetBleSsOperationalMode

i.CyBle_SetEventCloseState
                0x0000340c        0xc
 i.CyBle_SetEventCloseState
                0x0000340c        0xc C:\9047software\PSoC Creator\3.3\PSoC Creator\psoc\content\cycomponentlibrary\CyComponentLibrary.cylib\BLE_v2_0\Library\gccCyBLEStack_BLE_SOC_PERIPHERAL.a(CyBleStackMgr_BleSSDriver.o)
                0x0000340c                CyBle_SetEventCloseState

i.CyBle_SetRxGainMode
                0x00003418       0x20
 i.CyBle_SetRxGainMode
                0x00003418       0x20 C:\9047software\PSoC Creator\3.3\PSoC Creator\psoc\content\cycomponentlibrary\CyComponentLibrary.cylib\BLE_v2_0\Library\gccCyBLEStack_BLE_SOC_PERIPHERAL.a(CyBleStackMgr_BleSSDriver.o)
                0x00003418                CyBle_SetRxGainMode

i.CyBle_SetTxGainMode
                0x00003438       0x38
 i.CyBle_SetTxGainMode
                0x00003438       0x38 C:\9047software\PSoC Creator\3.3\PSoC Creator\psoc\content\cycomponentlibrary\CyComponentLibrary.cylib\BLE_v2_0\Library\gccCyBLEStack_BLE_SOC_PERIPHERAL.a(CyBleStackMgr_BleSSDriver.o)
                0x00003438                CyBle_SetTxGainMode

i.pf_rf_get_abs_rssi
                0x00003470       0x24
 i.pf_rf_get_abs_rssi
                0x00003470       0x24 C:\9047software\PSoC Creator\3.3\PSoC Creator\psoc\content\cycomponentlibrary\CyComponentLibrary.cylib\BLE_v2_0\Library\gccCyBLEStack_BLE_SOC_PERIPHERAL.a(CyBleStackMgr_BleSSDriver.o)
                0x00003470                pf_rf_get_abs_rssi

i.OS_init       0x00003494       0x64
 i.OS_init      0x00003494       0x64 C:\9047software\PSoC Creator\3.3\PSoC Creator\psoc\content\cycomponentlibrary\CyComponentLibrary.cylib\BLE_v2_0\Library\gccCyBLEStack_BLE_SOC_PERIPHERAL.a(mint_os.o)
                0x00003494                OS_init

i.OS_shutdown   0x000034f8        0x4
 i.OS_shutdown  0x000034f8        0x4 C:\9047software\PSoC Creator\3.3\PSoC Creator\psoc\content\cycomponentlibrary\CyComponentLibrary.cylib\BLE_v2_0\Library\gccCyBLEStack_BLE_SOC_PERIPHERAL.a(mint_os.o)
                0x000034f8                OS_shutdown

i.mintos_malloc
                0x000034fc       0x34
 i.mintos_malloc
                0x000034fc       0x34 C:\9047software\PSoC Creator\3.3\PSoC Creator\psoc\content\cycomponentlibrary\CyComponentLibrary.cylib\BLE_v2_0\Library\gccCyBLEStack_BLE_SOC_PERIPHERAL.a(mint_os.o)
                0x000034fc                mintos_malloc

i.OS_create_queue
                0x00003530       0x64
 i.OS_create_queue
                0x00003530       0x64 C:\9047software\PSoC Creator\3.3\PSoC Creator\psoc\content\cycomponentlibrary\CyComponentLibrary.cylib\BLE_v2_0\Library\gccCyBLEStack_BLE_SOC_PERIPHERAL.a(mint_os_queue.o)
                0x00003530                OS_create_queue

i.OS_enqueue_item
                0x00003594       0x8c
 i.OS_enqueue_item
                0x00003594       0x8c C:\9047software\PSoC Creator\3.3\PSoC Creator\psoc\content\cycomponentlibrary\CyComponentLibrary.cylib\BLE_v2_0\Library\gccCyBLEStack_BLE_SOC_PERIPHERAL.a(mint_os_queue.o)
                0x00003594                OS_enqueue_item

i.OS_queue_get_num_of_items
                0x00003620       0x28
 i.OS_queue_get_num_of_items
                0x00003620       0x28 C:\9047software\PSoC Creator\3.3\PSoC Creator\psoc\content\cycomponentlibrary\CyComponentLibrary.cylib\BLE_v2_0\Library\gccCyBLEStack_BLE_SOC_PERIPHERAL.a(mint_os_queue.o)
                0x00003620                OS_queue_get_num_of_items

i.OS_queue_mgmt_init
                0x00003648       0x40
 i.OS_queue_mgmt_init
                0x00003648       0x40 C:\9047software\PSoC Creator\3.3\PSoC Creator\psoc\content\cycomponentlibrary\CyComponentLibrary.cylib\BLE_v2_0\Library\gccCyBLEStack_BLE_SOC_PERIPHERAL.a(mint_os_queue.o)
                0x00003648                OS_queue_mgmt_init

i.OS_remove_item
                0x00003688       0xa0
 i.OS_remove_item
                0x00003688       0xa0 C:\9047software\PSoC Creator\3.3\PSoC Creator\psoc\content\cycomponentlibrary\CyComponentLibrary.cylib\BLE_v2_0\Library\gccCyBLEStack_BLE_SOC_PERIPHERAL.a(mint_os_queue.o)
                0x00003688                OS_remove_item

i.OS_create_task
                0x00003728       0x88
 i.OS_create_task
                0x00003728       0x88 C:\9047software\PSoC Creator\3.3\PSoC Creator\psoc\content\cycomponentlibrary\CyComponentLibrary.cylib\BLE_v2_0\Library\gccCyBLEStack_BLE_SOC_PERIPHERAL.a(mint_os_task.o)
                0x00003728                OS_create_task

i.OS_isr_send_signal_to_task
                0x000037b0        0xc
 i.OS_isr_send_signal_to_task
                0x000037b0        0xc C:\9047software\PSoC Creator\3.3\PSoC Creator\psoc\content\cycomponentlibrary\CyComponentLibrary.cylib\BLE_v2_0\Library\gccCyBLEStack_BLE_SOC_PERIPHERAL.a(mint_os_task.o)
                0x000037b0                OS_isr_send_signal_to_task

i.OS_scheduler  0x000037bc       0x64
 i.OS_scheduler
                0x000037bc       0x64 C:\9047software\PSoC Creator\3.3\PSoC Creator\psoc\content\cycomponentlibrary\CyComponentLibrary.cylib\BLE_v2_0\Library\gccCyBLEStack_BLE_SOC_PERIPHERAL.a(mint_os_task.o)
                0x000037bc                OS_scheduler

i.OS_send_signal_to_task
                0x00003820        0xc
 i.OS_send_signal_to_task
                0x00003820        0xc C:\9047software\PSoC Creator\3.3\PSoC Creator\psoc\content\cycomponentlibrary\CyComponentLibrary.cylib\BLE_v2_0\Library\gccCyBLEStack_BLE_SOC_PERIPHERAL.a(mint_os_task.o)
                0x00003820                OS_send_signal_to_task

i.OS_send_signal_to_task_context
                0x0000382c       0x3c
 i.OS_send_signal_to_task_context
                0x0000382c       0x3c C:\9047software\PSoC Creator\3.3\PSoC Creator\psoc\content\cycomponentlibrary\CyComponentLibrary.cylib\BLE_v2_0\Library\gccCyBLEStack_BLE_SOC_PERIPHERAL.a(mint_os_task.o)

i.OS_task_mgmt_init
                0x00003868       0x50
 i.OS_task_mgmt_init
                0x00003868       0x50 C:\9047software\PSoC Creator\3.3\PSoC Creator\psoc\content\cycomponentlibrary\CyComponentLibrary.cylib\BLE_v2_0\Library\gccCyBLEStack_BLE_SOC_PERIPHERAL.a(mint_os_task.o)
                0x00003868                OS_task_mgmt_init

i.mint_buf_mgmt_allocate_buffer
                0x000038b8       0x4c
 i.mint_buf_mgmt_allocate_buffer
                0x000038b8       0x4c C:\9047software\PSoC Creator\3.3\PSoC Creator\psoc\content\cycomponentlibrary\CyComponentLibrary.cylib\BLE_v2_0\Library\gccCyBLEStack_BLE_SOC_PERIPHERAL.a(mint_buf_mgmt.o)
                0x000038b8                mint_buf_mgmt_allocate_buffer

i.mint_buf_mgmt_create_pool
                0x00003904       0xd0
 i.mint_buf_mgmt_create_pool
                0x00003904       0xd0 C:\9047software\PSoC Creator\3.3\PSoC Creator\psoc\content\cycomponentlibrary\CyComponentLibrary.cylib\BLE_v2_0\Library\gccCyBLEStack_BLE_SOC_PERIPHERAL.a(mint_buf_mgmt.o)
                0x00003904                mint_buf_mgmt_create_pool

i.mint_buf_mgmt_free_buffer
                0x000039d4       0xa4
 i.mint_buf_mgmt_free_buffer
                0x000039d4       0xa4 C:\9047software\PSoC Creator\3.3\PSoC Creator\psoc\content\cycomponentlibrary\CyComponentLibrary.cylib\BLE_v2_0\Library\gccCyBLEStack_BLE_SOC_PERIPHERAL.a(mint_buf_mgmt.o)
                0x000039d4                mint_buf_mgmt_free_buffer

i.mint_buf_mgmt_init
                0x00003a78       0x44
 i.mint_buf_mgmt_init
                0x00003a78       0x44 C:\9047software\PSoC Creator\3.3\PSoC Creator\psoc\content\cycomponentlibrary\CyComponentLibrary.cylib\BLE_v2_0\Library\gccCyBLEStack_BLE_SOC_PERIPHERAL.a(mint_buf_mgmt.o)
                0x00003a78                mint_buf_mgmt_init

i.mint_buf_mgmt_malloc
                0x00003abc       0x2c
 i.mint_buf_mgmt_malloc
                0x00003abc       0x2c C:\9047software\PSoC Creator\3.3\PSoC Creator\psoc\content\cycomponentlibrary\CyComponentLibrary.cylib\BLE_v2_0\Library\gccCyBLEStack_BLE_SOC_PERIPHERAL.a(mint_buf_mgmt.o)
                0x00003abc                mint_buf_mgmt_malloc

i.mint_buf_mgmt_pl_init
                0x00003ae8       0x40
 i.mint_buf_mgmt_pl_init
                0x00003ae8       0x40 C:\9047software\PSoC Creator\3.3\PSoC Creator\psoc\content\cycomponentlibrary\CyComponentLibrary.cylib\BLE_v2_0\Library\gccCyBLEStack_BLE_SOC_PERIPHERAL.a(mint_buf_mgmt.o)
                0x00003ae8                mint_buf_mgmt_pl_init

i.mint_buf_mgmt_reset_pool
                0x00003b28       0x70
 i.mint_buf_mgmt_reset_pool
                0x00003b28       0x70 C:\9047software\PSoC Creator\3.3\PSoC Creator\psoc\content\cycomponentlibrary\CyComponentLibrary.cylib\BLE_v2_0\Library\gccCyBLEStack_BLE_SOC_PERIPHERAL.a(mint_buf_mgmt.o)
                0x00003b28                mint_buf_mgmt_reset_pool

i.mint_buf_mgmt_stack_init
                0x00003b98       0x24
 i.mint_buf_mgmt_stack_init
                0x00003b98       0x24 C:\9047software\PSoC Creator\3.3\PSoC Creator\psoc\content\cycomponentlibrary\CyComponentLibrary.cylib\BLE_v2_0\Library\gccCyBLEStack_BLE_SOC_PERIPHERAL.a(mint_buf_mgmt.o)
                0x00003b98                mint_buf_mgmt_stack_init

i.mint_buf_mgmt_stack_pop
                0x00003bbc       0x36
 i.mint_buf_mgmt_stack_pop
                0x00003bbc       0x36 C:\9047software\PSoC Creator\3.3\PSoC Creator\psoc\content\cycomponentlibrary\CyComponentLibrary.cylib\BLE_v2_0\Library\gccCyBLEStack_BLE_SOC_PERIPHERAL.a(mint_buf_mgmt.o)
                0x00003bbc                mint_buf_mgmt_stack_pop

i.mint_buf_mgmt_stack_push
                0x00003bf2       0x36
 i.mint_buf_mgmt_stack_push
                0x00003bf2       0x36 C:\9047software\PSoC Creator\3.3\PSoC Creator\psoc\content\cycomponentlibrary\CyComponentLibrary.cylib\BLE_v2_0\Library\gccCyBLEStack_BLE_SOC_PERIPHERAL.a(mint_buf_mgmt.o)
                0x00003bf2                mint_buf_mgmt_stack_push

i.mint_buf_mgmt_stack_reset
                0x00003c28       0x1e
 i.mint_buf_mgmt_stack_reset
                0x00003c28       0x1e C:\9047software\PSoC Creator\3.3\PSoC Creator\psoc\content\cycomponentlibrary\CyComponentLibrary.cylib\BLE_v2_0\Library\gccCyBLEStack_BLE_SOC_PERIPHERAL.a(mint_buf_mgmt.o)
                0x00003c28                mint_buf_mgmt_stack_reset

i.mint_buf_mgmt_stack_search_item
                0x00003c46       0x30
 i.mint_buf_mgmt_stack_search_item
                0x00003c46       0x30 C:\9047software\PSoC Creator\3.3\PSoC Creator\psoc\content\cycomponentlibrary\CyComponentLibrary.cylib\BLE_v2_0\Library\gccCyBLEStack_BLE_SOC_PERIPHERAL.a(mint_buf_mgmt.o)
                0x00003c46                mint_buf_mgmt_stack_search_item

i.CyBleControllerIP_GetPingState
                0x00003c78        0xc
 i.CyBleControllerIP_GetPingState
                0x00003c78        0xc C:\9047software\PSoC Creator\3.3\PSoC Creator\psoc\content\cycomponentlibrary\CyComponentLibrary.cylib\BLE_v2_0\Library\gccCyBLEStack_BLE_SOC_PERIPHERAL.a(CyBleControllerIP_Interface.o)
                0x00003c78                CyBleControllerIP_GetPingState

i.CyBleController_AddDeviceToWhiteList
                0x00003c84       0x40
 i.CyBleController_AddDeviceToWhiteList
                0x00003c84       0x40 C:\9047software\PSoC Creator\3.3\PSoC Creator\psoc\content\cycomponentlibrary\CyComponentLibrary.cylib\BLE_v2_0\Library\gccCyBLEStack_BLE_SOC_PERIPHERAL.a(CyBleControllerIP_Interface.o)
                0x00003c84                CyBleController_AddDeviceToWhiteList

i.CyBleController_EnterLowPowerMode
                0x00003cc4       0x2c
 i.CyBleController_EnterLowPowerMode
                0x00003cc4       0x2c C:\9047software\PSoC Creator\3.3\PSoC Creator\psoc\content\cycomponentlibrary\CyComponentLibrary.cylib\BLE_v2_0\Library\gccCyBLEStack_BLE_SOC_PERIPHERAL.a(CyBleControllerIP_Interface.o)
                0x00003cc4                CyBleController_EnterLowPowerMode

i.CyBleController_ExitLowPowerMode
                0x00003cf0       0x10
 i.CyBleController_ExitLowPowerMode
                0x00003cf0       0x10 C:\9047software\PSoC Creator\3.3\PSoC Creator\psoc\content\cycomponentlibrary\CyComponentLibrary.cylib\BLE_v2_0\Library\gccCyBLEStack_BLE_SOC_PERIPHERAL.a(CyBleControllerIP_Interface.o)
                0x00003cf0                CyBleController_ExitLowPowerMode

i.CyBleController_Init
                0x00003d00       0x32
 i.CyBleController_Init
                0x00003d00       0x32 C:\9047software\PSoC Creator\3.3\PSoC Creator\psoc\content\cycomponentlibrary\CyComponentLibrary.cylib\BLE_v2_0\Library\gccCyBLEStack_BLE_SOC_PERIPHERAL.a(CyBleControllerIP_Interface.o)
                0x00003d00                CyBleController_Init

i.CyBleController_Reset
                0x00003d32        0x4
 i.CyBleController_Reset
                0x00003d32        0x4 C:\9047software\PSoC Creator\3.3\PSoC Creator\psoc\content\cycomponentlibrary\CyComponentLibrary.cylib\BLE_v2_0\Library\gccCyBLEStack_BLE_SOC_PERIPHERAL.a(CyBleControllerIP_Interface.o)
                0x00003d32                CyBleController_Reset

i.CyBleController_SetDeviceAddress
                0x00003d36       0x2e
 i.CyBleController_SetDeviceAddress
                0x00003d36       0x2e C:\9047software\PSoC Creator\3.3\PSoC Creator\psoc\content\cycomponentlibrary\CyComponentLibrary.cylib\BLE_v2_0\Library\gccCyBLEStack_BLE_SOC_PERIPHERAL.a(CyBleControllerIP_Interface.o)
                0x00003d36                CyBleController_SetDeviceAddress

i.CyBle_GetBleSsState
                0x00003d64       0x10
 i.CyBle_GetBleSsState
                0x00003d64       0x10 C:\9047software\PSoC Creator\3.3\PSoC Creator\psoc\content\cycomponentlibrary\CyComponentLibrary.cylib\BLE_v2_0\Library\gccCyBLEStack_BLE_SOC_PERIPHERAL.a(CyBleControllerIP_Interface.o)
                0x00003d64                CyBle_GetBleSsState

i.CyBle_GetTxPowerLevel
                0x00003d74       0x4e
 i.CyBle_GetTxPowerLevel
                0x00003d74       0x4e C:\9047software\PSoC Creator\3.3\PSoC Creator\psoc\content\cycomponentlibrary\CyComponentLibrary.cylib\BLE_v2_0\Library\gccCyBLEStack_BLE_SOC_PERIPHERAL.a(CyBleControllerIP_Interface.o)
                0x00003d74                CyBle_GetTxPowerLevel

i.CyBle_SetTxPowerLevel
                0x00003dc2       0x56
 i.CyBle_SetTxPowerLevel
                0x00003dc2       0x56 C:\9047software\PSoC Creator\3.3\PSoC Creator\psoc\content\cycomponentlibrary\CyComponentLibrary.cylib\BLE_v2_0\Library\gccCyBLEStack_BLE_SOC_PERIPHERAL.a(CyBleControllerIP_Interface.o)
                0x00003dc2                CyBle_SetTxPowerLevel

i.ll_check_and_mark_packet_ready_for_transmission
                0x00003e18       0x28
 i.ll_check_and_mark_packet_ready_for_transmission
                0x00003e18       0x28 C:\9047software\PSoC Creator\3.3\PSoC Creator\psoc\content\cycomponentlibrary\CyComponentLibrary.cylib\BLE_v2_0\Library\gccCyBLEStack_BLE_SOC_PERIPHERAL.a(ll.o)
                0x00003e18                ll_check_and_mark_packet_ready_for_transmission

i.ll_cleanup_pending_data_pdu
                0x00003e40       0x38
 i.ll_cleanup_pending_data_pdu
                0x00003e40       0x38 C:\9047software\PSoC Creator\3.3\PSoC Creator\psoc\content\cycomponentlibrary\CyComponentLibrary.cylib\BLE_v2_0\Library\gccCyBLEStack_BLE_SOC_PERIPHERAL.a(ll.o)
                0x00003e40                ll_cleanup_pending_data_pdu

i.ll_enter_dsm_mode
                0x00003e78      0x1a4
 i.ll_enter_dsm_mode
                0x00003e78      0x1a4 C:\9047software\PSoC Creator\3.3\PSoC Creator\psoc\content\cycomponentlibrary\CyComponentLibrary.cylib\BLE_v2_0\Library\gccCyBLEStack_BLE_SOC_PERIPHERAL.a(ll.o)
                0x00003e78                ll_enter_dsm_mode

i.ll_enter_hibernate_mode
                0x0000401c       0x28
 i.ll_enter_hibernate_mode
                0x0000401c       0x28 C:\9047software\PSoC Creator\3.3\PSoC Creator\psoc\content\cycomponentlibrary\CyComponentLibrary.cylib\BLE_v2_0\Library\gccCyBLEStack_BLE_SOC_PERIPHERAL.a(ll.o)
                0x0000401c                ll_enter_hibernate_mode

i.ll_enter_sm_mode
                0x00004044       0x60
 i.ll_enter_sm_mode
                0x00004044       0x60 C:\9047software\PSoC Creator\3.3\PSoC Creator\psoc\content\cycomponentlibrary\CyComponentLibrary.cylib\BLE_v2_0\Library\gccCyBLEStack_BLE_SOC_PERIPHERAL.a(ll.o)
                0x00004044                ll_enter_sm_mode

i.ll_exit_low_power_mode
                0x000040a4       0xac
 i.ll_exit_low_power_mode
                0x000040a4       0xac C:\9047software\PSoC Creator\3.3\PSoC Creator\psoc\content\cycomponentlibrary\CyComponentLibrary.cylib\BLE_v2_0\Library\gccCyBLEStack_BLE_SOC_PERIPHERAL.a(ll.o)
                0x000040a4                ll_exit_low_power_mode

i.ll_get_ack_status
                0x00004150       0x3c
 i.ll_get_ack_status
                0x00004150       0x3c C:\9047software\PSoC Creator\3.3\PSoC Creator\psoc\content\cycomponentlibrary\CyComponentLibrary.cylib\BLE_v2_0\Library\gccCyBLEStack_BLE_SOC_PERIPHERAL.a(ll.o)
                0x00004150                ll_get_ack_status

i.ll_get_ack_status_for_all_connections
                0x0000418c       0x34
 i.ll_get_ack_status_for_all_connections
                0x0000418c       0x34 C:\9047software\PSoC Creator\3.3\PSoC Creator\psoc\content\cycomponentlibrary\CyComponentLibrary.cylib\BLE_v2_0\Library\gccCyBLEStack_BLE_SOC_PERIPHERAL.a(ll.o)
                0x0000418c                ll_get_ack_status_for_all_connections

i.ll_get_adv_ch_tx_power
                0x000041c0       0x20
 i.ll_get_adv_ch_tx_power
                0x000041c0       0x20 C:\9047software\PSoC Creator\3.3\PSoC Creator\psoc\content\cycomponentlibrary\CyComponentLibrary.cylib\BLE_v2_0\Library\gccCyBLEStack_BLE_SOC_PERIPHERAL.a(ll.o)
                0x000041c0                ll_get_adv_ch_tx_power

i.ll_get_data_channel_map
                0x000041e0       0x24
 i.ll_get_data_channel_map
                0x000041e0       0x24 C:\9047software\PSoC Creator\3.3\PSoC Creator\psoc\content\cycomponentlibrary\CyComponentLibrary.cylib\BLE_v2_0\Library\gccCyBLEStack_BLE_SOC_PERIPHERAL.a(ll.o)
                0x000041e0                ll_get_data_channel_map

i.ll_get_max_white_list_size
                0x00004204        0xc
 i.ll_get_max_white_list_size
                0x00004204        0xc C:\9047software\PSoC Creator\3.3\PSoC Creator\psoc\content\cycomponentlibrary\CyComponentLibrary.cylib\BLE_v2_0\Library\gccCyBLEStack_BLE_SOC_PERIPHERAL.a(ll.o)
                0x00004204                ll_get_max_white_list_size

i.ll_get_my_role
                0x00004210        0xc
 i.ll_get_my_role
                0x00004210        0xc C:\9047software\PSoC Creator\3.3\PSoC Creator\psoc\content\cycomponentlibrary\CyComponentLibrary.cylib\BLE_v2_0\Library\gccCyBLEStack_BLE_SOC_PERIPHERAL.a(ll.o)
                0x00004210                ll_get_my_role

i.ll_get_next_available_fifo_for_data_pdu
                0x0000421c        0x8
 i.ll_get_next_available_fifo_for_data_pdu
                0x0000421c        0x8 C:\9047software\PSoC Creator\3.3\PSoC Creator\psoc\content\cycomponentlibrary\CyComponentLibrary.cylib\BLE_v2_0\Library\gccCyBLEStack_BLE_SOC_PERIPHERAL.a(ll.o)
                0x0000421c                ll_get_next_available_fifo_for_data_pdu

i.ll_get_next_available_fifo_for_ll_pdu
                0x00004224       0x24
 i.ll_get_next_available_fifo_for_ll_pdu
                0x00004224       0x24 C:\9047software\PSoC Creator\3.3\PSoC Creator\psoc\content\cycomponentlibrary\CyComponentLibrary.cylib\BLE_v2_0\Library\gccCyBLEStack_BLE_SOC_PERIPHERAL.a(ll.o)
                0x00004224                ll_get_next_available_fifo_for_ll_pdu

i.ll_get_rssi_value
                0x00004248       0x26
 i.ll_get_rssi_value
                0x00004248       0x26 C:\9047software\PSoC Creator\3.3\PSoC Creator\psoc\content\cycomponentlibrary\CyComponentLibrary.cylib\BLE_v2_0\Library\gccCyBLEStack_BLE_SOC_PERIPHERAL.a(ll.o)
                0x00004248                ll_get_rssi_value

i.ll_get_transmit_power_level
                0x00004270       0x2c
 i.ll_get_transmit_power_level
                0x00004270       0x2c C:\9047software\PSoC Creator\3.3\PSoC Creator\psoc\content\cycomponentlibrary\CyComponentLibrary.cylib\BLE_v2_0\Library\gccCyBLEStack_BLE_SOC_PERIPHERAL.a(ll.o)
                0x00004270                ll_get_transmit_power_level

i.ll_handle_ack_received
                0x0000429c       0x74
 i.ll_handle_ack_received
                0x0000429c       0x74 C:\9047software\PSoC Creator\3.3\PSoC Creator\psoc\content\cycomponentlibrary\CyComponentLibrary.cylib\BLE_v2_0\Library\gccCyBLEStack_BLE_SOC_PERIPHERAL.a(ll.o)
                0x0000429c                ll_handle_ack_received

i.ll_handle_add_device_in_whitelist
                0x00004310       0x3a
 i.ll_handle_add_device_in_whitelist
                0x00004310       0x3a C:\9047software\PSoC Creator\3.3\PSoC Creator\psoc\content\cycomponentlibrary\CyComponentLibrary.cylib\BLE_v2_0\Library\gccCyBLEStack_BLE_SOC_PERIPHERAL.a(ll.o)
                0x00004310                ll_handle_add_device_in_whitelist

i.ll_handle_clear_whitelist
                0x0000434a       0x16
 i.ll_handle_clear_whitelist
                0x0000434a       0x16 C:\9047software\PSoC Creator\3.3\PSoC Creator\psoc\content\cycomponentlibrary\CyComponentLibrary.cylib\BLE_v2_0\Library\gccCyBLEStack_BLE_SOC_PERIPHERAL.a(ll.o)
                0x0000434a                ll_handle_clear_whitelist

i.ll_handle_encrypt_host_data
                0x00004360       0x36
 i.ll_handle_encrypt_host_data
                0x00004360       0x36 C:\9047software\PSoC Creator\3.3\PSoC Creator\psoc\content\cycomponentlibrary\CyComponentLibrary.cylib\BLE_v2_0\Library\gccCyBLEStack_BLE_SOC_PERIPHERAL.a(ll.o)
                0x00004360                ll_handle_encrypt_host_data

i.ll_handle_host_data_packet
                0x00004396       0x54
 i.ll_handle_host_data_packet
                0x00004396       0x54 C:\9047software\PSoC Creator\3.3\PSoC Creator\psoc\content\cycomponentlibrary\CyComponentLibrary.cylib\BLE_v2_0\Library\gccCyBLEStack_BLE_SOC_PERIPHERAL.a(ll.o)
                0x00004396                ll_handle_host_data_packet

i.ll_handle_read_host_channel_map
                0x000043ea        0x4
 i.ll_handle_read_host_channel_map
                0x000043ea        0x4 C:\9047software\PSoC Creator\3.3\PSoC Creator\psoc\content\cycomponentlibrary\CyComponentLibrary.cylib\BLE_v2_0\Library\gccCyBLEStack_BLE_SOC_PERIPHERAL.a(ll.o)
                0x000043ea                ll_handle_read_host_channel_map

i.ll_handle_remove_device_in_whitelist
                0x000043ee       0x2a
 i.ll_handle_remove_device_in_whitelist
                0x000043ee       0x2a C:\9047software\PSoC Creator\3.3\PSoC Creator\psoc\content\cycomponentlibrary\CyComponentLibrary.cylib\BLE_v2_0\Library\gccCyBLEStack_BLE_SOC_PERIPHERAL.a(ll.o)
                0x000043ee                ll_handle_remove_device_in_whitelist

i.ll_handle_reset
                0x00004418        0xe
 i.ll_handle_reset
                0x00004418        0xe C:\9047software\PSoC Creator\3.3\PSoC Creator\psoc\content\cycomponentlibrary\CyComponentLibrary.cylib\BLE_v2_0\Library\gccCyBLEStack_BLE_SOC_PERIPHERAL.a(ll.o)
                0x00004418                ll_handle_reset

i.ll_handle_set_random_address
                0x00004426       0x36
 i.ll_handle_set_random_address
                0x00004426       0x36 C:\9047software\PSoC Creator\3.3\PSoC Creator\psoc\content\cycomponentlibrary\CyComponentLibrary.cylib\BLE_v2_0\Library\gccCyBLEStack_BLE_SOC_PERIPHERAL.a(ll.o)
                0x00004426                ll_handle_set_random_address

i.ll_init       0x0000445c       0x18
 i.ll_init      0x0000445c       0x18 C:\9047software\PSoC Creator\3.3\PSoC Creator\psoc\content\cycomponentlibrary\CyComponentLibrary.cylib\BLE_v2_0\Library\gccCyBLEStack_BLE_SOC_PERIPHERAL.a(ll.o)
                0x0000445c                ll_init

i.ll_initialize_device_attributes
                0x00004474       0x4c
 i.ll_initialize_device_attributes
                0x00004474       0x4c C:\9047software\PSoC Creator\3.3\PSoC Creator\psoc\content\cycomponentlibrary\CyComponentLibrary.cylib\BLE_v2_0\Library\gccCyBLEStack_BLE_SOC_PERIPHERAL.a(ll.o)
                0x00004474                ll_initialize_device_attributes

i.ll_is_pkt_pending
                0x000044c0       0x2a
 i.ll_is_pkt_pending
                0x000044c0       0x2a C:\9047software\PSoC Creator\3.3\PSoC Creator\psoc\content\cycomponentlibrary\CyComponentLibrary.cylib\BLE_v2_0\Library\gccCyBLEStack_BLE_SOC_PERIPHERAL.a(ll.o)
                0x000044c0                ll_is_pkt_pending

i.ll_is_sent_pkt_pending
                0x000044ea       0x1a
 i.ll_is_sent_pkt_pending
                0x000044ea       0x1a C:\9047software\PSoC Creator\3.3\PSoC Creator\psoc\content\cycomponentlibrary\CyComponentLibrary.cylib\BLE_v2_0\Library\gccCyBLEStack_BLE_SOC_PERIPHERAL.a(ll.o)
                0x000044ea                ll_is_sent_pkt_pending

i.ll_isr_exit_low_power_mode
                0x00004504       0x16
 i.ll_isr_exit_low_power_mode
                0x00004504       0x16 C:\9047software\PSoC Creator\3.3\PSoC Creator\psoc\content\cycomponentlibrary\CyComponentLibrary.cylib\BLE_v2_0\Library\gccCyBLEStack_BLE_SOC_PERIPHERAL.a(ll.o)
                0x00004504                ll_isr_exit_low_power_mode

i.ll_load_host_data_packet
                0x0000451a       0x4a
 i.ll_load_host_data_packet
                0x0000451a       0x4a C:\9047software\PSoC Creator\3.3\PSoC Creator\psoc\content\cycomponentlibrary\CyComponentLibrary.cylib\BLE_v2_0\Library\gccCyBLEStack_BLE_SOC_PERIPHERAL.a(ll.o)
                0x0000451a                ll_load_host_data_packet

i.ll_load_packet_to_fifo
                0x00004564       0x6e
 i.ll_load_packet_to_fifo
                0x00004564       0x6e C:\9047software\PSoC Creator\3.3\PSoC Creator\psoc\content\cycomponentlibrary\CyComponentLibrary.cylib\BLE_v2_0\Library\gccCyBLEStack_BLE_SOC_PERIPHERAL.a(ll.o)
                0x00004564                ll_load_packet_to_fifo

i.ll_process_acks
                0x000045d2       0x3c
 i.ll_process_acks
                0x000045d2       0x3c C:\9047software\PSoC Creator\3.3\PSoC Creator\psoc\content\cycomponentlibrary\CyComponentLibrary.cylib\BLE_v2_0\Library\gccCyBLEStack_BLE_SOC_PERIPHERAL.a(ll.o)
                0x000045d2                ll_process_acks

i.ll_reset      0x0000460e       0x12
 i.ll_reset     0x0000460e       0x12 C:\9047software\PSoC Creator\3.3\PSoC Creator\psoc\content\cycomponentlibrary\CyComponentLibrary.cylib\BLE_v2_0\Library\gccCyBLEStack_BLE_SOC_PERIPHERAL.a(ll.o)
                0x0000460e                ll_reset

i.ll_update_active_features
                0x00004620       0x58
 i.ll_update_active_features
                0x00004620       0x58 C:\9047software\PSoC Creator\3.3\PSoC Creator\psoc\content\cycomponentlibrary\CyComponentLibrary.cylib\BLE_v2_0\Library\gccCyBLEStack_BLE_SOC_PERIPHERAL.a(ll.o)
                0x00004620                ll_update_active_features

i.ll_update_device_fsm
                0x00004678        0x8
 i.ll_update_device_fsm
                0x00004678        0x8 C:\9047software\PSoC Creator\3.3\PSoC Creator\psoc\content\cycomponentlibrary\CyComponentLibrary.cylib\BLE_v2_0\Library\gccCyBLEStack_BLE_SOC_PERIPHERAL.a(ll.o)
                0x00004678                ll_update_device_fsm

i.pf_le_start_timer
                0x00004680       0x16
 i.pf_le_start_timer
                0x00004680       0x16 C:\9047software\PSoC Creator\3.3\PSoC Creator\psoc\content\cycomponentlibrary\CyComponentLibrary.cylib\BLE_v2_0\Library\gccCyBLEStack_BLE_SOC_PERIPHERAL.a(ll.o)
                0x00004680                pf_le_start_timer

i.pf_le_stop_timer
                0x00004696       0x12
 i.pf_le_stop_timer
                0x00004696       0x12 C:\9047software\PSoC Creator\3.3\PSoC Creator\psoc\content\cycomponentlibrary\CyComponentLibrary.cylib\BLE_v2_0\Library\gccCyBLEStack_BLE_SOC_PERIPHERAL.a(ll.o)
                0x00004696                pf_le_stop_timer

i.CyBleControllerIP_TuneAdvEventInterPktSlots
                0x000046a8       0x44
 i.CyBleControllerIP_TuneAdvEventInterPktSlots
                0x000046a8       0x44 C:\9047software\PSoC Creator\3.3\PSoC Creator\psoc\content\cycomponentlibrary\CyComponentLibrary.cylib\BLE_v2_0\Library\gccCyBLEStack_BLE_SOC_PERIPHERAL.a(ll_advertiser.o)
                0x000046a8                CyBleControllerIP_TuneAdvEventInterPktSlots

i.ll_adv_is_configured_connection_adv
                0x000046ec       0x1e
 i.ll_adv_is_configured_connection_adv
                0x000046ec       0x1e C:\9047software\PSoC Creator\3.3\PSoC Creator\psoc\content\cycomponentlibrary\CyComponentLibrary.cylib\BLE_v2_0\Library\gccCyBLEStack_BLE_SOC_PERIPHERAL.a(ll_advertiser.o)
                0x000046ec                ll_adv_is_configured_connection_adv

i.ll_check_random_address_in_use_by_advertiser
                0x0000470a       0x10
 i.ll_check_random_address_in_use_by_advertiser
                0x0000470a       0x10 C:\9047software\PSoC Creator\3.3\PSoC Creator\psoc\content\cycomponentlibrary\CyComponentLibrary.cylib\BLE_v2_0\Library\gccCyBLEStack_BLE_SOC_PERIPHERAL.a(ll_advertiser.o)
                0x0000470a                ll_check_random_address_in_use_by_advertiser

i.ll_check_whitelist_in_use_by_advertiser
                0x0000471a       0x10
 i.ll_check_whitelist_in_use_by_advertiser
                0x0000471a       0x10 C:\9047software\PSoC Creator\3.3\PSoC Creator\psoc\content\cycomponentlibrary\CyComponentLibrary.cylib\BLE_v2_0\Library\gccCyBLEStack_BLE_SOC_PERIPHERAL.a(ll_advertiser.o)
                0x0000471a                ll_check_whitelist_in_use_by_advertiser

i.ll_get_adv_status
                0x0000472a        0xc
 i.ll_get_adv_status
                0x0000472a        0xc C:\9047software\PSoC Creator\3.3\PSoC Creator\psoc\content\cycomponentlibrary\CyComponentLibrary.cylib\BLE_v2_0\Library\gccCyBLEStack_BLE_SOC_PERIPHERAL.a(ll_advertiser.o)
                0x0000472a                ll_get_adv_status

i.ll_get_adv_type
                0x00004736       0x16
 i.ll_get_adv_type
                0x00004736       0x16 C:\9047software\PSoC Creator\3.3\PSoC Creator\psoc\content\cycomponentlibrary\CyComponentLibrary.cylib\BLE_v2_0\Library\gccCyBLEStack_BLE_SOC_PERIPHERAL.a(ll_advertiser.o)
                0x00004736                ll_get_adv_type

i.ll_handle_adv_intr
                0x0000474c       0x50
 i.ll_handle_adv_intr
                0x0000474c       0x50 C:\9047software\PSoC Creator\3.3\PSoC Creator\psoc\content\cycomponentlibrary\CyComponentLibrary.cylib\BLE_v2_0\Library\gccCyBLEStack_BLE_SOC_PERIPHERAL.a(ll_advertiser.o)
                0x0000474c                ll_handle_adv_intr

i.ll_handle_set_adv_data
                0x0000479c       0x14
 i.ll_handle_set_adv_data
                0x0000479c       0x14 C:\9047software\PSoC Creator\3.3\PSoC Creator\psoc\content\cycomponentlibrary\CyComponentLibrary.cylib\BLE_v2_0\Library\gccCyBLEStack_BLE_SOC_PERIPHERAL.a(ll_advertiser.o)
                0x0000479c                ll_handle_set_adv_data

i.ll_handle_set_adv_parameters
                0x000047b0       0x84
 i.ll_handle_set_adv_parameters
                0x000047b0       0x84 C:\9047software\PSoC Creator\3.3\PSoC Creator\psoc\content\cycomponentlibrary\CyComponentLibrary.cylib\BLE_v2_0\Library\gccCyBLEStack_BLE_SOC_PERIPHERAL.a(ll_advertiser.o)
                0x000047b0                ll_handle_set_adv_parameters

i.ll_handle_set_advertise_enable
                0x00004834       0x70
 i.ll_handle_set_advertise_enable
                0x00004834       0x70 C:\9047software\PSoC Creator\3.3\PSoC Creator\psoc\content\cycomponentlibrary\CyComponentLibrary.cylib\BLE_v2_0\Library\gccCyBLEStack_BLE_SOC_PERIPHERAL.a(ll_advertiser.o)
                0x00004834                ll_handle_set_advertise_enable

i.ll_handle_set_scan_resp_data
                0x000048a4       0x14
 i.ll_handle_set_scan_resp_data
                0x000048a4       0x14 C:\9047software\PSoC Creator\3.3\PSoC Creator\psoc\content\cycomponentlibrary\CyComponentLibrary.cylib\BLE_v2_0\Library\gccCyBLEStack_BLE_SOC_PERIPHERAL.a(ll_advertiser.o)
                0x000048a4                ll_handle_set_scan_resp_data

i.ll_init_advertiser
                0x000048b8       0x68
 i.ll_init_advertiser
                0x000048b8       0x68 C:\9047software\PSoC Creator\3.3\PSoC Creator\psoc\content\cycomponentlibrary\CyComponentLibrary.cylib\BLE_v2_0\Library\gccCyBLEStack_BLE_SOC_PERIPHERAL.a(ll_advertiser.o)
                0x000048b8                ll_init_advertiser

i.is_le_connection_handle
                0x00004920       0x28
 i.is_le_connection_handle
                0x00004920       0x28 C:\9047software\PSoC Creator\3.3\PSoC Creator\psoc\content\cycomponentlibrary\CyComponentLibrary.cylib\BLE_v2_0\Library\gccCyBLEStack_BLE_SOC_PERIPHERAL.a(ll_connection.o)
                0x00004920                is_le_connection_handle

i.le_assign_connection_handle
                0x00004948       0x28
 i.le_assign_connection_handle
                0x00004948       0x28 C:\9047software\PSoC Creator\3.3\PSoC Creator\psoc\content\cycomponentlibrary\CyComponentLibrary.cylib\BLE_v2_0\Library\gccCyBLEStack_BLE_SOC_PERIPHERAL.a(ll_connection.o)
                0x00004948                le_assign_connection_handle

i.le_get_connection_index
                0x00004970        0x6
 i.le_get_connection_index
                0x00004970        0x6 C:\9047software\PSoC Creator\3.3\PSoC Creator\psoc\content\cycomponentlibrary\CyComponentLibrary.cylib\BLE_v2_0\Library\gccCyBLEStack_BLE_SOC_PERIPHERAL.a(ll_connection.o)
                0x00004970                le_get_connection_index

i.ll_allocate_connection
                0x00004978       0x44
 i.ll_allocate_connection
                0x00004978       0x44 C:\9047software\PSoC Creator\3.3\PSoC Creator\psoc\content\cycomponentlibrary\CyComponentLibrary.cylib\BLE_v2_0\Library\gccCyBLEStack_BLE_SOC_PERIPHERAL.a(ll_connection.o)
                0x00004978                ll_allocate_connection

i.ll_calculate_and_program_def_win_widen_drift
                0x000049bc       0x14
 i.ll_calculate_and_program_def_win_widen_drift
                0x000049bc       0x14 C:\9047software\PSoC Creator\3.3\PSoC Creator\psoc\content\cycomponentlibrary\CyComponentLibrary.cylib\BLE_v2_0\Library\gccCyBLEStack_BLE_SOC_PERIPHERAL.a(ll_connection.o)
                0x000049bc                ll_calculate_and_program_def_win_widen_drift

i.ll_calculate_drift
                0x000049d0       0x2c
 i.ll_calculate_drift
                0x000049d0       0x2c C:\9047software\PSoC Creator\3.3\PSoC Creator\psoc\content\cycomponentlibrary\CyComponentLibrary.cylib\BLE_v2_0\Library\gccCyBLEStack_BLE_SOC_PERIPHERAL.a(ll_connection.o)
                0x000049d0                ll_calculate_drift

i.ll_check_and_decrypt_ll_pdu
                0x000049fc       0x68
 i.ll_check_and_decrypt_ll_pdu
                0x000049fc       0x68 C:\9047software\PSoC Creator\3.3\PSoC Creator\psoc\content\cycomponentlibrary\CyComponentLibrary.cylib\BLE_v2_0\Library\gccCyBLEStack_BLE_SOC_PERIPHERAL.a(ll_connection.o)
                0x000049fc                ll_check_and_decrypt_ll_pdu

i.ll_check_and_decrypt_packet
                0x00004a64       0x6a
 i.ll_check_and_decrypt_packet
                0x00004a64       0x6a C:\9047software\PSoC Creator\3.3\PSoC Creator\psoc\content\cycomponentlibrary\CyComponentLibrary.cylib\BLE_v2_0\Library\gccCyBLEStack_BLE_SOC_PERIPHERAL.a(ll_connection.o)
                0x00004a64                ll_check_and_decrypt_packet

i.ll_check_and_encrypt_ll_pdu
                0x00004ace       0x72
 i.ll_check_and_encrypt_ll_pdu
                0x00004ace       0x72 C:\9047software\PSoC Creator\3.3\PSoC Creator\psoc\content\cycomponentlibrary\CyComponentLibrary.cylib\BLE_v2_0\Library\gccCyBLEStack_BLE_SOC_PERIPHERAL.a(ll_connection.o)
                0x00004ace                ll_check_and_encrypt_ll_pdu

i.ll_check_and_encrypt_packet
                0x00004b40       0x8a
 i.ll_check_and_encrypt_packet
                0x00004b40       0x8a C:\9047software\PSoC Creator\3.3\PSoC Creator\psoc\content\cycomponentlibrary\CyComponentLibrary.cylib\BLE_v2_0\Library\gccCyBLEStack_BLE_SOC_PERIPHERAL.a(ll_connection.o)
                0x00004b40                ll_check_and_encrypt_packet

i.ll_check_for_allowing_incoming_connection_update
                0x00004bca       0x42
 i.ll_check_for_allowing_incoming_connection_update
                0x00004bca       0x42 C:\9047software\PSoC Creator\3.3\PSoC Creator\psoc\content\cycomponentlibrary\CyComponentLibrary.cylib\BLE_v2_0\Library\gccCyBLEStack_BLE_SOC_PERIPHERAL.a(ll_connection.o)
                0x00004bca                ll_check_for_allowing_incoming_connection_update

i.ll_check_if_pdu_is_loaded_to_hardware
                0x00004c0c       0x1c
 i.ll_check_if_pdu_is_loaded_to_hardware
                0x00004c0c       0x1c C:\9047software\PSoC Creator\3.3\PSoC Creator\psoc\content\cycomponentlibrary\CyComponentLibrary.cylib\BLE_v2_0\Library\gccCyBLEStack_BLE_SOC_PERIPHERAL.a(ll_connection.o)
                0x00004c0c                ll_check_if_pdu_is_loaded_to_hardware

i.ll_check_random_address_in_use_by_initiator
                0x00004c28       0x30
 i.ll_check_random_address_in_use_by_initiator
                0x00004c28       0x30 C:\9047software\PSoC Creator\3.3\PSoC Creator\psoc\content\cycomponentlibrary\CyComponentLibrary.cylib\BLE_v2_0\Library\gccCyBLEStack_BLE_SOC_PERIPHERAL.a(ll_connection.o)
                0x00004c28                ll_check_random_address_in_use_by_initiator

i.ll_check_white_list_in_use_by_initiator
                0x00004c58       0x30
 i.ll_check_white_list_in_use_by_initiator
                0x00004c58       0x30 C:\9047software\PSoC Creator\3.3\PSoC Creator\psoc\content\cycomponentlibrary\CyComponentLibrary.cylib\BLE_v2_0\Library\gccCyBLEStack_BLE_SOC_PERIPHERAL.a(ll_connection.o)
                0x00004c58                ll_check_white_list_in_use_by_initiator

i.ll_conn_free_enc_txn_buffer
                0x00004c88       0x16
 i.ll_conn_free_enc_txn_buffer
                0x00004c88       0x16 C:\9047software\PSoC Creator\3.3\PSoC Creator\psoc\content\cycomponentlibrary\CyComponentLibrary.cylib\BLE_v2_0\Library\gccCyBLEStack_BLE_SOC_PERIPHERAL.a(ll_connection.o)
                0x00004c88                ll_conn_free_enc_txn_buffer

i.ll_conn_fsm_update_channel_state
                0x00004c9e        0x6
 i.ll_conn_fsm_update_channel_state
                0x00004c9e        0x6 C:\9047software\PSoC Creator\3.3\PSoC Creator\psoc\content\cycomponentlibrary\CyComponentLibrary.cylib\BLE_v2_0\Library\gccCyBLEStack_BLE_SOC_PERIPHERAL.a(ll_connection.o)
                0x00004c9e                ll_conn_fsm_update_channel_state

i.ll_conn_fsm_update_conn_update_state
                0x00004ca4        0x6
 i.ll_conn_fsm_update_conn_update_state
                0x00004ca4        0x6 C:\9047software\PSoC Creator\3.3\PSoC Creator\psoc\content\cycomponentlibrary\CyComponentLibrary.cylib\BLE_v2_0\Library\gccCyBLEStack_BLE_SOC_PERIPHERAL.a(ll_connection.o)
                0x00004ca4                ll_conn_fsm_update_conn_update_state

i.ll_conn_fsm_update_enc_state
                0x00004caa        0x6
 i.ll_conn_fsm_update_enc_state
                0x00004caa        0x6 C:\9047software\PSoC Creator\3.3\PSoC Creator\psoc\content\cycomponentlibrary\CyComponentLibrary.cylib\BLE_v2_0\Library\gccCyBLEStack_BLE_SOC_PERIPHERAL.a(ll_connection.o)
                0x00004caa                ll_conn_fsm_update_enc_state

i.ll_conn_fsm_update_state
                0x00004cb0        0x4
 i.ll_conn_fsm_update_state
                0x00004cb0        0x4 C:\9047software\PSoC Creator\3.3\PSoC Creator\psoc\content\cycomponentlibrary\CyComponentLibrary.cylib\BLE_v2_0\Library\gccCyBLEStack_BLE_SOC_PERIPHERAL.a(ll_connection.o)
                0x00004cb0                ll_conn_fsm_update_state

i.ll_conn_handle_data_pdu_from_host_when_data_paused
                0x00004cb4        0x8
 i.ll_conn_handle_data_pdu_from_host_when_data_paused
                0x00004cb4        0x8 C:\9047software\PSoC Creator\3.3\PSoC Creator\psoc\content\cycomponentlibrary\CyComponentLibrary.cylib\BLE_v2_0\Library\gccCyBLEStack_BLE_SOC_PERIPHERAL.a(ll_connection.o)
                0x00004cb4                ll_conn_handle_data_pdu_from_host_when_data_paused

i.ll_conn_handle_direct_adv_timeout
                0x00004cbc       0x2a
 i.ll_conn_handle_direct_adv_timeout
                0x00004cbc       0x2a C:\9047software\PSoC Creator\3.3\PSoC Creator\psoc\content\cycomponentlibrary\CyComponentLibrary.cylib\BLE_v2_0\Library\gccCyBLEStack_BLE_SOC_PERIPHERAL.a(ll_connection.o)
                0x00004cbc                ll_conn_handle_direct_adv_timeout

i.ll_conn_handle_ping_timer_expired_interrupt
                0x00004ce8       0x1c
 i.ll_conn_handle_ping_timer_expired_interrupt
                0x00004ce8       0x1c C:\9047software\PSoC Creator\3.3\PSoC Creator\psoc\content\cycomponentlibrary\CyComponentLibrary.cylib\BLE_v2_0\Library\gccCyBLEStack_BLE_SOC_PERIPHERAL.a(ll_connection.o)
                0x00004ce8                ll_conn_handle_ping_timer_expired_interrupt

i.ll_conn_handle_ping_timer_nearly_expired_interrupt
                0x00004d04       0x20
 i.ll_conn_handle_ping_timer_nearly_expired_interrupt
                0x00004d04       0x20 C:\9047software\PSoC Creator\3.3\PSoC Creator\psoc\content\cycomponentlibrary\CyComponentLibrary.cylib\BLE_v2_0\Library\gccCyBLEStack_BLE_SOC_PERIPHERAL.a(ll_connection.o)
                0x00004d04                ll_conn_handle_ping_timer_nearly_expired_interrupt

i.ll_conn_handle_stop_connectable_adv
                0x00004d24       0x12
 i.ll_conn_handle_stop_connectable_adv
                0x00004d24       0x12 C:\9047software\PSoC Creator\3.3\PSoC Creator\psoc\content\cycomponentlibrary\CyComponentLibrary.cylib\BLE_v2_0\Library\gccCyBLEStack_BLE_SOC_PERIPHERAL.a(ll_connection.o)
                0x00004d24                ll_conn_handle_stop_connectable_adv

i.ll_conn_process_pending_transactions
                0x00004d36        0x4
 i.ll_conn_process_pending_transactions
                0x00004d36        0x4 C:\9047software\PSoC Creator\3.3\PSoC Creator\psoc\content\cycomponentlibrary\CyComponentLibrary.cylib\BLE_v2_0\Library\gccCyBLEStack_BLE_SOC_PERIPHERAL.a(ll_connection.o)
                0x00004d36                ll_conn_process_pending_transactions

i.ll_conn_program_authenticated_payload_timer
                0x00004d3c       0x50
 i.ll_conn_program_authenticated_payload_timer
                0x00004d3c       0x50 C:\9047software\PSoC Creator\3.3\PSoC Creator\psoc\content\cycomponentlibrary\CyComponentLibrary.cylib\BLE_v2_0\Library\gccCyBLEStack_BLE_SOC_PERIPHERAL.a(ll_connection.o)
                0x00004d3c                ll_conn_program_authenticated_payload_timer

i.ll_conn_read_data_pdu_from_hardware
                0x00004d8c       0x14
 i.ll_conn_read_data_pdu_from_hardware
                0x00004d8c       0x14 C:\9047software\PSoC Creator\3.3\PSoC Creator\psoc\content\cycomponentlibrary\CyComponentLibrary.cylib\BLE_v2_0\Library\gccCyBLEStack_BLE_SOC_PERIPHERAL.a(ll_connection.o)
                0x00004d8c                ll_conn_read_data_pdu_from_hardware

i.ll_conn_send_ping_req_pdu
                0x00004da0       0x40
 i.ll_conn_send_ping_req_pdu
                0x00004da0       0x40 C:\9047software\PSoC Creator\3.3\PSoC Creator\psoc\content\cycomponentlibrary\CyComponentLibrary.cylib\BLE_v2_0\Library\gccCyBLEStack_BLE_SOC_PERIPHERAL.a(ll_connection.o)
                0x00004da0                ll_conn_send_ping_req_pdu

i.ll_conn_store_pending_tx_pdu
                0x00004de0       0x1a
 i.ll_conn_store_pending_tx_pdu
                0x00004de0       0x1a C:\9047software\PSoC Creator\3.3\PSoC Creator\psoc\content\cycomponentlibrary\CyComponentLibrary.cylib\BLE_v2_0\Library\gccCyBLEStack_BLE_SOC_PERIPHERAL.a(ll_connection.o)
                0x00004de0                ll_conn_store_pending_tx_pdu

i.ll_conn_update_rssi
                0x00004dfa       0x16
 i.ll_conn_update_rssi
                0x00004dfa       0x16 C:\9047software\PSoC Creator\3.3\PSoC Creator\psoc\content\cycomponentlibrary\CyComponentLibrary.cylib\BLE_v2_0\Library\gccCyBLEStack_BLE_SOC_PERIPHERAL.a(ll_connection.o)
                0x00004dfa                ll_conn_update_rssi

i.ll_convert_hci_llid_to_ll_llid_host_to_controller
                0x00004e10        0x8
 i.ll_convert_hci_llid_to_ll_llid_host_to_controller
                0x00004e10        0x8 C:\9047software\PSoC Creator\3.3\PSoC Creator\psoc\content\cycomponentlibrary\CyComponentLibrary.cylib\BLE_v2_0\Library\gccCyBLEStack_BLE_SOC_PERIPHERAL.a(ll_connection.o)
                0x00004e10                ll_convert_hci_llid_to_ll_llid_host_to_controller

i.ll_convert_ll_llid_to_hci_llid_controller_to_host
                0x00004e18        0x2
 i.ll_convert_ll_llid_to_hci_llid_controller_to_host
                0x00004e18        0x2 C:\9047software\PSoC Creator\3.3\PSoC Creator\psoc\content\cycomponentlibrary\CyComponentLibrary.cylib\BLE_v2_0\Library\gccCyBLEStack_BLE_SOC_PERIPHERAL.a(ll_connection.o)
                0x00004e18                ll_convert_ll_llid_to_hci_llid_controller_to_host

i.ll_decode_and_program_connect_req
                0x00004e1c       0xec
 i.ll_decode_and_program_connect_req
                0x00004e1c       0xec C:\9047software\PSoC Creator\3.3\PSoC Creator\psoc\content\cycomponentlibrary\CyComponentLibrary.cylib\BLE_v2_0\Library\gccCyBLEStack_BLE_SOC_PERIPHERAL.a(ll_connection.o)
                0x00004e1c                ll_decode_and_program_connect_req

i.ll_enc_fsm_derive_session_key
                0x00004f08       0x46
 i.ll_enc_fsm_derive_session_key
                0x00004f08       0x46 C:\9047software\PSoC Creator\3.3\PSoC Creator\psoc\content\cycomponentlibrary\CyComponentLibrary.cylib\BLE_v2_0\Library\gccCyBLEStack_BLE_SOC_PERIPHERAL.a(ll_connection.o)
                0x00004f08                ll_enc_fsm_derive_session_key

i.ll_enc_handle_enc_complete
                0x00004f4e       0x68
 i.ll_enc_handle_enc_complete
                0x00004f4e       0x68 C:\9047software\PSoC Creator\3.3\PSoC Creator\psoc\content\cycomponentlibrary\CyComponentLibrary.cylib\BLE_v2_0\Library\gccCyBLEStack_BLE_SOC_PERIPHERAL.a(ll_connection.o)
                0x00004f4e                ll_enc_handle_enc_complete

i.ll_enc_handle_enc_failure
                0x00004fb8       0xa4
 i.ll_enc_handle_enc_failure
                0x00004fb8       0xa4 C:\9047software\PSoC Creator\3.3\PSoC Creator\psoc\content\cycomponentlibrary\CyComponentLibrary.cylib\BLE_v2_0\Library\gccCyBLEStack_BLE_SOC_PERIPHERAL.a(ll_connection.o)
                0x00004fb8                ll_enc_handle_enc_failure

i.ll_enc_handle_ll_reject_pdu_cb
                0x0000505c       0x24
 i.ll_enc_handle_ll_reject_pdu_cb
                0x0000505c       0x24 C:\9047software\PSoC Creator\3.3\PSoC Creator\psoc\content\cycomponentlibrary\CyComponentLibrary.cylib\BLE_v2_0\Library\gccCyBLEStack_BLE_SOC_PERIPHERAL.a(ll_connection.o)
                0x0000505c                ll_enc_handle_ll_reject_pdu_cb

i.ll_enc_handle_ll_terminate_pdu
                0x00005080       0x16
 i.ll_enc_handle_ll_terminate_pdu
                0x00005080       0x16 C:\9047software\PSoC Creator\3.3\PSoC Creator\psoc\content\cycomponentlibrary\CyComponentLibrary.cylib\BLE_v2_0\Library\gccCyBLEStack_BLE_SOC_PERIPHERAL.a(ll_connection.o)
                0x00005080                ll_enc_handle_ll_terminate_pdu

i.ll_enc_handle_ll_unknown_resp_pdu_cb
                0x00005096       0x24
 i.ll_enc_handle_ll_unknown_resp_pdu_cb
                0x00005096       0x24 C:\9047software\PSoC Creator\3.3\PSoC Creator\psoc\content\cycomponentlibrary\CyComponentLibrary.cylib\BLE_v2_0\Library\gccCyBLEStack_BLE_SOC_PERIPHERAL.a(ll_connection.o)
                0x00005096                ll_enc_handle_ll_unknown_resp_pdu_cb

i.ll_enc_handle_slave_await_to_start_cb
                0x000050bc       0x80
 i.ll_enc_handle_slave_await_to_start_cb
                0x000050bc       0x80 C:\9047software\PSoC Creator\3.3\PSoC Creator\psoc\content\cycomponentlibrary\CyComponentLibrary.cylib\BLE_v2_0\Library\gccCyBLEStack_BLE_SOC_PERIPHERAL.a(ll_connection.o)
                0x000050bc                ll_enc_handle_slave_await_to_start_cb

i.ll_enc_handle_slave_enc_resp_ack_cb
                0x0000513c       0x28
 i.ll_enc_handle_slave_enc_resp_ack_cb
                0x0000513c       0x28 C:\9047software\PSoC Creator\3.3\PSoC Creator\psoc\content\cycomponentlibrary\CyComponentLibrary.cylib\BLE_v2_0\Library\gccCyBLEStack_BLE_SOC_PERIPHERAL.a(ll_connection.o)
                0x0000513c                ll_enc_handle_slave_enc_resp_ack_cb

i.ll_enc_handle_slave_ltk_neg_reply_cb
                0x00005164       0x60
 i.ll_enc_handle_slave_ltk_neg_reply_cb
                0x00005164       0x60 C:\9047software\PSoC Creator\3.3\PSoC Creator\psoc\content\cycomponentlibrary\CyComponentLibrary.cylib\BLE_v2_0\Library\gccCyBLEStack_BLE_SOC_PERIPHERAL.a(ll_connection.o)
                0x00005164                ll_enc_handle_slave_ltk_neg_reply_cb

i.ll_enc_handle_slave_pause_enc_req_cb
                0x000051c4       0x46
 i.ll_enc_handle_slave_pause_enc_req_cb
                0x000051c4       0x46 C:\9047software\PSoC Creator\3.3\PSoC Creator\psoc\content\cycomponentlibrary\CyComponentLibrary.cylib\BLE_v2_0\Library\gccCyBLEStack_BLE_SOC_PERIPHERAL.a(ll_connection.o)
                0x000051c4                ll_enc_handle_slave_pause_enc_req_cb

i.ll_enc_handle_slave_pause_enc_resp_cb
                0x0000520a       0x10
 i.ll_enc_handle_slave_pause_enc_resp_cb
                0x0000520a       0x10 C:\9047software\PSoC Creator\3.3\PSoC Creator\psoc\content\cycomponentlibrary\CyComponentLibrary.cylib\BLE_v2_0\Library\gccCyBLEStack_BLE_SOC_PERIPHERAL.a(ll_connection.o)
                0x0000520a                ll_enc_handle_slave_pause_enc_resp_cb

i.ll_enc_handle_slave_reject_ind_ack_cb
                0x0000521a       0x22
 i.ll_enc_handle_slave_reject_ind_ack_cb
                0x0000521a       0x22 C:\9047software\PSoC Creator\3.3\PSoC Creator\psoc\content\cycomponentlibrary\CyComponentLibrary.cylib\BLE_v2_0\Library\gccCyBLEStack_BLE_SOC_PERIPHERAL.a(ll_connection.o)
                0x0000521a                ll_enc_handle_slave_reject_ind_ack_cb

i.ll_enc_handle_slave_start_enc_resp_ack_cb
                0x0000523c        0x8
 i.ll_enc_handle_slave_start_enc_resp_ack_cb
                0x0000523c        0x8 C:\9047software\PSoC Creator\3.3\PSoC Creator\psoc\content\cycomponentlibrary\CyComponentLibrary.cylib\BLE_v2_0\Library\gccCyBLEStack_BLE_SOC_PERIPHERAL.a(ll_connection.o)
                0x0000523c                ll_enc_handle_slave_start_enc_resp_ack_cb

i.ll_enc_handle_slave_start_enc_resp_cb
                0x00005244       0x34
 i.ll_enc_handle_slave_start_enc_resp_cb
                0x00005244       0x34 C:\9047software\PSoC Creator\3.3\PSoC Creator\psoc\content\cycomponentlibrary\CyComponentLibrary.cylib\BLE_v2_0\Library\gccCyBLEStack_BLE_SOC_PERIPHERAL.a(ll_connection.o)
                0x00005244                ll_enc_handle_slave_start_enc_resp_cb

i.ll_enc_send_start_encryption_request
                0x00005278       0x38
 i.ll_enc_send_start_encryption_request
                0x00005278       0x38 C:\9047software\PSoC Creator\3.3\PSoC Creator\psoc\content\cycomponentlibrary\CyComponentLibrary.cylib\BLE_v2_0\Library\gccCyBLEStack_BLE_SOC_PERIPHERAL.a(ll_connection.o)
                0x00005278                ll_enc_send_start_encryption_request

i.ll_extract_pdu_opcode
                0x000052b0        0x4
 i.ll_extract_pdu_opcode
                0x000052b0        0x4 C:\9047software\PSoC Creator\3.3\PSoC Creator\psoc\content\cycomponentlibrary\CyComponentLibrary.cylib\BLE_v2_0\Library\gccCyBLEStack_BLE_SOC_PERIPHERAL.a(ll_connection.o)
                0x000052b0                ll_extract_pdu_opcode

i.ll_fsm_handle_conn_established_ind
                0x000052b4       0x7c
 i.ll_fsm_handle_conn_established_ind
                0x000052b4       0x7c C:\9047software\PSoC Creator\3.3\PSoC Creator\psoc\content\cycomponentlibrary\CyComponentLibrary.cylib\BLE_v2_0\Library\gccCyBLEStack_BLE_SOC_PERIPHERAL.a(ll_connection.o)
                0x000052b4                ll_fsm_handle_conn_established_ind

i.ll_fsm_handle_conn_failure_ind
                0x00005330        0xc
 i.ll_fsm_handle_conn_failure_ind
                0x00005330        0xc C:\9047software\PSoC Creator\3.3\PSoC Creator\psoc\content\cycomponentlibrary\CyComponentLibrary.cylib\BLE_v2_0\Library\gccCyBLEStack_BLE_SOC_PERIPHERAL.a(ll_connection.o)
                0x00005330                ll_fsm_handle_conn_failure_ind

i.ll_fsm_handle_disconnecting_state
                0x0000533c       0x16
 i.ll_fsm_handle_disconnecting_state
                0x0000533c       0x16 C:\9047software\PSoC Creator\3.3\PSoC Creator\psoc\content\cycomponentlibrary\CyComponentLibrary.cylib\BLE_v2_0\Library\gccCyBLEStack_BLE_SOC_PERIPHERAL.a(ll_connection.o)
                0x0000533c                ll_fsm_handle_disconnecting_state

i.ll_fsm_handle_end_of_conn_interval
                0x00005354       0x30
 i.ll_fsm_handle_end_of_conn_interval
                0x00005354       0x30 C:\9047software\PSoC Creator\3.3\PSoC Creator\psoc\content\cycomponentlibrary\CyComponentLibrary.cylib\BLE_v2_0\Library\gccCyBLEStack_BLE_SOC_PERIPHERAL.a(ll_connection.o)
                0x00005354                ll_fsm_handle_end_of_conn_interval

i.ll_fsm_handle_pdu_response_timeout
                0x00005384       0x20
 i.ll_fsm_handle_pdu_response_timeout
                0x00005384       0x20 C:\9047software\PSoC Creator\3.3\PSoC Creator\psoc\content\cycomponentlibrary\CyComponentLibrary.cylib\BLE_v2_0\Library\gccCyBLEStack_BLE_SOC_PERIPHERAL.a(ll_connection.o)
                0x00005384                ll_fsm_handle_pdu_response_timeout

i.ll_fsm_handle_sup_timeout_ind
                0x000053a4       0x22
 i.ll_fsm_handle_sup_timeout_ind
                0x000053a4       0x22 C:\9047software\PSoC Creator\3.3\PSoC Creator\psoc\content\cycomponentlibrary\CyComponentLibrary.cylib\BLE_v2_0\Library\gccCyBLEStack_BLE_SOC_PERIPHERAL.a(ll_connection.o)
                0x000053a4                ll_fsm_handle_sup_timeout_ind

i.ll_fsm_move_to_disconnected_state
                0x000053c6       0x94
 i.ll_fsm_move_to_disconnected_state
                0x000053c6       0x94 C:\9047software\PSoC Creator\3.3\PSoC Creator\psoc\content\cycomponentlibrary\CyComponentLibrary.cylib\BLE_v2_0\Library\gccCyBLEStack_BLE_SOC_PERIPHERAL.a(ll_connection.o)
                0x000053c6                ll_fsm_move_to_disconnected_state

i.ll_generate_connection_complete
                0x0000545a       0x62
 i.ll_generate_connection_complete
                0x0000545a       0x62 C:\9047software\PSoC Creator\3.3\PSoC Creator\psoc\content\cycomponentlibrary\CyComponentLibrary.cylib\BLE_v2_0\Library\gccCyBLEStack_BLE_SOC_PERIPHERAL.a(ll_connection.o)
                0x0000545a                ll_generate_connection_complete

i.ll_generate_disconnection_complete
                0x000054bc        0xe
 i.ll_generate_disconnection_complete
                0x000054bc        0xe C:\9047software\PSoC Creator\3.3\PSoC Creator\psoc\content\cycomponentlibrary\CyComponentLibrary.cylib\BLE_v2_0\Library\gccCyBLEStack_BLE_SOC_PERIPHERAL.a(ll_connection.o)
                0x000054bc                ll_generate_disconnection_complete

i.ll_generate_random_number
                0x000054ca        0x8
 i.ll_generate_random_number
                0x000054ca        0x8 C:\9047software\PSoC Creator\3.3\PSoC Creator\psoc\content\cycomponentlibrary\CyComponentLibrary.cylib\BLE_v2_0\Library\gccCyBLEStack_BLE_SOC_PERIPHERAL.a(ll_connection.o)
                0x000054ca                ll_generate_random_number

i.ll_get_connection_entity
                0x000054d4       0x24
 i.ll_get_connection_entity
                0x000054d4       0x24 C:\9047software\PSoC Creator\3.3\PSoC Creator\psoc\content\cycomponentlibrary\CyComponentLibrary.cylib\BLE_v2_0\Library\gccCyBLEStack_BLE_SOC_PERIPHERAL.a(ll_connection.o)
                0x000054d4                ll_get_connection_entity

i.ll_get_enc_txn_info
                0x000054f8       0x1e
 i.ll_get_enc_txn_info
                0x000054f8       0x1e C:\9047software\PSoC Creator\3.3\PSoC Creator\psoc\content\cycomponentlibrary\CyComponentLibrary.cylib\BLE_v2_0\Library\gccCyBLEStack_BLE_SOC_PERIPHERAL.a(ll_connection.o)
                0x000054f8                ll_get_enc_txn_info

i.ll_get_next_pdu_tx_fifo_index
                0x00005518       0x28
 i.ll_get_next_pdu_tx_fifo_index
                0x00005518       0x28 C:\9047software\PSoC Creator\3.3\PSoC Creator\psoc\content\cycomponentlibrary\CyComponentLibrary.cylib\BLE_v2_0\Library\gccCyBLEStack_BLE_SOC_PERIPHERAL.a(ll_connection.o)
                0x00005518                ll_get_next_pdu_tx_fifo_index

i.ll_handle_ack_for_pause_tx_data
                0x00005540       0x38
 i.ll_handle_ack_for_pause_tx_data
                0x00005540       0x38 C:\9047software\PSoC Creator\3.3\PSoC Creator\psoc\content\cycomponentlibrary\CyComponentLibrary.cylib\BLE_v2_0\Library\gccCyBLEStack_BLE_SOC_PERIPHERAL.a(ll_connection.o)
                0x00005540                ll_handle_ack_for_pause_tx_data

i.ll_handle_acl_tx_complete
                0x00005578       0x44
 i.ll_handle_acl_tx_complete
                0x00005578       0x44 C:\9047software\PSoC Creator\3.3\PSoC Creator\psoc\content\cycomponentlibrary\CyComponentLibrary.cylib\BLE_v2_0\Library\gccCyBLEStack_BLE_SOC_PERIPHERAL.a(ll_connection.o)
                0x00005578                ll_handle_acl_tx_complete

i.ll_handle_conn_created_ind
                0x000055bc        0x2
 i.ll_handle_conn_created_ind
                0x000055bc        0x2 C:\9047software\PSoC Creator\3.3\PSoC Creator\psoc\content\cycomponentlibrary\CyComponentLibrary.cylib\BLE_v2_0\Library\gccCyBLEStack_BLE_SOC_PERIPHERAL.a(ll_connection.o)
                0x000055bc                ll_handle_conn_created_ind

i.ll_handle_conn_established_ind
                0x000055be        0x2
 i.ll_handle_conn_established_ind
                0x000055be        0x2 C:\9047software\PSoC Creator\3.3\PSoC Creator\psoc\content\cycomponentlibrary\CyComponentLibrary.cylib\BLE_v2_0\Library\gccCyBLEStack_BLE_SOC_PERIPHERAL.a(ll_connection.o)
                0x000055be                ll_handle_conn_established_ind

i.ll_handle_conn_failed_indication
                0x000055c0       0x30
 i.ll_handle_conn_failed_indication
                0x000055c0       0x30 C:\9047software\PSoC Creator\3.3\PSoC Creator\psoc\content\cycomponentlibrary\CyComponentLibrary.cylib\BLE_v2_0\Library\gccCyBLEStack_BLE_SOC_PERIPHERAL.a(ll_connection.o)
                0x000055c0                ll_handle_conn_failed_indication

i.ll_handle_conn_interrupt
                0x000055f0       0x94
 i.ll_handle_conn_interrupt
                0x000055f0       0x94 C:\9047software\PSoC Creator\3.3\PSoC Creator\psoc\content\cycomponentlibrary\CyComponentLibrary.cylib\BLE_v2_0\Library\gccCyBLEStack_BLE_SOC_PERIPHERAL.a(ll_connection.o)
                0x000055f0                ll_handle_conn_interrupt

i.ll_handle_conn_update_ind
                0x00005684       0x98
 i.ll_handle_conn_update_ind
                0x00005684       0x98 C:\9047software\PSoC Creator\3.3\PSoC Creator\psoc\content\cycomponentlibrary\CyComponentLibrary.cylib\BLE_v2_0\Library\gccCyBLEStack_BLE_SOC_PERIPHERAL.a(ll_connection.o)
                0x00005684                ll_handle_conn_update_ind

i.ll_handle_data_pdu_ack_received
                0x0000571c       0x54
 i.ll_handle_data_pdu_ack_received
                0x0000571c       0x54 C:\9047software\PSoC Creator\3.3\PSoC Creator\psoc\content\cycomponentlibrary\CyComponentLibrary.cylib\BLE_v2_0\Library\gccCyBLEStack_BLE_SOC_PERIPHERAL.a(ll_connection.o)
                0x0000571c                ll_handle_data_pdu_ack_received

i.ll_handle_disconnect_cmd
                0x00005770       0x54
 i.ll_handle_disconnect_cmd
                0x00005770       0x54 C:\9047software\PSoC Creator\3.3\PSoC Creator\psoc\content\cycomponentlibrary\CyComponentLibrary.cylib\BLE_v2_0\Library\gccCyBLEStack_BLE_SOC_PERIPHERAL.a(ll_connection.o)
                0x00005770                ll_handle_disconnect_cmd

i.ll_handle_incoming_data_packet
                0x000057c4       0x1c
 i.ll_handle_incoming_data_packet
                0x000057c4       0x1c C:\9047software\PSoC Creator\3.3\PSoC Creator\psoc\content\cycomponentlibrary\CyComponentLibrary.cylib\BLE_v2_0\Library\gccCyBLEStack_BLE_SOC_PERIPHERAL.a(ll_connection.o)
                0x000057c4                ll_handle_incoming_data_packet

i.ll_handle_incoming_packet
                0x000057e0       0x6c
 i.ll_handle_incoming_packet
                0x000057e0       0x6c C:\9047software\PSoC Creator\3.3\PSoC Creator\psoc\content\cycomponentlibrary\CyComponentLibrary.cylib\BLE_v2_0\Library\gccCyBLEStack_BLE_SOC_PERIPHERAL.a(ll_connection.o)
                0x000057e0                ll_handle_incoming_packet

i.ll_handle_ltk_negative_reply
                0x0000584c       0x34
 i.ll_handle_ltk_negative_reply
                0x0000584c       0x34 C:\9047software\PSoC Creator\3.3\PSoC Creator\psoc\content\cycomponentlibrary\CyComponentLibrary.cylib\BLE_v2_0\Library\gccCyBLEStack_BLE_SOC_PERIPHERAL.a(ll_connection.o)
                0x0000584c                ll_handle_ltk_negative_reply

i.ll_handle_ltk_req_reply
                0x00005880       0x56
 i.ll_handle_ltk_req_reply
                0x00005880       0x56 C:\9047software\PSoC Creator\3.3\PSoC Creator\psoc\content\cycomponentlibrary\CyComponentLibrary.cylib\BLE_v2_0\Library\gccCyBLEStack_BLE_SOC_PERIPHERAL.a(ll_connection.o)
                0x00005880                ll_handle_ltk_req_reply

i.ll_handle_read_authenticated_payload_timeout_cmd
                0x000058d8       0x44
 i.ll_handle_read_authenticated_payload_timeout_cmd
                0x000058d8       0x44 C:\9047software\PSoC Creator\3.3\PSoC Creator\psoc\content\cycomponentlibrary\CyComponentLibrary.cylib\BLE_v2_0\Library\gccCyBLEStack_BLE_SOC_PERIPHERAL.a(ll_connection.o)
                0x000058d8                ll_handle_read_authenticated_payload_timeout_cmd

i.ll_handle_remote_version_cmd
                0x0000591c       0xb0
 i.ll_handle_remote_version_cmd
                0x0000591c       0xb0 C:\9047software\PSoC Creator\3.3\PSoC Creator\psoc\content\cycomponentlibrary\CyComponentLibrary.cylib\BLE_v2_0\Library\gccCyBLEStack_BLE_SOC_PERIPHERAL.a(ll_connection.o)
                0x0000591c                ll_handle_remote_version_cmd

i.ll_handle_rx_ind
                0x000059cc       0x1e
 i.ll_handle_rx_ind
                0x000059cc       0x1e C:\9047software\PSoC Creator\3.3\PSoC Creator\psoc\content\cycomponentlibrary\CyComponentLibrary.cylib\BLE_v2_0\Library\gccCyBLEStack_BLE_SOC_PERIPHERAL.a(ll_connection.o)
                0x000059cc                ll_handle_rx_ind

i.ll_handle_slave_conn_created_ind
                0x000059ec       0x5c
 i.ll_handle_slave_conn_created_ind
                0x000059ec       0x5c C:\9047software\PSoC Creator\3.3\PSoC Creator\psoc\content\cycomponentlibrary\CyComponentLibrary.cylib\BLE_v2_0\Library\gccCyBLEStack_BLE_SOC_PERIPHERAL.a(ll_connection.o)
                0x000059ec                ll_handle_slave_conn_created_ind

i.ll_handle_update_channel_map_ind
                0x00005a48       0x38
 i.ll_handle_update_channel_map_ind
                0x00005a48       0x38 C:\9047software\PSoC Creator\3.3\PSoC Creator\psoc\content\cycomponentlibrary\CyComponentLibrary.cylib\BLE_v2_0\Library\gccCyBLEStack_BLE_SOC_PERIPHERAL.a(ll_connection.o)
                0x00005a48                ll_handle_update_channel_map_ind

i.ll_handle_write_authenticated_payload_timeout_cmd
                0x00005a80       0x68
 i.ll_handle_write_authenticated_payload_timeout_cmd
                0x00005a80       0x68 C:\9047software\PSoC Creator\3.3\PSoC Creator\psoc\content\cycomponentlibrary\CyComponentLibrary.cylib\BLE_v2_0\Library\gccCyBLEStack_BLE_SOC_PERIPHERAL.a(ll_connection.o)
                0x00005a80                ll_handle_write_authenticated_payload_timeout_cmd

i.ll_increment_rx_packet_counter
                0x00005ae8       0x14
 i.ll_increment_rx_packet_counter
                0x00005ae8       0x14 C:\9047software\PSoC Creator\3.3\PSoC Creator\psoc\content\cycomponentlibrary\CyComponentLibrary.cylib\BLE_v2_0\Library\gccCyBLEStack_BLE_SOC_PERIPHERAL.a(ll_connection.o)
                0x00005ae8                ll_increment_rx_packet_counter

i.ll_increment_tx_packet_counter
                0x00005afc       0x14
 i.ll_increment_tx_packet_counter
                0x00005afc       0x14 C:\9047software\PSoC Creator\3.3\PSoC Creator\psoc\content\cycomponentlibrary\CyComponentLibrary.cylib\BLE_v2_0\Library\gccCyBLEStack_BLE_SOC_PERIPHERAL.a(ll_connection.o)
                0x00005afc                ll_increment_tx_packet_counter

i.ll_init_connection
                0x00005b10       0x60
 i.ll_init_connection
                0x00005b10       0x60 C:\9047software\PSoC Creator\3.3\PSoC Creator\psoc\content\cycomponentlibrary\CyComponentLibrary.cylib\BLE_v2_0\Library\gccCyBLEStack_BLE_SOC_PERIPHERAL.a(ll_connection.o)
                0x00005b10                ll_init_connection

i.ll_init_link_for_encryption
                0x00005b70       0x12
 i.ll_init_link_for_encryption
                0x00005b70       0x12 C:\9047software\PSoC Creator\3.3\PSoC Creator\psoc\content\cycomponentlibrary\CyComponentLibrary.cylib\BLE_v2_0\Library\gccCyBLEStack_BLE_SOC_PERIPHERAL.a(ll_connection.o)
                0x00005b70                ll_init_link_for_encryption

i.ll_is_conn_created
                0x00005b82       0x16
 i.ll_is_conn_created
                0x00005b82       0x16 C:\9047software\PSoC Creator\3.3\PSoC Creator\psoc\content\cycomponentlibrary\CyComponentLibrary.cylib\BLE_v2_0\Library\gccCyBLEStack_BLE_SOC_PERIPHERAL.a(ll_connection.o)
                0x00005b82                ll_is_conn_created

i.ll_is_data_paused
                0x00005b98        0xc
 i.ll_is_data_paused
                0x00005b98        0xc C:\9047software\PSoC Creator\3.3\PSoC Creator\psoc\content\cycomponentlibrary\CyComponentLibrary.cylib\BLE_v2_0\Library\gccCyBLEStack_BLE_SOC_PERIPHERAL.a(ll_connection.o)
                0x00005b98                ll_is_data_paused

i.ll_is_encryption_in_progress
                0x00005ba4       0x1c
 i.ll_is_encryption_in_progress
                0x00005ba4       0x1c C:\9047software\PSoC Creator\3.3\PSoC Creator\psoc\content\cycomponentlibrary\CyComponentLibrary.cylib\BLE_v2_0\Library\gccCyBLEStack_BLE_SOC_PERIPHERAL.a(ll_connection.o)
                0x00005ba4                ll_is_encryption_in_progress

i.ll_is_pending_tx_packets
                0x00005bc0       0x10
 i.ll_is_pending_tx_packets
                0x00005bc0       0x10 C:\9047software\PSoC Creator\3.3\PSoC Creator\psoc\content\cycomponentlibrary\CyComponentLibrary.cylib\BLE_v2_0\Library\gccCyBLEStack_BLE_SOC_PERIPHERAL.a(ll_connection.o)
                0x00005bc0                ll_is_pending_tx_packets

i.ll_packet_rx_callback
                0x00005bd0       0x1a
 i.ll_packet_rx_callback
                0x00005bd0       0x1a C:\9047software\PSoC Creator\3.3\PSoC Creator\psoc\content\cycomponentlibrary\CyComponentLibrary.cylib\BLE_v2_0\Library\gccCyBLEStack_BLE_SOC_PERIPHERAL.a(ll_connection.o)
                0x00005bd0                ll_packet_rx_callback

i.ll_pause_data_tx_fifo_index
                0x00005bec       0x6c
 i.ll_pause_data_tx_fifo_index
                0x00005bec       0x6c C:\9047software\PSoC Creator\3.3\PSoC Creator\psoc\content\cycomponentlibrary\CyComponentLibrary.cylib\BLE_v2_0\Library\gccCyBLEStack_BLE_SOC_PERIPHERAL.a(ll_connection.o)
                0x00005bec                ll_pause_data_tx_fifo_index

i.ll_process_pending_transactions
                0x00005c58        0xe
 i.ll_process_pending_transactions
                0x00005c58        0xe C:\9047software\PSoC Creator\3.3\PSoC Creator\psoc\content\cycomponentlibrary\CyComponentLibrary.cylib\BLE_v2_0\Library\gccCyBLEStack_BLE_SOC_PERIPHERAL.a(ll_connection.o)
                0x00005c58                ll_process_pending_transactions

i.ll_process_rx_packet
                0x00005c68      0x168
 i.ll_process_rx_packet
                0x00005c68      0x168 C:\9047software\PSoC Creator\3.3\PSoC Creator\psoc\content\cycomponentlibrary\CyComponentLibrary.cylib\BLE_v2_0\Library\gccCyBLEStack_BLE_SOC_PERIPHERAL.a(ll_connection.o)
                0x00005c68                ll_process_rx_packet

i.ll_release_conn_direct_index
                0x00005dd0       0x18
 i.ll_release_conn_direct_index
                0x00005dd0       0x18 C:\9047software\PSoC Creator\3.3\PSoC Creator\psoc\content\cycomponentlibrary\CyComponentLibrary.cylib\BLE_v2_0\Library\gccCyBLEStack_BLE_SOC_PERIPHERAL.a(ll_connection.o)
                0x00005dd0                ll_release_conn_direct_index

i.ll_resume_data_tx_fifo_index
                0x00005de8       0x98
 i.ll_resume_data_tx_fifo_index
                0x00005de8       0x98 C:\9047software\PSoC Creator\3.3\PSoC Creator\psoc\content\cycomponentlibrary\CyComponentLibrary.cylib\BLE_v2_0\Library\gccCyBLEStack_BLE_SOC_PERIPHERAL.a(ll_connection.o)
                0x00005de8                ll_resume_data_tx_fifo_index

i.ll_retrieve_conneciton_in_state
                0x00005e80       0x2c
 i.ll_retrieve_conneciton_in_state
                0x00005e80       0x2c C:\9047software\PSoC Creator\3.3\PSoC Creator\psoc\content\cycomponentlibrary\CyComponentLibrary.cylib\BLE_v2_0\Library\gccCyBLEStack_BLE_SOC_PERIPHERAL.a(ll_connection.o)
                0x00005e80                ll_retrieve_conneciton_in_state

i.ll_retrieve_connectable_adv_conneciton
                0x00005eac        0xa
 i.ll_retrieve_connectable_adv_conneciton
                0x00005eac        0xa C:\9047software\PSoC Creator\3.3\PSoC Creator\psoc\content\cycomponentlibrary\CyComponentLibrary.cylib\BLE_v2_0\Library\gccCyBLEStack_BLE_SOC_PERIPHERAL.a(ll_connection.o)
                0x00005eac                ll_retrieve_connectable_adv_conneciton

i.ll_send_ltk_req_event_to_host
                0x00005eb6       0x1e
 i.ll_send_ltk_req_event_to_host
                0x00005eb6       0x1e C:\9047software\PSoC Creator\3.3\PSoC Creator\psoc\content\cycomponentlibrary\CyComponentLibrary.cylib\BLE_v2_0\Library\gccCyBLEStack_BLE_SOC_PERIPHERAL.a(ll_connection.o)
                0x00005eb6                ll_send_ltk_req_event_to_host

i.ll_send_pdu   0x00005ed4       0xd4
 i.ll_send_pdu  0x00005ed4       0xd4 C:\9047software\PSoC Creator\3.3\PSoC Creator\psoc\content\cycomponentlibrary\CyComponentLibrary.cylib\BLE_v2_0\Library\gccCyBLEStack_BLE_SOC_PERIPHERAL.a(ll_connection.o)
                0x00005ed4                ll_send_pdu

i.ll_update_md_bit
                0x00005fa8       0x34
 i.ll_update_md_bit
                0x00005fa8       0x34 C:\9047software\PSoC Creator\3.3\PSoC Creator\psoc\content\cycomponentlibrary\CyComponentLibrary.cylib\BLE_v2_0\Library\gccCyBLEStack_BLE_SOC_PERIPHERAL.a(ll_connection.o)
                0x00005fa8                ll_update_md_bit

i.ll_update_quick_transmit
                0x00005fdc       0x3c
 i.ll_update_quick_transmit
                0x00005fdc       0x3c C:\9047software\PSoC Creator\3.3\PSoC Creator\psoc\content\cycomponentlibrary\CyComponentLibrary.cylib\BLE_v2_0\Library\gccCyBLEStack_BLE_SOC_PERIPHERAL.a(ll_connection.o)
                0x00005fdc                ll_update_quick_transmit

i.ll_clear_interrupt
                0x00006018       0x24
 i.ll_clear_interrupt
                0x00006018       0x24 C:\9047software\PSoC Creator\3.3\PSoC Creator\psoc\content\cycomponentlibrary\CyComponentLibrary.cylib\BLE_v2_0\Library\gccCyBLEStack_BLE_SOC_PERIPHERAL.a(llh_api.o)
                0x00006018                ll_clear_interrupt

i.ll_clear_interrupt_type
                0x0000603c        0xc
 i.ll_clear_interrupt_type
                0x0000603c        0xc C:\9047software\PSoC Creator\3.3\PSoC Creator\psoc\content\cycomponentlibrary\CyComponentLibrary.cylib\BLE_v2_0\Library\gccCyBLEStack_BLE_SOC_PERIPHERAL.a(llh_api.o)
                0x0000603c                ll_clear_interrupt_type

i.ll_disable_interrupt
                0x00006048       0x30
 i.ll_disable_interrupt
                0x00006048       0x30 C:\9047software\PSoC Creator\3.3\PSoC Creator\psoc\content\cycomponentlibrary\CyComponentLibrary.cylib\BLE_v2_0\Library\gccCyBLEStack_BLE_SOC_PERIPHERAL.a(llh_api.o)
                0x00006048                ll_disable_interrupt

i.ll_disable_interrupt_type
                0x00006078       0x20
 i.ll_disable_interrupt_type
                0x00006078       0x20 C:\9047software\PSoC Creator\3.3\PSoC Creator\psoc\content\cycomponentlibrary\CyComponentLibrary.cylib\BLE_v2_0\Library\gccCyBLEStack_BLE_SOC_PERIPHERAL.a(llh_api.o)
                0x00006078                ll_disable_interrupt_type

i.ll_enable_interrupt
                0x00006098       0x38
 i.ll_enable_interrupt
                0x00006098       0x38 C:\9047software\PSoC Creator\3.3\PSoC Creator\psoc\content\cycomponentlibrary\CyComponentLibrary.cylib\BLE_v2_0\Library\gccCyBLEStack_BLE_SOC_PERIPHERAL.a(llh_api.o)
                0x00006098                ll_enable_interrupt

i.ll_enable_interrupt_type
                0x000060d0       0x20
 i.ll_enable_interrupt_type
                0x000060d0       0x20 C:\9047software\PSoC Creator\3.3\PSoC Creator\psoc\content\cycomponentlibrary\CyComponentLibrary.cylib\BLE_v2_0\Library\gccCyBLEStack_BLE_SOC_PERIPHERAL.a(llh_api.o)
                0x000060d0                ll_enable_interrupt_type

i.llh_add_device_in_whitelist
                0x000060f0       0x5e
 i.llh_add_device_in_whitelist
                0x000060f0       0x5e C:\9047software\PSoC Creator\3.3\PSoC Creator\psoc\content\cycomponentlibrary\CyComponentLibrary.cylib\BLE_v2_0\Library\gccCyBLEStack_BLE_SOC_PERIPHERAL.a(llh_api.o)
                0x000060f0                llh_add_device_in_whitelist

i.llh_calculate_instant
                0x0000614e        0x6
 i.llh_calculate_instant
                0x0000614e        0x6 C:\9047software\PSoC Creator\3.3\PSoC Creator\psoc\content\cycomponentlibrary\CyComponentLibrary.cylib\BLE_v2_0\Library\gccCyBLEStack_BLE_SOC_PERIPHERAL.a(llh_api.o)
                0x0000614e                llh_calculate_instant

i.llh_ccm_config_mic_params
                0x00006154       0x14
 i.llh_ccm_config_mic_params
                0x00006154       0x14 C:\9047software\PSoC Creator\3.3\PSoC Creator\psoc\content\cycomponentlibrary\CyComponentLibrary.cylib\BLE_v2_0\Library\gccCyBLEStack_BLE_SOC_PERIPHERAL.a(llh_api.o)
                0x00006154                llh_ccm_config_mic_params

i.llh_ccm_load_initialization_vector
                0x00006168       0x4c
 i.llh_ccm_load_initialization_vector
                0x00006168       0x4c C:\9047software\PSoC Creator\3.3\PSoC Creator\psoc\content\cycomponentlibrary\CyComponentLibrary.cylib\BLE_v2_0\Library\gccCyBLEStack_BLE_SOC_PERIPHERAL.a(llh_api.o)
                0x00006168                llh_ccm_load_initialization_vector

i.llh_ccm_load_pkt_counter
                0x000061b4       0x28
 i.llh_ccm_load_pkt_counter
                0x000061b4       0x28 C:\9047software\PSoC Creator\3.3\PSoC Creator\psoc\content\cycomponentlibrary\CyComponentLibrary.cylib\BLE_v2_0\Library\gccCyBLEStack_BLE_SOC_PERIPHERAL.a(llh_api.o)
                0x000061b4                llh_ccm_load_pkt_counter

i.llh_cleanup_adv_scan_resp_data
                0x000061dc       0x16
 i.llh_cleanup_adv_scan_resp_data
                0x000061dc       0x16 C:\9047software\PSoC Creator\3.3\PSoC Creator\psoc\content\cycomponentlibrary\CyComponentLibrary.cylib\BLE_v2_0\Library\gccCyBLEStack_BLE_SOC_PERIPHERAL.a(llh_api.o)
                0x000061dc                llh_cleanup_adv_scan_resp_data

i.llh_clear_ack
                0x000061f2       0x18
 i.llh_clear_ack
                0x000061f2       0x18 C:\9047software\PSoC Creator\3.3\PSoC Creator\psoc\content\cycomponentlibrary\CyComponentLibrary.cylib\BLE_v2_0\Library\gccCyBLEStack_BLE_SOC_PERIPHERAL.a(llh_api.o)
                0x000061f2                llh_clear_ack

i.llh_clear_exit_sm
                0x0000620a        0x2
 i.llh_clear_exit_sm
                0x0000620a        0x2 C:\9047software\PSoC Creator\3.3\PSoC Creator\psoc\content\cycomponentlibrary\CyComponentLibrary.cylib\BLE_v2_0\Library\gccCyBLEStack_BLE_SOC_PERIPHERAL.a(llh_api.o)
                0x0000620a                llh_clear_exit_sm

i.llh_clear_fifo_descriptor
                0x0000620c       0x1a
 i.llh_clear_fifo_descriptor
                0x0000620c       0x1a C:\9047software\PSoC Creator\3.3\PSoC Creator\psoc\content\cycomponentlibrary\CyComponentLibrary.cylib\BLE_v2_0\Library\gccCyBLEStack_BLE_SOC_PERIPHERAL.a(llh_api.o)
                0x0000620c                llh_clear_fifo_descriptor

i.llh_clear_pkt
                0x00006226       0x14
 i.llh_clear_pkt
                0x00006226       0x14 C:\9047software\PSoC Creator\3.3\PSoC Creator\psoc\content\cycomponentlibrary\CyComponentLibrary.cylib\BLE_v2_0\Library\gccCyBLEStack_BLE_SOC_PERIPHERAL.a(llh_api.o)
                0x00006226                llh_clear_pkt

i.llh_clear_sent_status
                0x0000623a       0x18
 i.llh_clear_sent_status
                0x0000623a       0x18 C:\9047software\PSoC Creator\3.3\PSoC Creator\psoc\content\cycomponentlibrary\CyComponentLibrary.cylib\BLE_v2_0\Library\gccCyBLEStack_BLE_SOC_PERIPHERAL.a(llh_api.o)
                0x0000623a                llh_clear_sent_status

i.llh_config_conn_as_slave
                0x00006252       0x18
 i.llh_config_conn_as_slave
                0x00006252       0x18 C:\9047software\PSoC Creator\3.3\PSoC Creator\psoc\content\cycomponentlibrary\CyComponentLibrary.cylib\BLE_v2_0\Library\gccCyBLEStack_BLE_SOC_PERIPHERAL.a(llh_api.o)
                0x00006252                llh_config_conn_as_slave

i.llh_config_wkup_instant
                0x0000626a        0xc
 i.llh_config_wkup_instant
                0x0000626a        0xc C:\9047software\PSoC Creator\3.3\PSoC Creator\psoc\content\cycomponentlibrary\CyComponentLibrary.cylib\BLE_v2_0\Library\gccCyBLEStack_BLE_SOC_PERIPHERAL.a(llh_api.o)
                0x0000626a                llh_config_wkup_instant

i.llh_decrement_rx_packet_count
                0x00006276        0xe
 i.llh_decrement_rx_packet_count
                0x00006276        0xe C:\9047software\PSoC Creator\3.3\PSoC Creator\psoc\content\cycomponentlibrary\CyComponentLibrary.cylib\BLE_v2_0\Library\gccCyBLEStack_BLE_SOC_PERIPHERAL.a(llh_api.o)
                0x00006276                llh_decrement_rx_packet_count

i.llh_enable_authenticated_timer
                0x00006284       0x40
 i.llh_enable_authenticated_timer
                0x00006284       0x40 C:\9047software\PSoC Creator\3.3\PSoC Creator\psoc\content\cycomponentlibrary\CyComponentLibrary.cylib\BLE_v2_0\Library\gccCyBLEStack_BLE_SOC_PERIPHERAL.a(llh_api.o)
                0x00006284                llh_enable_authenticated_timer

i.llh_enc_clk_off
                0x000062c4        0xc
 i.llh_enc_clk_off
                0x000062c4        0xc C:\9047software\PSoC Creator\3.3\PSoC Creator\psoc\content\cycomponentlibrary\CyComponentLibrary.cylib\BLE_v2_0\Library\gccCyBLEStack_BLE_SOC_PERIPHERAL.a(llh_api.o)
                0x000062c4                llh_enc_clk_off

i.llh_enc_clk_on
                0x000062d0        0xc
 i.llh_enc_clk_on
                0x000062d0        0xc C:\9047software\PSoC Creator\3.3\PSoC Creator\psoc\content\cycomponentlibrary\CyComponentLibrary.cylib\BLE_v2_0\Library\gccCyBLEStack_BLE_SOC_PERIPHERAL.a(llh_api.o)
                0x000062d0                llh_enc_clk_on

i.llh_enter_critical_section
                0x000062dc       0x14
 i.llh_enter_critical_section
                0x000062dc       0x14 C:\9047software\PSoC Creator\3.3\PSoC Creator\psoc\content\cycomponentlibrary\CyComponentLibrary.cylib\BLE_v2_0\Library\gccCyBLEStack_BLE_SOC_PERIPHERAL.a(llh_api.o)
                0x000062dc                llh_enter_critical_section

i.llh_enter_dsm
                0x000062f0        0xc
 i.llh_enter_dsm
                0x000062f0        0xc C:\9047software\PSoC Creator\3.3\PSoC Creator\psoc\content\cycomponentlibrary\CyComponentLibrary.cylib\BLE_v2_0\Library\gccCyBLEStack_BLE_SOC_PERIPHERAL.a(llh_api.o)
                0x000062f0                llh_enter_dsm

i.llh_enter_sm  0x000062fc       0x2c
 i.llh_enter_sm
                0x000062fc       0x2c C:\9047software\PSoC Creator\3.3\PSoC Creator\psoc\content\cycomponentlibrary\CyComponentLibrary.cylib\BLE_v2_0\Library\gccCyBLEStack_BLE_SOC_PERIPHERAL.a(llh_api.o)
                0x000062fc                llh_enter_sm

i.llh_exit_critical_section
                0x00006328       0x10
 i.llh_exit_critical_section
                0x00006328       0x10 C:\9047software\PSoC Creator\3.3\PSoC Creator\psoc\content\cycomponentlibrary\CyComponentLibrary.cylib\BLE_v2_0\Library\gccCyBLEStack_BLE_SOC_PERIPHERAL.a(llh_api.o)
                0x00006328                llh_exit_critical_section

i.llh_exit_dsm  0x00006338        0x8
 i.llh_exit_dsm
                0x00006338        0x8 C:\9047software\PSoC Creator\3.3\PSoC Creator\psoc\content\cycomponentlibrary\CyComponentLibrary.cylib\BLE_v2_0\Library\gccCyBLEStack_BLE_SOC_PERIPHERAL.a(llh_api.o)
                0x00006338                llh_exit_dsm

i.llh_exit_sm   0x00006340        0xc
 i.llh_exit_sm  0x00006340        0xc C:\9047software\PSoC Creator\3.3\PSoC Creator\psoc\content\cycomponentlibrary\CyComponentLibrary.cylib\BLE_v2_0\Library\gccCyBLEStack_BLE_SOC_PERIPHERAL.a(llh_api.o)
                0x00006340                llh_exit_sm

i.llh_get_abs_distance_to_instant
                0x0000634c       0x14
 i.llh_get_abs_distance_to_instant
                0x0000634c       0x14 C:\9047software\PSoC Creator\3.3\PSoC Creator\psoc\content\cycomponentlibrary\CyComponentLibrary.cylib\BLE_v2_0\Library\gccCyBLEStack_BLE_SOC_PERIPHERAL.a(llh_api.o)
                0x0000634c                llh_get_abs_distance_to_instant

i.llh_get_adv_connection_index
                0x00006360       0x12
 i.llh_get_adv_connection_index
                0x00006360       0x12 C:\9047software\PSoC Creator\3.3\PSoC Creator\psoc\content\cycomponentlibrary\CyComponentLibrary.cylib\BLE_v2_0\Library\gccCyBLEStack_BLE_SOC_PERIPHERAL.a(llh_api.o)
                0x00006360                llh_get_adv_connection_index

i.llh_get_ce_index
                0x00006372        0xc
 i.llh_get_ce_index
                0x00006372        0xc C:\9047software\PSoC Creator\3.3\PSoC Creator\psoc\content\cycomponentlibrary\CyComponentLibrary.cylib\BLE_v2_0\Library\gccCyBLEStack_BLE_SOC_PERIPHERAL.a(llh_api.o)
                0x00006372                llh_get_ce_index

i.llh_get_conn_params
                0x0000637e       0x42
 i.llh_get_conn_params
                0x0000637e       0x42 C:\9047software\PSoC Creator\3.3\PSoC Creator\psoc\content\cycomponentlibrary\CyComponentLibrary.cylib\BLE_v2_0\Library\gccCyBLEStack_BLE_SOC_PERIPHERAL.a(llh_api.o)
                0x0000637e                llh_get_conn_params

i.llh_get_current_instant_clk
                0x000063c0        0xa
 i.llh_get_current_instant_clk
                0x000063c0        0xa C:\9047software\PSoC Creator\3.3\PSoC Creator\psoc\content\cycomponentlibrary\CyComponentLibrary.cylib\BLE_v2_0\Library\gccCyBLEStack_BLE_SOC_PERIPHERAL.a(llh_api.o)
                0x000063c0                llh_get_current_instant_clk

i.llh_get_device_address
                0x000063ca       0x50
 i.llh_get_device_address
                0x000063ca       0x50 C:\9047software\PSoC Creator\3.3\PSoC Creator\psoc\content\cycomponentlibrary\CyComponentLibrary.cylib\BLE_v2_0\Library\gccCyBLEStack_BLE_SOC_PERIPHERAL.a(llh_api.o)
                0x000063ca                llh_get_device_address

i.llh_get_distance_to_instant
                0x0000641c       0x10
 i.llh_get_distance_to_instant
                0x0000641c       0x10 C:\9047software\PSoC Creator\3.3\PSoC Creator\psoc\content\cycomponentlibrary\CyComponentLibrary.cylib\BLE_v2_0\Library\gccCyBLEStack_BLE_SOC_PERIPHERAL.a(llh_api.o)
                0x0000641c                llh_get_distance_to_instant

i.llh_get_distance_to_instant_with_max_limit
                0x0000642c       0x14
 i.llh_get_distance_to_instant_with_max_limit
                0x0000642c       0x14 C:\9047software\PSoC Creator\3.3\PSoC Creator\psoc\content\cycomponentlibrary\CyComponentLibrary.cylib\BLE_v2_0\Library\gccCyBLEStack_BLE_SOC_PERIPHERAL.a(llh_api.o)
                0x0000642c                llh_get_distance_to_instant_with_max_limit

i.llh_get_lmp_pdu_rsp_instant
                0x00006440       0x18
 i.llh_get_lmp_pdu_rsp_instant
                0x00006440       0x18 C:\9047software\PSoC Creator\3.3\PSoC Creator\psoc\content\cycomponentlibrary\CyComponentLibrary.cylib\BLE_v2_0\Library\gccCyBLEStack_BLE_SOC_PERIPHERAL.a(llh_api.o)
                0x00006440                llh_get_lmp_pdu_rsp_instant

i.llh_get_next_adv_instant
                0x00006458        0xa
 i.llh_get_next_adv_instant
                0x00006458        0xa C:\9047software\PSoC Creator\3.3\PSoC Creator\psoc\content\cycomponentlibrary\CyComponentLibrary.cylib\BLE_v2_0\Library\gccCyBLEStack_BLE_SOC_PERIPHERAL.a(llh_api.o)
                0x00006458                llh_get_next_adv_instant

i.llh_get_next_connection_instant
                0x00006462       0x14
 i.llh_get_next_connection_instant
                0x00006462       0x14 C:\9047software\PSoC Creator\3.3\PSoC Creator\psoc\content\cycomponentlibrary\CyComponentLibrary.cylib\BLE_v2_0\Library\gccCyBLEStack_BLE_SOC_PERIPHERAL.a(llh_api.o)
                0x00006462                llh_get_next_connection_instant

i.llh_get_peer_address
                0x00006476       0x2e
 i.llh_get_peer_address
                0x00006476       0x2e C:\9047software\PSoC Creator\3.3\PSoC Creator\psoc\content\cycomponentlibrary\CyComponentLibrary.cylib\BLE_v2_0\Library\gccCyBLEStack_BLE_SOC_PERIPHERAL.a(llh_api.o)
                0x00006476                llh_get_peer_address

i.llh_get_peer_address_type
                0x000064a4       0x20
 i.llh_get_peer_address_type
                0x000064a4       0x20 C:\9047software\PSoC Creator\3.3\PSoC Creator\psoc\content\cycomponentlibrary\CyComponentLibrary.cylib\BLE_v2_0\Library\gccCyBLEStack_BLE_SOC_PERIPHERAL.a(llh_api.o)
                0x000064a4                llh_get_peer_address_type

i.llh_get_ping_timer_next_exp
                0x000064c4       0x18
 i.llh_get_ping_timer_next_exp
                0x000064c4       0x18 C:\9047software\PSoC Creator\3.3\PSoC Creator\psoc\content\cycomponentlibrary\CyComponentLibrary.cylib\BLE_v2_0\Library\gccCyBLEStack_BLE_SOC_PERIPHERAL.a(llh_api.o)
                0x000064c4                llh_get_ping_timer_next_exp

i.llh_get_rx_fifo_address
                0x000064dc        0x6
 i.llh_get_rx_fifo_address
                0x000064dc        0x6 C:\9047software\PSoC Creator\3.3\PSoC Creator\psoc\content\cycomponentlibrary\CyComponentLibrary.cylib\BLE_v2_0\Library\gccCyBLEStack_BLE_SOC_PERIPHERAL.a(llh_api.o)
                0x000064dc                llh_get_rx_fifo_address

i.llh_get_supervision_timer_instant
                0x000064e4       0x18
 i.llh_get_supervision_timer_instant
                0x000064e4       0x18 C:\9047software\PSoC Creator\3.3\PSoC Creator\psoc\content\cycomponentlibrary\CyComponentLibrary.cylib\BLE_v2_0\Library\gccCyBLEStack_BLE_SOC_PERIPHERAL.a(llh_api.o)
                0x000064e4                llh_get_supervision_timer_instant

i.llh_get_tx_fifo_address
                0x000064fc       0x16
 i.llh_get_tx_fifo_address
                0x000064fc       0x16 C:\9047software\PSoC Creator\3.3\PSoC Creator\psoc\content\cycomponentlibrary\CyComponentLibrary.cylib\BLE_v2_0\Library\gccCyBLEStack_BLE_SOC_PERIPHERAL.a(llh_api.o)
                0x000064fc                llh_get_tx_fifo_address

i.llh_handle_slave_conn_created_ind
                0x00006514       0x24
 i.llh_handle_slave_conn_created_ind
                0x00006514       0x24 C:\9047software\PSoC Creator\3.3\PSoC Creator\psoc\content\cycomponentlibrary\CyComponentLibrary.cylib\BLE_v2_0\Library\gccCyBLEStack_BLE_SOC_PERIPHERAL.a(llh_api.o)
                0x00006514                llh_handle_slave_conn_created_ind

i.llh_initialize_tx_fifo_index
                0x00006538       0x2c
 i.llh_initialize_tx_fifo_index
                0x00006538       0x2c C:\9047software\PSoC Creator\3.3\PSoC Creator\psoc\content\cycomponentlibrary\CyComponentLibrary.cylib\BLE_v2_0\Library\gccCyBLEStack_BLE_SOC_PERIPHERAL.a(llh_api.o)
                0x00006538                llh_initialize_tx_fifo_index

i.llh_is_conn_instant_passed
                0x00006564       0x1e
 i.llh_is_conn_instant_passed
                0x00006564       0x1e C:\9047software\PSoC Creator\3.3\PSoC Creator\psoc\content\cycomponentlibrary\CyComponentLibrary.cylib\BLE_v2_0\Library\gccCyBLEStack_BLE_SOC_PERIPHERAL.a(llh_api.o)
                0x00006564                llh_is_conn_instant_passed

i.llh_is_instant_passed
                0x00006584       0x2c
 i.llh_is_instant_passed
                0x00006584       0x2c C:\9047software\PSoC Creator\3.3\PSoC Creator\psoc\content\cycomponentlibrary\CyComponentLibrary.cylib\BLE_v2_0\Library\gccCyBLEStack_BLE_SOC_PERIPHERAL.a(llh_api.o)
                0x00006584                llh_is_instant_passed

i.llh_is_llh_inactive
                0x000065b0        0xe
 i.llh_is_llh_inactive
                0x000065b0        0xe C:\9047software\PSoC Creator\3.3\PSoC Creator\psoc\content\cycomponentlibrary\CyComponentLibrary.cylib\BLE_v2_0\Library\gccCyBLEStack_BLE_SOC_PERIPHERAL.a(llh_api.o)
                0x000065b0                llh_is_llh_inactive

i.llh_is_ping_timer_next_exp_valid
                0x000065c0       0x14
 i.llh_is_ping_timer_next_exp_valid
                0x000065c0       0x14 C:\9047software\PSoC Creator\3.3\PSoC Creator\psoc\content\cycomponentlibrary\CyComponentLibrary.cylib\BLE_v2_0\Library\gccCyBLEStack_BLE_SOC_PERIPHERAL.a(llh_api.o)
                0x000065c0                llh_is_ping_timer_next_exp_valid

i.llh_load_channel_map
                0x000065d4       0x48
 i.llh_load_channel_map
                0x000065d4       0x48 C:\9047software\PSoC Creator\3.3\PSoC Creator\psoc\content\cycomponentlibrary\CyComponentLibrary.cylib\BLE_v2_0\Library\gccCyBLEStack_BLE_SOC_PERIPHERAL.a(llh_api.o)
                0x000065d4                llh_load_channel_map

i.llh_load_data_to_connection_fifo
                0x0000661c       0x28
 i.llh_load_data_to_connection_fifo
                0x0000661c       0x28 C:\9047software\PSoC Creator\3.3\PSoC Creator\psoc\content\cycomponentlibrary\CyComponentLibrary.cylib\BLE_v2_0\Library\gccCyBLEStack_BLE_SOC_PERIPHERAL.a(llh_api.o)
                0x0000661c                llh_load_data_to_connection_fifo

i.llh_load_encryption_engine_input
                0x00006644       0x22
 i.llh_load_encryption_engine_input
                0x00006644       0x22 C:\9047software\PSoC Creator\3.3\PSoC Creator\psoc\content\cycomponentlibrary\CyComponentLibrary.cylib\BLE_v2_0\Library\gccCyBLEStack_BLE_SOC_PERIPHERAL.a(llh_api.o)
                0x00006644                llh_load_encryption_engine_input

i.llh_load_encryption_key
                0x00006666       0x1a
 i.llh_load_encryption_key
                0x00006666       0x1a C:\9047software\PSoC Creator\3.3\PSoC Creator\psoc\content\cycomponentlibrary\CyComponentLibrary.cylib\BLE_v2_0\Library\gccCyBLEStack_BLE_SOC_PERIPHERAL.a(llh_api.o)
                0x00006666                llh_load_encryption_key

i.llh_load_mic_input
                0x00006680       0x28
 i.llh_load_mic_input
                0x00006680       0x28 C:\9047software\PSoC Creator\3.3\PSoC Creator\psoc\content\cycomponentlibrary\CyComponentLibrary.cylib\BLE_v2_0\Library\gccCyBLEStack_BLE_SOC_PERIPHERAL.a(llh_api.o)
                0x00006680                llh_load_mic_input

i.llh_mark_packet_for_transmission
                0x000066a8       0x1c
 i.llh_mark_packet_for_transmission
                0x000066a8       0x1c C:\9047software\PSoC Creator\3.3\PSoC Creator\psoc\content\cycomponentlibrary\CyComponentLibrary.cylib\BLE_v2_0\Library\gccCyBLEStack_BLE_SOC_PERIPHERAL.a(llh_api.o)
                0x000066a8                llh_mark_packet_for_transmission

i.llh_pause_tx_fifo_index
                0x000066c4       0x2a
 i.llh_pause_tx_fifo_index
                0x000066c4       0x2a C:\9047software\PSoC Creator\3.3\PSoC Creator\psoc\content\cycomponentlibrary\CyComponentLibrary.cylib\BLE_v2_0\Library\gccCyBLEStack_BLE_SOC_PERIPHERAL.a(llh_api.o)
                0x000066c4                llh_pause_tx_fifo_index

i.llh_process_encryption_engine_cmd
                0x000066ee       0x56
 i.llh_process_encryption_engine_cmd
                0x000066ee       0x56 C:\9047software\PSoC Creator\3.3\PSoC Creator\psoc\content\cycomponentlibrary\CyComponentLibrary.cylib\BLE_v2_0\Library\gccCyBLEStack_BLE_SOC_PERIPHERAL.a(llh_api.o)
                0x000066ee                llh_process_encryption_engine_cmd

i.llh_program_authenticated_timer
                0x00006744       0x3c
 i.llh_program_authenticated_timer
                0x00006744       0x3c C:\9047software\PSoC Creator\3.3\PSoC Creator\psoc\content\cycomponentlibrary\CyComponentLibrary.cylib\BLE_v2_0\Library\gccCyBLEStack_BLE_SOC_PERIPHERAL.a(llh_api.o)
                0x00006744                llh_program_authenticated_timer

i.llh_program_channel_map_instant
                0x00006780       0x24
 i.llh_program_channel_map_instant
                0x00006780       0x24 C:\9047software\PSoC Creator\3.3\PSoC Creator\psoc\content\cycomponentlibrary\CyComponentLibrary.cylib\BLE_v2_0\Library\gccCyBLEStack_BLE_SOC_PERIPHERAL.a(llh_api.o)
                0x00006780                llh_program_channel_map_instant

i.llh_program_connection_update_instant
                0x000067a4       0x26
 i.llh_program_connection_update_instant
                0x000067a4       0x26 C:\9047software\PSoC Creator\3.3\PSoC Creator\psoc\content\cycomponentlibrary\CyComponentLibrary.cylib\BLE_v2_0\Library\gccCyBLEStack_BLE_SOC_PERIPHERAL.a(llh_api.o)
                0x000067a4                llh_program_connection_update_instant

i.llh_program_window_widen_interval
                0x000067cc       0x1c
 i.llh_program_window_widen_interval
                0x000067cc       0x1c C:\9047software\PSoC Creator\3.3\PSoC Creator\psoc\content\cycomponentlibrary\CyComponentLibrary.cylib\BLE_v2_0\Library\gccCyBLEStack_BLE_SOC_PERIPHERAL.a(llh_api.o)
                0x000067cc                llh_program_window_widen_interval

i.llh_program_window_widen_winoffset
                0x000067e8       0x1c
 i.llh_program_window_widen_winoffset
                0x000067e8       0x1c C:\9047software\PSoC Creator\3.3\PSoC Creator\psoc\content\cycomponentlibrary\CyComponentLibrary.cylib\BLE_v2_0\Library\gccCyBLEStack_BLE_SOC_PERIPHERAL.a(llh_api.o)
                0x000067e8                llh_program_window_widen_winoffset

i.llh_read_channel_map
                0x00006804       0x3c
 i.llh_read_channel_map
                0x00006804       0x3c C:\9047software\PSoC Creator\3.3\PSoC Creator\psoc\content\cycomponentlibrary\CyComponentLibrary.cylib\BLE_v2_0\Library\gccCyBLEStack_BLE_SOC_PERIPHERAL.a(llh_api.o)
                0x00006804                llh_read_channel_map

i.llh_read_encryption_engine_output
                0x00006840       0x1c
 i.llh_read_encryption_engine_output
                0x00006840       0x1c C:\9047software\PSoC Creator\3.3\PSoC Creator\psoc\content\cycomponentlibrary\CyComponentLibrary.cylib\BLE_v2_0\Library\gccCyBLEStack_BLE_SOC_PERIPHERAL.a(llh_api.o)
                0x00006840                llh_read_encryption_engine_output

i.llh_read_mic_output
                0x0000685c       0x28
 i.llh_read_mic_output
                0x0000685c       0x28 C:\9047software\PSoC Creator\3.3\PSoC Creator\psoc\content\cycomponentlibrary\CyComponentLibrary.cylib\BLE_v2_0\Library\gccCyBLEStack_BLE_SOC_PERIPHERAL.a(llh_api.o)
                0x0000685c                llh_read_mic_output

i.llh_remove_device_from_white_list
                0x00006884       0x12
 i.llh_remove_device_from_white_list
                0x00006884       0x12 C:\9047software\PSoC Creator\3.3\PSoC Creator\psoc\content\cycomponentlibrary\CyComponentLibrary.cylib\BLE_v2_0\Library\gccCyBLEStack_BLE_SOC_PERIPHERAL.a(llh_api.o)
                0x00006884                llh_remove_device_from_white_list

i.llh_reset     0x00006898      0x110
 i.llh_reset    0x00006898      0x110 C:\9047software\PSoC Creator\3.3\PSoC Creator\psoc\content\cycomponentlibrary\CyComponentLibrary.cylib\BLE_v2_0\Library\gccCyBLEStack_BLE_SOC_PERIPHERAL.a(llh_api.o)
                0x00006898                llh_reset

i.llh_reset_whitelist
                0x000069a8       0x1c
 i.llh_reset_whitelist
                0x000069a8       0x1c C:\9047software\PSoC Creator\3.3\PSoC Creator\psoc\content\cycomponentlibrary\CyComponentLibrary.cylib\BLE_v2_0\Library\gccCyBLEStack_BLE_SOC_PERIPHERAL.a(llh_api.o)
                0x000069a8                llh_reset_whitelist

i.llh_resume_data_transfer
                0x000069c4       0x34
 i.llh_resume_data_transfer
                0x000069c4       0x34 C:\9047software\PSoC Creator\3.3\PSoC Creator\psoc\content\cycomponentlibrary\CyComponentLibrary.cylib\BLE_v2_0\Library\gccCyBLEStack_BLE_SOC_PERIPHERAL.a(llh_api.o)
                0x000069c4                llh_resume_data_transfer

i.llh_search_whitelist_for_dup_entry
                0x000069f8       0xa8
 i.llh_search_whitelist_for_dup_entry
                0x000069f8       0xa8 C:\9047software\PSoC Creator\3.3\PSoC Creator\psoc\content\cycomponentlibrary\CyComponentLibrary.cylib\BLE_v2_0\Library\gccCyBLEStack_BLE_SOC_PERIPHERAL.a(llh_api.o)
                0x000069f8                llh_search_whitelist_for_dup_entry

i.llh_search_whitelist_for_free_index
                0x00006aa0       0x30
 i.llh_search_whitelist_for_free_index
                0x00006aa0       0x30 C:\9047software\PSoC Creator\3.3\PSoC Creator\psoc\content\cycomponentlibrary\CyComponentLibrary.cylib\BLE_v2_0\Library\gccCyBLEStack_BLE_SOC_PERIPHERAL.a(llh_api.o)
                0x00006aa0                llh_search_whitelist_for_free_index

i.llh_set_adv_connection_index
                0x00006ad0       0x1e
 i.llh_set_adv_connection_index
                0x00006ad0       0x1e C:\9047software\PSoC Creator\3.3\PSoC Creator\psoc\content\cycomponentlibrary\CyComponentLibrary.cylib\BLE_v2_0\Library\gccCyBLEStack_BLE_SOC_PERIPHERAL.a(llh_api.o)
                0x00006ad0                llh_set_adv_connection_index

i.llh_set_adv_data
                0x00006aee       0x1c
 i.llh_set_adv_data
                0x00006aee       0x1c C:\9047software\PSoC Creator\3.3\PSoC Creator\psoc\content\cycomponentlibrary\CyComponentLibrary.cylib\BLE_v2_0\Library\gccCyBLEStack_BLE_SOC_PERIPHERAL.a(llh_api.o)
                0x00006aee                llh_set_adv_data

i.llh_set_adv_parameters
                0x00006b0c       0x48
 i.llh_set_adv_parameters
                0x00006b0c       0x48 C:\9047software\PSoC Creator\3.3\PSoC Creator\psoc\content\cycomponentlibrary\CyComponentLibrary.cylib\BLE_v2_0\Library\gccCyBLEStack_BLE_SOC_PERIPHERAL.a(llh_api.o)
                0x00006b0c                llh_set_adv_parameters

i.llh_set_advertise_disable
                0x00006b54       0x12
 i.llh_set_advertise_disable
                0x00006b54       0x12 C:\9047software\PSoC Creator\3.3\PSoC Creator\psoc\content\cycomponentlibrary\CyComponentLibrary.cylib\BLE_v2_0\Library\gccCyBLEStack_BLE_SOC_PERIPHERAL.a(llh_api.o)
                0x00006b54                llh_set_advertise_disable

i.llh_set_advertise_enable
                0x00006b66       0x12
 i.llh_set_advertise_enable
                0x00006b66       0x12 C:\9047software\PSoC Creator\3.3\PSoC Creator\psoc\content\cycomponentlibrary\CyComponentLibrary.cylib\BLE_v2_0\Library\gccCyBLEStack_BLE_SOC_PERIPHERAL.a(llh_api.o)
                0x00006b66                llh_set_advertise_enable

i.llh_set_ce_length
                0x00006b78       0x18
 i.llh_set_ce_length
                0x00006b78       0x18 C:\9047software\PSoC Creator\3.3\PSoC Creator\psoc\content\cycomponentlibrary\CyComponentLibrary.cylib\BLE_v2_0\Library\gccCyBLEStack_BLE_SOC_PERIPHERAL.a(llh_api.o)
                0x00006b78                llh_set_ce_length

i.llh_set_conn_update_parameters
                0x00006b90       0x3c
 i.llh_set_conn_update_parameters
                0x00006b90       0x3c C:\9047software\PSoC Creator\3.3\PSoC Creator\psoc\content\cycomponentlibrary\CyComponentLibrary.cylib\BLE_v2_0\Library\gccCyBLEStack_BLE_SOC_PERIPHERAL.a(llh_api.o)
                0x00006b90                llh_set_conn_update_parameters

i.llh_set_conn_window_parameters
                0x00006bcc       0x20
 i.llh_set_conn_window_parameters
                0x00006bcc       0x20 C:\9047software\PSoC Creator\3.3\PSoC Creator\psoc\content\cycomponentlibrary\CyComponentLibrary.cylib\BLE_v2_0\Library\gccCyBLEStack_BLE_SOC_PERIPHERAL.a(llh_api.o)
                0x00006bcc                llh_set_conn_window_parameters

i.llh_set_device_address
                0x00006bec       0x36
 i.llh_set_device_address
                0x00006bec       0x36 C:\9047software\PSoC Creator\3.3\PSoC Creator\psoc\content\cycomponentlibrary\CyComponentLibrary.cylib\BLE_v2_0\Library\gccCyBLEStack_BLE_SOC_PERIPHERAL.a(llh_api.o)
                0x00006bec                llh_set_device_address

i.llh_set_llh_quick_tx_feature_config
                0x00006c22       0x2a
 i.llh_set_llh_quick_tx_feature_config
                0x00006c22       0x2a C:\9047software\PSoC Creator\3.3\PSoC Creator\psoc\content\cycomponentlibrary\CyComponentLibrary.cylib\BLE_v2_0\Library\gccCyBLEStack_BLE_SOC_PERIPHERAL.a(llh_api.o)
                0x00006c22                llh_set_llh_quick_tx_feature_config

i.llh_set_peer_address
                0x00006c4c       0x30
 i.llh_set_peer_address
                0x00006c4c       0x30 C:\9047software\PSoC Creator\3.3\PSoC Creator\psoc\content\cycomponentlibrary\CyComponentLibrary.cylib\BLE_v2_0\Library\gccCyBLEStack_BLE_SOC_PERIPHERAL.a(llh_api.o)
                0x00006c4c                llh_set_peer_address

i.llh_set_random_address
                0x00006c7c       0x30
 i.llh_set_random_address
                0x00006c7c       0x30 C:\9047software\PSoC Creator\3.3\PSoC Creator\psoc\content\cycomponentlibrary\CyComponentLibrary.cylib\BLE_v2_0\Library\gccCyBLEStack_BLE_SOC_PERIPHERAL.a(llh_api.o)
                0x00006c7c                llh_set_random_address

i.llh_set_scan_resp_data
                0x00006cac       0x1c
 i.llh_set_scan_resp_data
                0x00006cac       0x1c C:\9047software\PSoC Creator\3.3\PSoC Creator\psoc\content\cycomponentlibrary\CyComponentLibrary.cylib\BLE_v2_0\Library\gccCyBLEStack_BLE_SOC_PERIPHERAL.a(llh_api.o)
                0x00006cac                llh_set_scan_resp_data

i.llh_set_sl_connection_interval
                0x00006cc8       0x1c
 i.llh_set_sl_connection_interval
                0x00006cc8       0x1c C:\9047software\PSoC Creator\3.3\PSoC Creator\psoc\content\cycomponentlibrary\CyComponentLibrary.cylib\BLE_v2_0\Library\gccCyBLEStack_BLE_SOC_PERIPHERAL.a(llh_api.o)
                0x00006cc8                llh_set_sl_connection_interval

i.llh_set_su_to
                0x00006ce4       0x18
 i.llh_set_su_to
                0x00006ce4       0x18 C:\9047software\PSoC Creator\3.3\PSoC Creator\psoc\content\cycomponentlibrary\CyComponentLibrary.cylib\BLE_v2_0\Library\gccCyBLEStack_BLE_SOC_PERIPHERAL.a(llh_api.o)
                0x00006ce4                llh_set_su_to

i.llh_start_pdu_rsp_timer
                0x00006cfc       0x30
 i.llh_start_pdu_rsp_timer
                0x00006cfc       0x30 C:\9047software\PSoC Creator\3.3\PSoC Creator\psoc\content\cycomponentlibrary\CyComponentLibrary.cylib\BLE_v2_0\Library\gccCyBLEStack_BLE_SOC_PERIPHERAL.a(llh_api.o)
                0x00006cfc                llh_start_pdu_rsp_timer

i.llh_stop_pdu_rsp_timer
                0x00006d2c       0x18
 i.llh_stop_pdu_rsp_timer
                0x00006d2c       0x18 C:\9047software\PSoC Creator\3.3\PSoC Creator\psoc\content\cycomponentlibrary\CyComponentLibrary.cylib\BLE_v2_0\Library\gccCyBLEStack_BLE_SOC_PERIPHERAL.a(llh_api.o)
                0x00006d2c                llh_stop_pdu_rsp_timer

i.llh_terminate_connection
                0x00006d44       0x18
 i.llh_terminate_connection
                0x00006d44       0x18 C:\9047software\PSoC Creator\3.3\PSoC Creator\psoc\content\cycomponentlibrary\CyComponentLibrary.cylib\BLE_v2_0\Library\gccCyBLEStack_BLE_SOC_PERIPHERAL.a(llh_api.o)
                0x00006d44                llh_terminate_connection

i.llh_terminate_connection_after_tx
                0x00006d5c       0x18
 i.llh_terminate_connection_after_tx
                0x00006d5c       0x18 C:\9047software\PSoC Creator\3.3\PSoC Creator\psoc\content\cycomponentlibrary\CyComponentLibrary.cylib\BLE_v2_0\Library\gccCyBLEStack_BLE_SOC_PERIPHERAL.a(llh_api.o)
                0x00006d5c                llh_terminate_connection_after_tx

i.llh_update_data_descriptor
                0x00006d74       0x38
 i.llh_update_data_descriptor
                0x00006d74       0x38 C:\9047software\PSoC Creator\3.3\PSoC Creator\psoc\content\cycomponentlibrary\CyComponentLibrary.cylib\BLE_v2_0\Library\gccCyBLEStack_BLE_SOC_PERIPHERAL.a(llh_api.o)
                0x00006d74                llh_update_data_descriptor

i.llh_update_dsm_offset_slots
                0x00006dac       0x1c
 i.llh_update_dsm_offset_slots
                0x00006dac       0x1c C:\9047software\PSoC Creator\3.3\PSoC Creator\psoc\content\cycomponentlibrary\CyComponentLibrary.cylib\BLE_v2_0\Library\gccCyBLEStack_BLE_SOC_PERIPHERAL.a(llh_api.o)
                0x00006dac                llh_update_dsm_offset_slots

i.llh_update_md_bit
                0x00006dc8       0x26
 i.llh_update_md_bit
                0x00006dc8       0x26 C:\9047software\PSoC Creator\3.3\PSoC Creator\psoc\content\cycomponentlibrary\CyComponentLibrary.cylib\BLE_v2_0\Library\gccCyBLEStack_BLE_SOC_PERIPHERAL.a(llh_api.o)
                0x00006dc8                llh_update_md_bit

i.llh_update_sl_dsm_feature
                0x00006dee       0x24
 i.llh_update_sl_dsm_feature
                0x00006dee       0x24 C:\9047software\PSoC Creator\3.3\PSoC Creator\psoc\content\cycomponentlibrary\CyComponentLibrary.cylib\BLE_v2_0\Library\gccCyBLEStack_BLE_SOC_PERIPHERAL.a(llh_api.o)
                0x00006dee                llh_update_sl_dsm_feature

i.llh_update_slave_latency
                0x00006e12       0x36
 i.llh_update_slave_latency
                0x00006e12       0x36 C:\9047software\PSoC Creator\3.3\PSoC Creator\psoc\content\cycomponentlibrary\CyComponentLibrary.cylib\BLE_v2_0\Library\gccCyBLEStack_BLE_SOC_PERIPHERAL.a(llh_api.o)
                0x00006e12                llh_update_slave_latency

i.le_set_register_bit
                0x00006e48       0x16
 i.le_set_register_bit
                0x00006e48       0x16 C:\9047software\PSoC Creator\3.3\PSoC Creator\psoc\content\cycomponentlibrary\CyComponentLibrary.cylib\BLE_v2_0\Library\gccCyBLEStack_BLE_SOC_PERIPHERAL.a(llh_utils.o)
                0x00006e48                le_set_register_bit

i.le_write_register_field
                0x00006e5e       0x30
 i.le_write_register_field
                0x00006e5e       0x30 C:\9047software\PSoC Creator\3.3\PSoC Creator\psoc\content\cycomponentlibrary\CyComponentLibrary.cylib\BLE_v2_0\Library\gccCyBLEStack_BLE_SOC_PERIPHERAL.a(llh_utils.o)
                0x00006e5e                le_write_register_field

i.llh_extract_llid_from_fifo_descriptor
                0x00006e90       0x10
 i.llh_extract_llid_from_fifo_descriptor
                0x00006e90       0x10 C:\9047software\PSoC Creator\3.3\PSoC Creator\psoc\content\cycomponentlibrary\CyComponentLibrary.cylib\BLE_v2_0\Library\gccCyBLEStack_BLE_SOC_PERIPHERAL.a(llh_utils.o)
                0x00006e90                llh_extract_llid_from_fifo_descriptor

i.llh_get_ack_status
                0x00006ea0       0x14
 i.llh_get_ack_status
                0x00006ea0       0x14 C:\9047software\PSoC Creator\3.3\PSoC Creator\psoc\content\cycomponentlibrary\CyComponentLibrary.cylib\BLE_v2_0\Library\gccCyBLEStack_BLE_SOC_PERIPHERAL.a(llh_utils.o)
                0x00006ea0                llh_get_ack_status

i.llh_get_data_descriptor_address
                0x00006eb4        0x8
 i.llh_get_data_descriptor_address
                0x00006eb4        0x8 C:\9047software\PSoC Creator\3.3\PSoC Creator\psoc\content\cycomponentlibrary\CyComponentLibrary.cylib\BLE_v2_0\Library\gccCyBLEStack_BLE_SOC_PERIPHERAL.a(llh_utils.o)
                0x00006eb4                llh_get_data_descriptor_address

i.llh_get_transmitted_opcode
                0x00006ebc       0x14
 i.llh_get_transmitted_opcode
                0x00006ebc       0x14 C:\9047software\PSoC Creator\3.3\PSoC Creator\psoc\content\cycomponentlibrary\CyComponentLibrary.cylib\BLE_v2_0\Library\gccCyBLEStack_BLE_SOC_PERIPHERAL.a(llh_utils.o)
                0x00006ebc                llh_get_transmitted_opcode

i.llh_get_tx_sent_status
                0x00006ed0       0x14
 i.llh_get_tx_sent_status
                0x00006ed0       0x14 C:\9047software\PSoC Creator\3.3\PSoC Creator\psoc\content\cycomponentlibrary\CyComponentLibrary.cylib\BLE_v2_0\Library\gccCyBLEStack_BLE_SOC_PERIPHERAL.a(llh_utils.o)
                0x00006ed0                llh_get_tx_sent_status

i.llh_read_opcode_of_acked_ll_pdu
                0x00006ee4        0xe
 i.llh_read_opcode_of_acked_ll_pdu
                0x00006ee4        0xe C:\9047software\PSoC Creator\3.3\PSoC Creator\psoc\content\cycomponentlibrary\CyComponentLibrary.cylib\BLE_v2_0\Library\gccCyBLEStack_BLE_SOC_PERIPHERAL.a(llh_utils.o)
                0x00006ee4                llh_read_opcode_of_acked_ll_pdu

i.ll_allocate_send_unknown_rsp_pdu
                0x00006ef2       0x20
 i.ll_allocate_send_unknown_rsp_pdu
                0x00006ef2       0x20 C:\9047software\PSoC Creator\3.3\PSoC Creator\psoc\content\cycomponentlibrary\CyComponentLibrary.cylib\BLE_v2_0\Library\gccCyBLEStack_BLE_SOC_PERIPHERAL.a(ll_pdu.o)
                0x00006ef2                ll_allocate_send_unknown_rsp_pdu

i.ll_configure_connection_for_disconnect
                0x00006f12       0x16
 i.ll_configure_connection_for_disconnect
                0x00006f12       0x16 C:\9047software\PSoC Creator\3.3\PSoC Creator\psoc\content\cycomponentlibrary\CyComponentLibrary.cylib\BLE_v2_0\Library\gccCyBLEStack_BLE_SOC_PERIPHERAL.a(ll_pdu.o)

i.ll_conn_dequeue_pending_pdu
                0x00006f28       0x24
 i.ll_conn_dequeue_pending_pdu
                0x00006f28       0x24 C:\9047software\PSoC Creator\3.3\PSoC Creator\psoc\content\cycomponentlibrary\CyComponentLibrary.cylib\BLE_v2_0\Library\gccCyBLEStack_BLE_SOC_PERIPHERAL.a(ll_pdu.o)
                0x00006f28                ll_conn_dequeue_pending_pdu

i.ll_conn_enqueue_pending_pdu
                0x00006f4c       0x24
 i.ll_conn_enqueue_pending_pdu
                0x00006f4c       0x24 C:\9047software\PSoC Creator\3.3\PSoC Creator\psoc\content\cycomponentlibrary\CyComponentLibrary.cylib\BLE_v2_0\Library\gccCyBLEStack_BLE_SOC_PERIPHERAL.a(ll_pdu.o)
                0x00006f4c                ll_conn_enqueue_pending_pdu

i.ll_conn_init_pending_pdu
                0x00006f70        0x8
 i.ll_conn_init_pending_pdu
                0x00006f70        0x8 C:\9047software\PSoC Creator\3.3\PSoC Creator\psoc\content\cycomponentlibrary\CyComponentLibrary.cylib\BLE_v2_0\Library\gccCyBLEStack_BLE_SOC_PERIPHERAL.a(ll_pdu.o)
                0x00006f70                ll_conn_init_pending_pdu

i.ll_conn_is_available_pending_pdu
                0x00006f78        0xe
 i.ll_conn_is_available_pending_pdu
                0x00006f78        0xe C:\9047software\PSoC Creator\3.3\PSoC Creator\psoc\content\cycomponentlibrary\CyComponentLibrary.cylib\BLE_v2_0\Library\gccCyBLEStack_BLE_SOC_PERIPHERAL.a(ll_pdu.o)
                0x00006f78                ll_conn_is_available_pending_pdu

i.ll_generate_update_complete_event
                0x00006f86       0x30
 i.ll_generate_update_complete_event
                0x00006f86       0x30 C:\9047software\PSoC Creator\3.3\PSoC Creator\psoc\content\cycomponentlibrary\CyComponentLibrary.cylib\BLE_v2_0\Library\gccCyBLEStack_BLE_SOC_PERIPHERAL.a(ll_pdu.o)
                0x00006f86                ll_generate_update_complete_event

i.ll_handle_ack_for_sending_pending_pdu
                0x00006fb8       0x2c
 i.ll_handle_ack_for_sending_pending_pdu
                0x00006fb8       0x2c C:\9047software\PSoC Creator\3.3\PSoC Creator\psoc\content\cycomponentlibrary\CyComponentLibrary.cylib\BLE_v2_0\Library\gccCyBLEStack_BLE_SOC_PERIPHERAL.a(ll_pdu.o)
                0x00006fb8                ll_handle_ack_for_sending_pending_pdu

i.ll_handle_channel_update_pdu
                0x00006fe4       0x62
 i.ll_handle_channel_update_pdu
                0x00006fe4       0x62 C:\9047software\PSoC Creator\3.3\PSoC Creator\psoc\content\cycomponentlibrary\CyComponentLibrary.cylib\BLE_v2_0\Library\gccCyBLEStack_BLE_SOC_PERIPHERAL.a(ll_pdu.o)
                0x00006fe4                ll_handle_channel_update_pdu

i.ll_handle_conn_update_pdu
                0x00007046       0xa0
 i.ll_handle_conn_update_pdu
                0x00007046       0xa0 C:\9047software\PSoC Creator\3.3\PSoC Creator\psoc\content\cycomponentlibrary\CyComponentLibrary.cylib\BLE_v2_0\Library\gccCyBLEStack_BLE_SOC_PERIPHERAL.a(ll_pdu.o)
                0x00007046                ll_handle_conn_update_pdu

i.ll_handle_encryption_request_pdu
                0x000070e8       0xb8
 i.ll_handle_encryption_request_pdu
                0x000070e8       0xb8 C:\9047software\PSoC Creator\3.3\PSoC Creator\psoc\content\cycomponentlibrary\CyComponentLibrary.cylib\BLE_v2_0\Library\gccCyBLEStack_BLE_SOC_PERIPHERAL.a(ll_pdu.o)
                0x000070e8                ll_handle_encryption_request_pdu

i.ll_handle_encryption_response_pdu_ack
                0x000071a0        0x8
 i.ll_handle_encryption_response_pdu_ack
                0x000071a0        0x8 C:\9047software\PSoC Creator\3.3\PSoC Creator\psoc\content\cycomponentlibrary\CyComponentLibrary.cylib\BLE_v2_0\Library\gccCyBLEStack_BLE_SOC_PERIPHERAL.a(ll_pdu.o)
                0x000071a0                ll_handle_encryption_response_pdu_ack

i.ll_handle_feature_request_pdu
                0x000071a8       0x60
 i.ll_handle_feature_request_pdu
                0x000071a8       0x60 C:\9047software\PSoC Creator\3.3\PSoC Creator\psoc\content\cycomponentlibrary\CyComponentLibrary.cylib\BLE_v2_0\Library\gccCyBLEStack_BLE_SOC_PERIPHERAL.a(ll_pdu.o)
                0x000071a8                ll_handle_feature_request_pdu

i.ll_handle_feature_response_pdu_ack
                0x00007208        0x2
 i.ll_handle_feature_response_pdu_ack
                0x00007208        0x2 C:\9047software\PSoC Creator\3.3\PSoC Creator\psoc\content\cycomponentlibrary\CyComponentLibrary.cylib\BLE_v2_0\Library\gccCyBLEStack_BLE_SOC_PERIPHERAL.a(ll_pdu.o)
                0x00007208                ll_handle_feature_response_pdu_ack

i.ll_handle_incoming_ll_pdu
                0x0000720c       0x40
 i.ll_handle_incoming_ll_pdu
                0x0000720c       0x40 C:\9047software\PSoC Creator\3.3\PSoC Creator\psoc\content\cycomponentlibrary\CyComponentLibrary.cylib\BLE_v2_0\Library\gccCyBLEStack_BLE_SOC_PERIPHERAL.a(ll_pdu.o)
                0x0000720c                ll_handle_incoming_ll_pdu

i.ll_handle_ll_pdu_ack_received
                0x0000724c       0x48
 i.ll_handle_ll_pdu_ack_received
                0x0000724c       0x48 C:\9047software\PSoC Creator\3.3\PSoC Creator\psoc\content\cycomponentlibrary\CyComponentLibrary.cylib\BLE_v2_0\Library\gccCyBLEStack_BLE_SOC_PERIPHERAL.a(ll_pdu.o)
                0x0000724c                ll_handle_ll_pdu_ack_received

i.ll_handle_pause_encryption_request_pdu
                0x00007294       0x18
 i.ll_handle_pause_encryption_request_pdu
                0x00007294       0x18 C:\9047software\PSoC Creator\3.3\PSoC Creator\psoc\content\cycomponentlibrary\CyComponentLibrary.cylib\BLE_v2_0\Library\gccCyBLEStack_BLE_SOC_PERIPHERAL.a(ll_pdu.o)
                0x00007294                ll_handle_pause_encryption_request_pdu

i.ll_handle_pause_encryption_response_pdu
                0x000072ac       0x10
 i.ll_handle_pause_encryption_response_pdu
                0x000072ac       0x10 C:\9047software\PSoC Creator\3.3\PSoC Creator\psoc\content\cycomponentlibrary\CyComponentLibrary.cylib\BLE_v2_0\Library\gccCyBLEStack_BLE_SOC_PERIPHERAL.a(ll_pdu.o)
                0x000072ac                ll_handle_pause_encryption_response_pdu

i.ll_handle_pause_encryption_response_pdu_ack
                0x000072bc       0x10
 i.ll_handle_pause_encryption_response_pdu_ack
                0x000072bc       0x10 C:\9047software\PSoC Creator\3.3\PSoC Creator\psoc\content\cycomponentlibrary\CyComponentLibrary.cylib\BLE_v2_0\Library\gccCyBLEStack_BLE_SOC_PERIPHERAL.a(ll_pdu.o)
                0x000072bc                ll_handle_pause_encryption_response_pdu_ack

i.ll_handle_ping_req_pdu
                0x000072cc       0x44
 i.ll_handle_ping_req_pdu
                0x000072cc       0x44 C:\9047software\PSoC Creator\3.3\PSoC Creator\psoc\content\cycomponentlibrary\CyComponentLibrary.cylib\BLE_v2_0\Library\gccCyBLEStack_BLE_SOC_PERIPHERAL.a(ll_pdu.o)
                0x000072cc                ll_handle_ping_req_pdu

i.ll_handle_ping_rsp_pdu
                0x00007310        0xa
 i.ll_handle_ping_rsp_pdu
                0x00007310        0xa C:\9047software\PSoC Creator\3.3\PSoC Creator\psoc\content\cycomponentlibrary\CyComponentLibrary.cylib\BLE_v2_0\Library\gccCyBLEStack_BLE_SOC_PERIPHERAL.a(ll_pdu.o)
                0x00007310                ll_handle_ping_rsp_pdu

i.ll_handle_reject_indication_pdu
                0x0000731a        0xa
 i.ll_handle_reject_indication_pdu
                0x0000731a        0xa C:\9047software\PSoC Creator\3.3\PSoC Creator\psoc\content\cycomponentlibrary\CyComponentLibrary.cylib\BLE_v2_0\Library\gccCyBLEStack_BLE_SOC_PERIPHERAL.a(ll_pdu.o)
                0x0000731a                ll_handle_reject_indication_pdu

i.ll_handle_reject_indication_pdu_ack
                0x00007324        0x8
 i.ll_handle_reject_indication_pdu_ack
                0x00007324        0x8 C:\9047software\PSoC Creator\3.3\PSoC Creator\psoc\content\cycomponentlibrary\CyComponentLibrary.cylib\BLE_v2_0\Library\gccCyBLEStack_BLE_SOC_PERIPHERAL.a(ll_pdu.o)
                0x00007324                ll_handle_reject_indication_pdu_ack

i.ll_handle_start_encryption_request_pdu_ack
                0x0000732c        0x8
 i.ll_handle_start_encryption_request_pdu_ack
                0x0000732c        0x8 C:\9047software\PSoC Creator\3.3\PSoC Creator\psoc\content\cycomponentlibrary\CyComponentLibrary.cylib\BLE_v2_0\Library\gccCyBLEStack_BLE_SOC_PERIPHERAL.a(ll_pdu.o)
                0x0000732c                ll_handle_start_encryption_request_pdu_ack

i.ll_handle_start_encryption_response_pdu
                0x00007334       0x10
 i.ll_handle_start_encryption_response_pdu
                0x00007334       0x10 C:\9047software\PSoC Creator\3.3\PSoC Creator\psoc\content\cycomponentlibrary\CyComponentLibrary.cylib\BLE_v2_0\Library\gccCyBLEStack_BLE_SOC_PERIPHERAL.a(ll_pdu.o)
                0x00007334                ll_handle_start_encryption_response_pdu

i.ll_handle_start_encryption_response_pdu_ack
                0x00007344       0x10
 i.ll_handle_start_encryption_response_pdu_ack
                0x00007344       0x10 C:\9047software\PSoC Creator\3.3\PSoC Creator\psoc\content\cycomponentlibrary\CyComponentLibrary.cylib\BLE_v2_0\Library\gccCyBLEStack_BLE_SOC_PERIPHERAL.a(ll_pdu.o)
                0x00007344                ll_handle_start_encryption_response_pdu_ack

i.ll_handle_terminate_pdu
                0x00007354       0x4c
 i.ll_handle_terminate_pdu
                0x00007354       0x4c C:\9047software\PSoC Creator\3.3\PSoC Creator\psoc\content\cycomponentlibrary\CyComponentLibrary.cylib\BLE_v2_0\Library\gccCyBLEStack_BLE_SOC_PERIPHERAL.a(ll_pdu.o)
                0x00007354                ll_handle_terminate_pdu

i.ll_handle_terminate_request_pdu_ack
                0x000073a0       0x1e
 i.ll_handle_terminate_request_pdu_ack
                0x000073a0       0x1e C:\9047software\PSoC Creator\3.3\PSoC Creator\psoc\content\cycomponentlibrary\CyComponentLibrary.cylib\BLE_v2_0\Library\gccCyBLEStack_BLE_SOC_PERIPHERAL.a(ll_pdu.o)
                0x000073a0                ll_handle_terminate_request_pdu_ack

i.ll_handle_unknown_pdu
                0x000073be       0x1e
 i.ll_handle_unknown_pdu
                0x000073be       0x1e C:\9047software\PSoC Creator\3.3\PSoC Creator\psoc\content\cycomponentlibrary\CyComponentLibrary.cylib\BLE_v2_0\Library\gccCyBLEStack_BLE_SOC_PERIPHERAL.a(ll_pdu.o)
                0x000073be                ll_handle_unknown_pdu

i.ll_handle_unknown_response_pdu
                0x000073dc       0x22
 i.ll_handle_unknown_response_pdu
                0x000073dc       0x22 C:\9047software\PSoC Creator\3.3\PSoC Creator\psoc\content\cycomponentlibrary\CyComponentLibrary.cylib\BLE_v2_0\Library\gccCyBLEStack_BLE_SOC_PERIPHERAL.a(ll_pdu.o)
                0x000073dc                ll_handle_unknown_response_pdu

i.ll_handle_unknown_response_pdu_ack
                0x000073fe        0x2
 i.ll_handle_unknown_response_pdu_ack
                0x000073fe        0x2 C:\9047software\PSoC Creator\3.3\PSoC Creator\psoc\content\cycomponentlibrary\CyComponentLibrary.cylib\BLE_v2_0\Library\gccCyBLEStack_BLE_SOC_PERIPHERAL.a(ll_pdu.o)
                0x000073fe                ll_handle_unknown_response_pdu_ack

i.ll_handle_version_indication_pdu
                0x00007400       0x80
 i.ll_handle_version_indication_pdu
                0x00007400       0x80 C:\9047software\PSoC Creator\3.3\PSoC Creator\psoc\content\cycomponentlibrary\CyComponentLibrary.cylib\BLE_v2_0\Library\gccCyBLEStack_BLE_SOC_PERIPHERAL.a(ll_pdu.o)
                0x00007400                ll_handle_version_indication_pdu

i.ll_handle_version_indication_pdu_ack
                0x00007480        0x2
 i.ll_handle_version_indication_pdu_ack
                0x00007480        0x2 C:\9047software\PSoC Creator\3.3\PSoC Creator\psoc\content\cycomponentlibrary\CyComponentLibrary.cylib\BLE_v2_0\Library\gccCyBLEStack_BLE_SOC_PERIPHERAL.a(ll_pdu.o)
                0x00007480                ll_handle_version_indication_pdu_ack

i.ll_log_pdu    0x00007482        0x2
 i.ll_log_pdu   0x00007482        0x2 C:\9047software\PSoC Creator\3.3\PSoC Creator\psoc\content\cycomponentlibrary\CyComponentLibrary.cylib\BLE_v2_0\Library\gccCyBLEStack_BLE_SOC_PERIPHERAL.a(ll_pdu.o)
                0x00007482                ll_log_pdu

i.ll_program_channel_map_update
                0x00007484       0x28
 i.ll_program_channel_map_update
                0x00007484       0x28 C:\9047software\PSoC Creator\3.3\PSoC Creator\psoc\content\cycomponentlibrary\CyComponentLibrary.cylib\BLE_v2_0\Library\gccCyBLEStack_BLE_SOC_PERIPHERAL.a(ll_pdu.o)
                0x00007484                ll_program_channel_map_update

i.ll_send_encryption_response_pdu
                0x000074ac       0x34
 i.ll_send_encryption_response_pdu
                0x000074ac       0x34 C:\9047software\PSoC Creator\3.3\PSoC Creator\psoc\content\cycomponentlibrary\CyComponentLibrary.cylib\BLE_v2_0\Library\gccCyBLEStack_BLE_SOC_PERIPHERAL.a(ll_pdu.o)
                0x000074ac                ll_send_encryption_response_pdu

i.ll_send_feature_response_pdu
                0x000074e0       0x30
 i.ll_send_feature_response_pdu
                0x000074e0       0x30 C:\9047software\PSoC Creator\3.3\PSoC Creator\psoc\content\cycomponentlibrary\CyComponentLibrary.cylib\BLE_v2_0\Library\gccCyBLEStack_BLE_SOC_PERIPHERAL.a(ll_pdu.o)
                0x000074e0                ll_send_feature_response_pdu

i.ll_send_pause_encryption_response_pdu
                0x00007510       0x16
 i.ll_send_pause_encryption_response_pdu
                0x00007510       0x16 C:\9047software\PSoC Creator\3.3\PSoC Creator\psoc\content\cycomponentlibrary\CyComponentLibrary.cylib\BLE_v2_0\Library\gccCyBLEStack_BLE_SOC_PERIPHERAL.a(ll_pdu.o)
                0x00007510                ll_send_pause_encryption_response_pdu

i.ll_send_pending_pdu
                0x00007528       0x64
 i.ll_send_pending_pdu
                0x00007528       0x64 C:\9047software\PSoC Creator\3.3\PSoC Creator\psoc\content\cycomponentlibrary\CyComponentLibrary.cylib\BLE_v2_0\Library\gccCyBLEStack_BLE_SOC_PERIPHERAL.a(ll_pdu.o)
                0x00007528                ll_send_pending_pdu

i.ll_send_ping_req_pdu
                0x0000758c       0x18
 i.ll_send_ping_req_pdu
                0x0000758c       0x18 C:\9047software\PSoC Creator\3.3\PSoC Creator\psoc\content\cycomponentlibrary\CyComponentLibrary.cylib\BLE_v2_0\Library\gccCyBLEStack_BLE_SOC_PERIPHERAL.a(ll_pdu.o)
                0x0000758c                ll_send_ping_req_pdu

i.ll_send_ping_rsp_pdu
                0x000075a4       0x18
 i.ll_send_ping_rsp_pdu
                0x000075a4       0x18 C:\9047software\PSoC Creator\3.3\PSoC Creator\psoc\content\cycomponentlibrary\CyComponentLibrary.cylib\BLE_v2_0\Library\gccCyBLEStack_BLE_SOC_PERIPHERAL.a(ll_pdu.o)
                0x000075a4                ll_send_ping_rsp_pdu

i.ll_send_reject_indication_pdu
                0x000075bc       0x2c
 i.ll_send_reject_indication_pdu
                0x000075bc       0x2c C:\9047software\PSoC Creator\3.3\PSoC Creator\psoc\content\cycomponentlibrary\CyComponentLibrary.cylib\BLE_v2_0\Library\gccCyBLEStack_BLE_SOC_PERIPHERAL.a(ll_pdu.o)
                0x000075bc                ll_send_reject_indication_pdu

i.ll_send_start_encryption_request_pdu
                0x000075e8       0x16
 i.ll_send_start_encryption_request_pdu
                0x000075e8       0x16 C:\9047software\PSoC Creator\3.3\PSoC Creator\psoc\content\cycomponentlibrary\CyComponentLibrary.cylib\BLE_v2_0\Library\gccCyBLEStack_BLE_SOC_PERIPHERAL.a(ll_pdu.o)
                0x000075e8                ll_send_start_encryption_request_pdu

i.ll_send_start_encryption_response_pdu
                0x000075fe       0x16
 i.ll_send_start_encryption_response_pdu
                0x000075fe       0x16 C:\9047software\PSoC Creator\3.3\PSoC Creator\psoc\content\cycomponentlibrary\CyComponentLibrary.cylib\BLE_v2_0\Library\gccCyBLEStack_BLE_SOC_PERIPHERAL.a(ll_pdu.o)
                0x000075fe                ll_send_start_encryption_response_pdu

i.ll_send_terminate_pdu
                0x00007614       0x38
 i.ll_send_terminate_pdu
                0x00007614       0x38 C:\9047software\PSoC Creator\3.3\PSoC Creator\psoc\content\cycomponentlibrary\CyComponentLibrary.cylib\BLE_v2_0\Library\gccCyBLEStack_BLE_SOC_PERIPHERAL.a(ll_pdu.o)
                0x00007614                ll_send_terminate_pdu

i.ll_send_unknown_response_pdu
                0x0000764c       0x1a
 i.ll_send_unknown_response_pdu
                0x0000764c       0x1a C:\9047software\PSoC Creator\3.3\PSoC Creator\psoc\content\cycomponentlibrary\CyComponentLibrary.cylib\BLE_v2_0\Library\gccCyBLEStack_BLE_SOC_PERIPHERAL.a(ll_pdu.o)
                0x0000764c                ll_send_unknown_response_pdu

i.ll_send_version_indication_pdu
                0x00007668       0x34
 i.ll_send_version_indication_pdu
                0x00007668       0x34 C:\9047software\PSoC Creator\3.3\PSoC Creator\psoc\content\cycomponentlibrary\CyComponentLibrary.cylib\BLE_v2_0\Library\gccCyBLEStack_BLE_SOC_PERIPHERAL.a(ll_pdu.o)
                0x00007668                ll_send_version_indication_pdu

i.ll_update_connection_update_parameters
                0x0000769c       0x8c
 i.ll_update_connection_update_parameters
                0x0000769c       0x8c C:\9047software\PSoC Creator\3.3\PSoC Creator\psoc\content\cycomponentlibrary\CyComponentLibrary.cylib\BLE_v2_0\Library\gccCyBLEStack_BLE_SOC_PERIPHERAL.a(ll_pdu.o)

i.ll_derive_adv_interval
                0x00007728        0x8
 i.ll_derive_adv_interval
                0x00007728        0x8 C:\9047software\PSoC Creator\3.3\PSoC Creator\psoc\content\cycomponentlibrary\CyComponentLibrary.cylib\BLE_v2_0\Library\gccCyBLEStack_BLE_SOC_PERIPHERAL.a(ll_policies.o)
                0x00007728                ll_derive_adv_interval

i.ll_derive_ce_length_for_slave
                0x00007730       0x3c
 i.ll_derive_ce_length_for_slave
                0x00007730       0x3c C:\9047software\PSoC Creator\3.3\PSoC Creator\psoc\content\cycomponentlibrary\CyComponentLibrary.cylib\BLE_v2_0\Library\gccCyBLEStack_BLE_SOC_PERIPHERAL.a(ll_policies.o)
                0x00007730                ll_derive_ce_length_for_slave

i.ll_derive_params
                0x0000776c        0x6
 i.ll_derive_params
                0x0000776c        0x6 C:\9047software\PSoC Creator\3.3\PSoC Creator\psoc\content\cycomponentlibrary\CyComponentLibrary.cylib\BLE_v2_0\Library\gccCyBLEStack_BLE_SOC_PERIPHERAL.a(ll_policies.o)
                0x0000776c                ll_derive_params

i.ll_decode_interrupt_type
                0x00007772       0x1c
 i.ll_decode_interrupt_type
                0x00007772       0x1c C:\9047software\PSoC Creator\3.3\PSoC Creator\psoc\content\cycomponentlibrary\CyComponentLibrary.cylib\BLE_v2_0\Library\gccCyBLEStack_BLE_SOC_PERIPHERAL.a(ll_tasks.o)
                0x00007772                ll_decode_interrupt_type

i.ll_task_handler
                0x0000778e       0x60
 i.ll_task_handler
                0x0000778e       0x60 C:\9047software\PSoC Creator\3.3\PSoC Creator\psoc\content\cycomponentlibrary\CyComponentLibrary.cylib\BLE_v2_0\Library\gccCyBLEStack_BLE_SOC_PERIPHERAL.a(ll_tasks.o)
                0x0000778e                ll_task_handler

i.llh_isr_handler
                0x000077f0      0x1f4
 i.llh_isr_handler
                0x000077f0      0x1f4 C:\9047software\PSoC Creator\3.3\PSoC Creator\psoc\content\cycomponentlibrary\CyComponentLibrary.cylib\BLE_v2_0\Library\gccCyBLEStack_BLE_SOC_PERIPHERAL.a(ll_tasks.o)
                0x000077f0                llh_isr_handler

i.ll_ccm_load_inputs
                0x000079e4       0x4e
 i.ll_ccm_load_inputs
                0x000079e4       0x4e C:\9047software\PSoC Creator\3.3\PSoC Creator\psoc\content\cycomponentlibrary\CyComponentLibrary.cylib\BLE_v2_0\Library\gccCyBLEStack_BLE_SOC_PERIPHERAL.a(ll_utils.o)
                0x000079e4                ll_ccm_load_inputs

i.ll_check_random_address_in_use
                0x00007a34       0x1c
 i.ll_check_random_address_in_use
                0x00007a34       0x1c C:\9047software\PSoC Creator\3.3\PSoC Creator\psoc\content\cycomponentlibrary\CyComponentLibrary.cylib\BLE_v2_0\Library\gccCyBLEStack_BLE_SOC_PERIPHERAL.a(ll_utils.o)
                0x00007a34                ll_check_random_address_in_use

i.ll_check_white_list_in_use
                0x00007a50       0x1c
 i.ll_check_white_list_in_use
                0x00007a50       0x1c C:\9047software\PSoC Creator\3.3\PSoC Creator\psoc\content\cycomponentlibrary\CyComponentLibrary.cylib\BLE_v2_0\Library\gccCyBLEStack_BLE_SOC_PERIPHERAL.a(ll_utils.o)
                0x00007a50                ll_check_white_list_in_use

i.ll_decryption_aes_ccm_mode
                0x00007a6c       0x3c
 i.ll_decryption_aes_ccm_mode
                0x00007a6c       0x3c C:\9047software\PSoC Creator\3.3\PSoC Creator\psoc\content\cycomponentlibrary\CyComponentLibrary.cylib\BLE_v2_0\Library\gccCyBLEStack_BLE_SOC_PERIPHERAL.a(ll_utils.o)
                0x00007a6c                ll_decryption_aes_ccm_mode

i.ll_encrypt    0x00007aa8       0x28
 i.ll_encrypt   0x00007aa8       0x28 C:\9047software\PSoC Creator\3.3\PSoC Creator\psoc\content\cycomponentlibrary\CyComponentLibrary.cylib\BLE_v2_0\Library\gccCyBLEStack_BLE_SOC_PERIPHERAL.a(ll_utils.o)
                0x00007aa8                ll_encrypt

i.ll_encryption_aes_ccm_mode
                0x00007ad0       0x36
 i.ll_encryption_aes_ccm_mode
                0x00007ad0       0x36 C:\9047software\PSoC Creator\3.3\PSoC Creator\psoc\content\cycomponentlibrary\CyComponentLibrary.cylib\BLE_v2_0\Library\gccCyBLEStack_BLE_SOC_PERIPHERAL.a(ll_utils.o)
                0x00007ad0                ll_encryption_aes_ccm_mode

i.ll_get_event_param_buffer
                0x00007b08        0x8
 i.ll_get_event_param_buffer
                0x00007b08        0x8 C:\9047software\PSoC Creator\3.3\PSoC Creator\psoc\content\cycomponentlibrary\CyComponentLibrary.cylib\BLE_v2_0\Library\gccCyBLEStack_BLE_SOC_PERIPHERAL.a(ll_utils.o)
                0x00007b08                ll_get_event_param_buffer

i.ll_get_local_sca
                0x00007b10       0x12
 i.ll_get_local_sca
                0x00007b10       0x12 C:\9047software\PSoC Creator\3.3\PSoC Creator\psoc\content\cycomponentlibrary\CyComponentLibrary.cylib\BLE_v2_0\Library\gccCyBLEStack_BLE_SOC_PERIPHERAL.a(ll_utils.o)
                0x00007b10                ll_get_local_sca

i.ll_get_nearest_instant
                0x00007b24      0x170
 i.ll_get_nearest_instant
                0x00007b24      0x170 C:\9047software\PSoC Creator\3.3\PSoC Creator\psoc\content\cycomponentlibrary\CyComponentLibrary.cylib\BLE_v2_0\Library\gccCyBLEStack_BLE_SOC_PERIPHERAL.a(ll_utils.o)
                0x00007b24                ll_get_nearest_instant

i.ll_init_lfsr  0x00007c94       0x34
 i.ll_init_lfsr
                0x00007c94       0x34 C:\9047software\PSoC Creator\3.3\PSoC Creator\psoc\content\cycomponentlibrary\CyComponentLibrary.cylib\BLE_v2_0\Library\gccCyBLEStack_BLE_SOC_PERIPHERAL.a(ll_utils.o)
                0x00007c94                ll_init_lfsr

i.ll_pack_ccm_nonce
                0x00007cc8       0x36
 i.ll_pack_ccm_nonce
                0x00007cc8       0x36 C:\9047software\PSoC Creator\3.3\PSoC Creator\psoc\content\cycomponentlibrary\CyComponentLibrary.cylib\BLE_v2_0\Library\gccCyBLEStack_BLE_SOC_PERIPHERAL.a(ll_utils.o)
                0x00007cc8                ll_pack_ccm_nonce

i.ll_unpack_ccm_nonce
                0x00007cfe       0x4a
 i.ll_unpack_ccm_nonce
                0x00007cfe       0x4a C:\9047software\PSoC Creator\3.3\PSoC Creator\psoc\content\cycomponentlibrary\CyComponentLibrary.cylib\BLE_v2_0\Library\gccCyBLEStack_BLE_SOC_PERIPHERAL.a(ll_utils.o)
                0x00007cfe                ll_unpack_ccm_nonce

i.pf_get_lfsr_random_number
                0x00007d48       0x2c
 i.pf_get_lfsr_random_number
                0x00007d48       0x2c C:\9047software\PSoC Creator\3.3\PSoC Creator\psoc\content\cycomponentlibrary\CyComponentLibrary.cylib\BLE_v2_0\Library\gccCyBLEStack_BLE_SOC_PERIPHERAL.a(ll_utils.o)
                0x00007d48                pf_get_lfsr_random_number

i.isBleControllerLLFTFree
                0x00007d74       0x14
 i.isBleControllerLLFTFree
                0x00007d74       0x14 C:\9047software\PSoC Creator\3.3\PSoC Creator\psoc\content\cycomponentlibrary\CyComponentLibrary.cylib\BLE_v2_0\Library\gccCyBLEStack_BLE_SOC_PERIPHERAL.a(llf_task.o)
                0x00007d74                isBleControllerLLFTFree

i.isr_llf_task_enqueue
                0x00007d88        0xa
 i.isr_llf_task_enqueue
                0x00007d88        0xa C:\9047software\PSoC Creator\3.3\PSoC Creator\psoc\content\cycomponentlibrary\CyComponentLibrary.cylib\BLE_v2_0\Library\gccCyBLEStack_BLE_SOC_PERIPHERAL.a(llf_task.o)
                0x00007d88                isr_llf_task_enqueue

i.llf_task_bt_init
                0x00007d94       0x1c
 i.llf_task_bt_init
                0x00007d94       0x1c C:\9047software\PSoC Creator\3.3\PSoC Creator\psoc\content\cycomponentlibrary\CyComponentLibrary.cylib\BLE_v2_0\Library\gccCyBLEStack_BLE_SOC_PERIPHERAL.a(llf_task.o)
                0x00007d94                llf_task_bt_init

i.llf_task_enqueue
                0x00007db0        0xa
 i.llf_task_enqueue
                0x00007db0        0xa C:\9047software\PSoC Creator\3.3\PSoC Creator\psoc\content\cycomponentlibrary\CyComponentLibrary.cylib\BLE_v2_0\Library\gccCyBLEStack_BLE_SOC_PERIPHERAL.a(llf_task.o)
                0x00007db0                llf_task_enqueue

i.llf_task_enqueue_msg
                0x00007dbc       0x8c
 i.llf_task_enqueue_msg
                0x00007dbc       0x8c C:\9047software\PSoC Creator\3.3\PSoC Creator\psoc\content\cycomponentlibrary\CyComponentLibrary.cylib\BLE_v2_0\Library\gccCyBLEStack_BLE_SOC_PERIPHERAL.a(llf_task.o)

i.llf_task_init
                0x00007e48       0x5c
 i.llf_task_init
                0x00007e48       0x5c C:\9047software\PSoC Creator\3.3\PSoC Creator\psoc\content\cycomponentlibrary\CyComponentLibrary.cylib\BLE_v2_0\Library\gccCyBLEStack_BLE_SOC_PERIPHERAL.a(llf_task.o)
                0x00007e48                llf_task_init

i.llf_task_start_routine
                0x00007ea4       0x50
 i.llf_task_start_routine
                0x00007ea4       0x50 C:\9047software\PSoC Creator\3.3\PSoC Creator\psoc\content\cycomponentlibrary\CyComponentLibrary.cylib\BLE_v2_0\Library\gccCyBLEStack_BLE_SOC_PERIPHERAL.a(llf_task.o)
                0x00007ea4                llf_task_start_routine

i.llft_service_queue
                0x00007ef4       0x88
 i.llft_service_queue
                0x00007ef4       0x88 C:\9047software\PSoC Creator\3.3\PSoC Creator\psoc\content\cycomponentlibrary\CyComponentLibrary.cylib\BLE_v2_0\Library\gccCyBLEStack_BLE_SOC_PERIPHERAL.a(llf_task.o)
                0x00007ef4                llft_service_queue

i.hci_le_generate_command_complete_event
                0x00007f7c       0x14
 i.hci_le_generate_command_complete_event
                0x00007f7c       0x14 C:\9047software\PSoC Creator\3.3\PSoC Creator\psoc\content\cycomponentlibrary\CyComponentLibrary.cylib\BLE_v2_0\Library\gccCyBLEStack_BLE_SOC_PERIPHERAL.a(lec_hci_le.o)
                0x00007f7c                hci_le_generate_command_complete_event

i.hci_le_generate_event
                0x00007f90       0x22
 i.hci_le_generate_event
                0x00007f90       0x22 C:\9047software\PSoC Creator\3.3\PSoC Creator\psoc\content\cycomponentlibrary\CyComponentLibrary.cylib\BLE_v2_0\Library\gccCyBLEStack_BLE_SOC_PERIPHERAL.a(lec_hci_le.o)
                0x00007f90                hci_le_generate_event

i.lec_get_expected_cmd_param_length
                0x00007fb2       0x14
 i.lec_get_expected_cmd_param_length
                0x00007fb2       0x14 C:\9047software\PSoC Creator\3.3\PSoC Creator\psoc\content\cycomponentlibrary\CyComponentLibrary.cylib\BLE_v2_0\Library\gccCyBLEStack_BLE_SOC_PERIPHERAL.a(lec_hci_le.o)
                0x00007fb2                lec_get_expected_cmd_param_length

i.lec_hci_handle_command_pkts
                0x00007fc8       0xa0
 i.lec_hci_handle_command_pkts
                0x00007fc8       0xa0 C:\9047software\PSoC Creator\3.3\PSoC Creator\psoc\content\cycomponentlibrary\CyComponentLibrary.cylib\BLE_v2_0\Library\gccCyBLEStack_BLE_SOC_PERIPHERAL.a(lec_hci_le.o)
                0x00007fc8                lec_hci_handle_command_pkts

i.lec_hci_handle_commands
                0x00008068       0x7c
 i.lec_hci_handle_commands
                0x00008068       0x7c C:\9047software\PSoC Creator\3.3\PSoC Creator\psoc\content\cycomponentlibrary\CyComponentLibrary.cylib\BLE_v2_0\Library\gccCyBLEStack_BLE_SOC_PERIPHERAL.a(lec_hci_le.o)
                0x00008068                lec_hci_handle_commands

i.ll_hci_get_num_commands_pkts
                0x000080e4        0xc
 i.ll_hci_get_num_commands_pkts
                0x000080e4        0xc C:\9047software\PSoC Creator\3.3\PSoC Creator\psoc\content\cycomponentlibrary\CyComponentLibrary.cylib\BLE_v2_0\Library\gccCyBLEStack_BLE_SOC_PERIPHERAL.a(lec_hci_le.o)
                0x000080e4                ll_hci_get_num_commands_pkts

i.hci_le_generate_command_status_event
                0x000080f0       0x3c
 i.hci_le_generate_command_status_event
                0x000080f0       0x3c C:\9047software\PSoC Creator\3.3\PSoC Creator\psoc\content\cycomponentlibrary\CyComponentLibrary.cylib\BLE_v2_0\Library\gccCyBLEStack_BLE_SOC_PERIPHERAL.a(lec_hci_le_commands.o)
                0x000080f0                hci_le_generate_command_status_event

i.lec_generate_le_command_complete_event
                0x0000812c      0x144
 i.lec_generate_le_command_complete_event
                0x0000812c      0x144 C:\9047software\PSoC Creator\3.3\PSoC Creator\psoc\content\cycomponentlibrary\CyComponentLibrary.cylib\BLE_v2_0\Library\gccCyBLEStack_BLE_SOC_PERIPHERAL.a(lec_hci_le_commands.o)
                0x0000812c                lec_generate_le_command_complete_event

i.lec_get_expected_le_cmd_param_length
                0x00008270       0x1c
 i.lec_get_expected_le_cmd_param_length
                0x00008270       0x1c C:\9047software\PSoC Creator\3.3\PSoC Creator\psoc\content\cycomponentlibrary\CyComponentLibrary.cylib\BLE_v2_0\Library\gccCyBLEStack_BLE_SOC_PERIPHERAL.a(lec_hci_le_commands.o)
                0x00008270                lec_get_expected_le_cmd_param_length

i.lec_hci_convert_le_command_params
                0x0000828c       0x18
 i.lec_hci_convert_le_command_params
                0x0000828c       0x18 C:\9047software\PSoC Creator\3.3\PSoC Creator\psoc\content\cycomponentlibrary\CyComponentLibrary.cylib\BLE_v2_0\Library\gccCyBLEStack_BLE_SOC_PERIPHERAL.a(lec_hci_le_commands.o)
                0x0000828c                lec_hci_convert_le_command_params

i.lec_hci_fill_command_complete_header
                0x000082a4       0x1c
 i.lec_hci_fill_command_complete_header
                0x000082a4       0x1c C:\9047software\PSoC Creator\3.3\PSoC Creator\psoc\content\cycomponentlibrary\CyComponentLibrary.cylib\BLE_v2_0\Library\gccCyBLEStack_BLE_SOC_PERIPHERAL.a(lec_hci_le_commands.o)
                0x000082a4                lec_hci_fill_command_complete_header

i.lec_hci_handle_le_command
                0x000082c0       0x38
 i.lec_hci_handle_le_command
                0x000082c0       0x38 C:\9047software\PSoC Creator\3.3\PSoC Creator\psoc\content\cycomponentlibrary\CyComponentLibrary.cylib\BLE_v2_0\Library\gccCyBLEStack_BLE_SOC_PERIPHERAL.a(lec_hci_le_commands.o)
                0x000082c0                lec_hci_handle_le_command

i.hci_le_set_supported_commands
                0x000082f8       0x68
 i.hci_le_set_supported_commands
                0x000082f8       0x68 C:\9047software\PSoC Creator\3.3\PSoC Creator\psoc\content\cycomponentlibrary\CyComponentLibrary.cylib\BLE_v2_0\Library\gccCyBLEStack_BLE_SOC_PERIPHERAL.a(lec_hci_le_common_commands.o)
                0x000082f8                hci_le_set_supported_commands

i.lec_hci_handle_add_to_white_list_command
                0x00008360        0x8
 i.lec_hci_handle_add_to_white_list_command
                0x00008360        0x8 C:\9047software\PSoC Creator\3.3\PSoC Creator\psoc\content\cycomponentlibrary\CyComponentLibrary.cylib\BLE_v2_0\Library\gccCyBLEStack_BLE_SOC_PERIPHERAL.a(lec_hci_le_common_commands.o)
                0x00008360                lec_hci_handle_add_to_white_list_command

i.lec_hci_handle_clear_white_list_command
                0x00008368        0x8
 i.lec_hci_handle_clear_white_list_command
                0x00008368        0x8 C:\9047software\PSoC Creator\3.3\PSoC Creator\psoc\content\cycomponentlibrary\CyComponentLibrary.cylib\BLE_v2_0\Library\gccCyBLEStack_BLE_SOC_PERIPHERAL.a(lec_hci_le_common_commands.o)
                0x00008368                lec_hci_handle_clear_white_list_command

i.lec_hci_handle_le_default_command
                0x00008370        0x4
 i.lec_hci_handle_le_default_command
                0x00008370        0x4 C:\9047software\PSoC Creator\3.3\PSoC Creator\psoc\content\cycomponentlibrary\CyComponentLibrary.cylib\BLE_v2_0\Library\gccCyBLEStack_BLE_SOC_PERIPHERAL.a(lec_hci_le_common_commands.o)
                0x00008370                lec_hci_handle_le_default_command

i.lec_hci_handle_le_unknown_hci_command
                0x00008374        0x4
 i.lec_hci_handle_le_unknown_hci_command
                0x00008374        0x4 C:\9047software\PSoC Creator\3.3\PSoC Creator\psoc\content\cycomponentlibrary\CyComponentLibrary.cylib\BLE_v2_0\Library\gccCyBLEStack_BLE_SOC_PERIPHERAL.a(lec_hci_le_common_commands.o)
                0x00008374                lec_hci_handle_le_unknown_hci_command

i.lec_hci_handle_read_channel_map_command
                0x00008378        0x8
 i.lec_hci_handle_read_channel_map_command
                0x00008378        0x8 C:\9047software\PSoC Creator\3.3\PSoC Creator\psoc\content\cycomponentlibrary\CyComponentLibrary.cylib\BLE_v2_0\Library\gccCyBLEStack_BLE_SOC_PERIPHERAL.a(lec_hci_le_common_commands.o)
                0x00008378                lec_hci_handle_read_channel_map_command

i.lec_hci_handle_read_white_list_size_command
                0x00008380        0x4
 i.lec_hci_handle_read_white_list_size_command
                0x00008380        0x4 C:\9047software\PSoC Creator\3.3\PSoC Creator\psoc\content\cycomponentlibrary\CyComponentLibrary.cylib\BLE_v2_0\Library\gccCyBLEStack_BLE_SOC_PERIPHERAL.a(lec_hci_le_common_commands.o)
                0x00008380                lec_hci_handle_read_white_list_size_command

i.lec_hci_handle_rem_dev_from_white_list_command
                0x00008384        0x8
 i.lec_hci_handle_rem_dev_from_white_list_command
                0x00008384        0x8 C:\9047software\PSoC Creator\3.3\PSoC Creator\psoc\content\cycomponentlibrary\CyComponentLibrary.cylib\BLE_v2_0\Library\gccCyBLEStack_BLE_SOC_PERIPHERAL.a(lec_hci_le_common_commands.o)
                0x00008384                lec_hci_handle_rem_dev_from_white_list_command

i.lec_hci_handle_set_event_mask_command
                0x0000838c       0x10
 i.lec_hci_handle_set_event_mask_command
                0x0000838c       0x10 C:\9047software\PSoC Creator\3.3\PSoC Creator\psoc\content\cycomponentlibrary\CyComponentLibrary.cylib\BLE_v2_0\Library\gccCyBLEStack_BLE_SOC_PERIPHERAL.a(lec_hci_le_common_commands.o)
                0x0000838c                lec_hci_handle_set_event_mask_command

i.lec_hci_handle_set_random_address_command
                0x0000839c        0x8
 i.lec_hci_handle_set_random_address_command
                0x0000839c        0x8 C:\9047software\PSoC Creator\3.3\PSoC Creator\psoc\content\cycomponentlibrary\CyComponentLibrary.cylib\BLE_v2_0\Library\gccCyBLEStack_BLE_SOC_PERIPHERAL.a(lec_hci_le_common_commands.o)
                0x0000839c                lec_hci_handle_set_random_address_command

i.hci_generate_le_conn_update_complete_event
                0x000083a4       0x5a
 i.hci_generate_le_conn_update_complete_event
                0x000083a4       0x5a C:\9047software\PSoC Creator\3.3\PSoC Creator\psoc\content\cycomponentlibrary\CyComponentLibrary.cylib\BLE_v2_0\Library\gccCyBLEStack_BLE_SOC_PERIPHERAL.a(lec_hci_le_conn_commands.o)
                0x000083a4                hci_generate_le_conn_update_complete_event

i.hci_generate_le_connection_complete_event
                0x000083fe       0x76
 i.hci_generate_le_connection_complete_event
                0x000083fe       0x76 C:\9047software\PSoC Creator\3.3\PSoC Creator\psoc\content\cycomponentlibrary\CyComponentLibrary.cylib\BLE_v2_0\Library\gccCyBLEStack_BLE_SOC_PERIPHERAL.a(lec_hci_le_conn_commands.o)
                0x000083fe                hci_generate_le_connection_complete_event

i.hci_generate_le_encryption_change_event
                0x00008474       0x38
 i.hci_generate_le_encryption_change_event
                0x00008474       0x38 C:\9047software\PSoC Creator\3.3\PSoC Creator\psoc\content\cycomponentlibrary\CyComponentLibrary.cylib\BLE_v2_0\Library\gccCyBLEStack_BLE_SOC_PERIPHERAL.a(lec_hci_le_conn_commands.o)
                0x00008474                hci_generate_le_encryption_change_event

i.hci_generate_le_encryption_key_refresh_event
                0x000084ac       0x34
 i.hci_generate_le_encryption_key_refresh_event
                0x000084ac       0x34 C:\9047software\PSoC Creator\3.3\PSoC Creator\psoc\content\cycomponentlibrary\CyComponentLibrary.cylib\BLE_v2_0\Library\gccCyBLEStack_BLE_SOC_PERIPHERAL.a(lec_hci_le_conn_commands.o)
                0x000084ac                hci_generate_le_encryption_key_refresh_event

i.hci_generate_le_long_term_key_req_event
                0x000084e0       0x4e
 i.hci_generate_le_long_term_key_req_event
                0x000084e0       0x4e C:\9047software\PSoC Creator\3.3\PSoC Creator\psoc\content\cycomponentlibrary\CyComponentLibrary.cylib\BLE_v2_0\Library\gccCyBLEStack_BLE_SOC_PERIPHERAL.a(lec_hci_le_conn_commands.o)
                0x000084e0                hci_generate_le_long_term_key_req_event

i.hci_generate_le_no_of_completed_events
                0x0000852e       0x3e
 i.hci_generate_le_no_of_completed_events
                0x0000852e       0x3e C:\9047software\PSoC Creator\3.3\PSoC Creator\psoc\content\cycomponentlibrary\CyComponentLibrary.cylib\BLE_v2_0\Library\gccCyBLEStack_BLE_SOC_PERIPHERAL.a(lec_hci_le_conn_commands.o)
                0x0000852e                hci_generate_le_no_of_completed_events

i.hci_generate_le_remote_version_information_complete_event
                0x0000856c       0x50
 i.hci_generate_le_remote_version_information_complete_event
                0x0000856c       0x50 C:\9047software\PSoC Creator\3.3\PSoC Creator\psoc\content\cycomponentlibrary\CyComponentLibrary.cylib\BLE_v2_0\Library\gccCyBLEStack_BLE_SOC_PERIPHERAL.a(lec_hci_le_conn_commands.o)
                0x0000856c                hci_generate_le_remote_version_information_complete_event

i.hci_le_generate_authenticated_payload_timeout_expired_event
                0x000085bc       0x30
 i.hci_le_generate_authenticated_payload_timeout_expired_event
                0x000085bc       0x30 C:\9047software\PSoC Creator\3.3\PSoC Creator\psoc\content\cycomponentlibrary\CyComponentLibrary.cylib\BLE_v2_0\Library\gccCyBLEStack_BLE_SOC_PERIPHERAL.a(lec_hci_le_conn_commands.o)
                0x000085bc                hci_le_generate_authenticated_payload_timeout_expired_event

i.hci_le_generate_disconnection_complete_event
                0x000085ec       0x38
 i.hci_le_generate_disconnection_complete_event
                0x000085ec       0x38 C:\9047software\PSoC Creator\3.3\PSoC Creator\psoc\content\cycomponentlibrary\CyComponentLibrary.cylib\BLE_v2_0\Library\gccCyBLEStack_BLE_SOC_PERIPHERAL.a(lec_hci_le_conn_commands.o)
                0x000085ec                hci_le_generate_disconnection_complete_event

i.hci_le_generate_read_authenticated_payload_timeout_cmd_complete_event
                0x00008624       0x50
 i.hci_le_generate_read_authenticated_payload_timeout_cmd_complete_event
                0x00008624       0x50 C:\9047software\PSoC Creator\3.3\PSoC Creator\psoc\content\cycomponentlibrary\CyComponentLibrary.cylib\BLE_v2_0\Library\gccCyBLEStack_BLE_SOC_PERIPHERAL.a(lec_hci_le_conn_commands.o)
                0x00008624                hci_le_generate_read_authenticated_payload_timeout_cmd_complete_event

i.hci_le_generate_write_authenticated_payload_timeout_cmd_complete_event
                0x00008674       0x40
 i.hci_le_generate_write_authenticated_payload_timeout_cmd_complete_event
                0x00008674       0x40 C:\9047software\PSoC Creator\3.3\PSoC Creator\psoc\content\cycomponentlibrary\CyComponentLibrary.cylib\BLE_v2_0\Library\gccCyBLEStack_BLE_SOC_PERIPHERAL.a(lec_hci_le_conn_commands.o)
                0x00008674                hci_le_generate_write_authenticated_payload_timeout_cmd_complete_event

i.lec_hci_handle_longterm_key_req_neg_reply_command
                0x000086b4        0x8
 i.lec_hci_handle_longterm_key_req_neg_reply_command
                0x000086b4        0x8 C:\9047software\PSoC Creator\3.3\PSoC Creator\psoc\content\cycomponentlibrary\CyComponentLibrary.cylib\BLE_v2_0\Library\gccCyBLEStack_BLE_SOC_PERIPHERAL.a(lec_hci_le_conn_commands.o)
                0x000086b4                lec_hci_handle_longterm_key_req_neg_reply_command

i.lec_hci_handle_longterm_key_req_reply_command
                0x000086bc        0x8
 i.lec_hci_handle_longterm_key_req_reply_command
                0x000086bc        0x8 C:\9047software\PSoC Creator\3.3\PSoC Creator\psoc\content\cycomponentlibrary\CyComponentLibrary.cylib\BLE_v2_0\Library\gccCyBLEStack_BLE_SOC_PERIPHERAL.a(lec_hci_le_conn_commands.o)
                0x000086bc                lec_hci_handle_longterm_key_req_reply_command

i.hci_le_generate_encrypt_cmd_complete_event
                0x000086c4       0x44
 i.hci_le_generate_encrypt_cmd_complete_event
                0x000086c4       0x44 C:\9047software\PSoC Creator\3.3\PSoC Creator\psoc\content\cycomponentlibrary\CyComponentLibrary.cylib\BLE_v2_0\Library\gccCyBLEStack_BLE_SOC_PERIPHERAL.a(lec_hci_le_encryption_commands.o)
                0x000086c4                hci_le_generate_encrypt_cmd_complete_event

i.lec_hci_handle_encrypt_command
                0x00008708        0x8
 i.lec_hci_handle_encrypt_command
                0x00008708        0x8 C:\9047software\PSoC Creator\3.3\PSoC Creator\psoc\content\cycomponentlibrary\CyComponentLibrary.cylib\BLE_v2_0\Library\gccCyBLEStack_BLE_SOC_PERIPHERAL.a(lec_hci_le_encryption_commands.o)
                0x00008708                lec_hci_handle_encrypt_command

i.hci_alloc_event_buffer
                0x00008710        0xe
 i.hci_alloc_event_buffer
                0x00008710        0xe C:\9047software\PSoC Creator\3.3\PSoC Creator\psoc\content\cycomponentlibrary\CyComponentLibrary.cylib\BLE_v2_0\Library\gccCyBLEStack_BLE_SOC_PERIPHERAL.a(lec_hci_le_utils.o)
                0x00008710                hci_alloc_event_buffer

i.hci_free_event_buffer
                0x0000871e        0x8
 i.hci_free_event_buffer
                0x0000871e        0x8 C:\9047software\PSoC Creator\3.3\PSoC Creator\psoc\content\cycomponentlibrary\CyComponentLibrary.cylib\BLE_v2_0\Library\gccCyBLEStack_BLE_SOC_PERIPHERAL.a(lec_hci_le_utils.o)
                0x0000871e                hci_free_event_buffer

i.hci_le_handle_data_to_host
                0x00008728       0x68
 i.hci_le_handle_data_to_host
                0x00008728       0x68 C:\9047software\PSoC Creator\3.3\PSoC Creator\psoc\content\cycomponentlibrary\CyComponentLibrary.cylib\BLE_v2_0\Library\gccCyBLEStack_BLE_SOC_PERIPHERAL.a(lec_hci_le_utils.o)
                0x00008728                hci_le_handle_data_to_host

i.hci_le_handle_data_tx_completed
                0x00008790       0x5c
 i.hci_le_handle_data_tx_completed
                0x00008790       0x5c C:\9047software\PSoC Creator\3.3\PSoC Creator\psoc\content\cycomponentlibrary\CyComponentLibrary.cylib\BLE_v2_0\Library\gccCyBLEStack_BLE_SOC_PERIPHERAL.a(lec_hci_le_utils.o)
                0x00008790                hci_le_handle_data_tx_completed

i.hci_le_initialize_data
                0x000087ec       0x28
 i.hci_le_initialize_data
                0x000087ec       0x28 C:\9047software\PSoC Creator\3.3\PSoC Creator\psoc\content\cycomponentlibrary\CyComponentLibrary.cylib\BLE_v2_0\Library\gccCyBLEStack_BLE_SOC_PERIPHERAL.a(lec_hci_le_utils.o)
                0x000087ec                hci_le_initialize_data

i.hci_le_module_reset
                0x00008814        0xa
 i.hci_le_module_reset
                0x00008814        0xa C:\9047software\PSoC Creator\3.3\PSoC Creator\psoc\content\cycomponentlibrary\CyComponentLibrary.cylib\BLE_v2_0\Library\gccCyBLEStack_BLE_SOC_PERIPHERAL.a(lec_hci_le_utils.o)
                0x00008814                hci_le_module_reset

i.hci_le_pass_event_through_event_mask
                0x00008820       0x74
 i.hci_le_pass_event_through_event_mask
                0x00008820       0x74 C:\9047software\PSoC Creator\3.3\PSoC Creator\psoc\content\cycomponentlibrary\CyComponentLibrary.cylib\BLE_v2_0\Library\gccCyBLEStack_BLE_SOC_PERIPHERAL.a(lec_hci_le_utils.o)
                0x00008820                hci_le_pass_event_through_event_mask

i.lec_hci_convert_add_dev_whitelist_command
                0x00008894       0x16
 i.lec_hci_convert_add_dev_whitelist_command
                0x00008894       0x16 C:\9047software\PSoC Creator\3.3\PSoC Creator\psoc\content\cycomponentlibrary\CyComponentLibrary.cylib\BLE_v2_0\Library\gccCyBLEStack_BLE_SOC_PERIPHERAL.a(lec_hci_param_converter.o)
                0x00008894                lec_hci_convert_add_dev_whitelist_command

i.lec_hci_convert_br_edr_set_event_mask_command
                0x000088aa       0x10
 i.lec_hci_convert_br_edr_set_event_mask_command
                0x000088aa       0x10 C:\9047software\PSoC Creator\3.3\PSoC Creator\psoc\content\cycomponentlibrary\CyComponentLibrary.cylib\BLE_v2_0\Library\gccCyBLEStack_BLE_SOC_PERIPHERAL.a(lec_hci_param_converter.o)
                0x000088aa                lec_hci_convert_br_edr_set_event_mask_command

i.lec_hci_convert_connection_update_command
                0x000088ba        0x2
 i.lec_hci_convert_connection_update_command
                0x000088ba        0x2 C:\9047software\PSoC Creator\3.3\PSoC Creator\psoc\content\cycomponentlibrary\CyComponentLibrary.cylib\BLE_v2_0\Library\gccCyBLEStack_BLE_SOC_PERIPHERAL.a(lec_hci_param_converter.o)
                0x000088ba                lec_hci_convert_connection_update_command

i.lec_hci_convert_create_connection_command
                0x000088bc        0x2
 i.lec_hci_convert_create_connection_command
                0x000088bc        0x2 C:\9047software\PSoC Creator\3.3\PSoC Creator\psoc\content\cycomponentlibrary\CyComponentLibrary.cylib\BLE_v2_0\Library\gccCyBLEStack_BLE_SOC_PERIPHERAL.a(lec_hci_param_converter.o)
                0x000088bc                lec_hci_convert_create_connection_command

i.lec_hci_convert_default_command
                0x000088be        0x2
 i.lec_hci_convert_default_command
                0x000088be        0x2 C:\9047software\PSoC Creator\3.3\PSoC Creator\psoc\content\cycomponentlibrary\CyComponentLibrary.cylib\BLE_v2_0\Library\gccCyBLEStack_BLE_SOC_PERIPHERAL.a(lec_hci_param_converter.o)
                0x000088be                lec_hci_convert_default_command

i.lec_hci_convert_disconnect_command
                0x000088c0       0x12
 i.lec_hci_convert_disconnect_command
                0x000088c0       0x12 C:\9047software\PSoC Creator\3.3\PSoC Creator\psoc\content\cycomponentlibrary\CyComponentLibrary.cylib\BLE_v2_0\Library\gccCyBLEStack_BLE_SOC_PERIPHERAL.a(lec_hci_param_converter.o)
                0x000088c0                lec_hci_convert_disconnect_command

i.lec_hci_convert_encrypt_command
                0x000088d2       0x1e
 i.lec_hci_convert_encrypt_command
                0x000088d2       0x1e C:\9047software\PSoC Creator\3.3\PSoC Creator\psoc\content\cycomponentlibrary\CyComponentLibrary.cylib\BLE_v2_0\Library\gccCyBLEStack_BLE_SOC_PERIPHERAL.a(lec_hci_param_converter.o)
                0x000088d2                lec_hci_convert_encrypt_command

i.lec_hci_convert_long_term_key_req_neg_reply_command
                0x000088f0        0xe
 i.lec_hci_convert_long_term_key_req_neg_reply_command
                0x000088f0        0xe C:\9047software\PSoC Creator\3.3\PSoC Creator\psoc\content\cycomponentlibrary\CyComponentLibrary.cylib\BLE_v2_0\Library\gccCyBLEStack_BLE_SOC_PERIPHERAL.a(lec_hci_param_converter.o)
                0x000088f0                lec_hci_convert_long_term_key_req_neg_reply_command

i.lec_hci_convert_long_term_key_req_reply_command
                0x000088fe       0x1e
 i.lec_hci_convert_long_term_key_req_reply_command
                0x000088fe       0x1e C:\9047software\PSoC Creator\3.3\PSoC Creator\psoc\content\cycomponentlibrary\CyComponentLibrary.cylib\BLE_v2_0\Library\gccCyBLEStack_BLE_SOC_PERIPHERAL.a(lec_hci_param_converter.o)
                0x000088fe                lec_hci_convert_long_term_key_req_reply_command

i.lec_hci_convert_read_authenticated_payload_timeout_command
                0x0000891c        0xe
 i.lec_hci_convert_read_authenticated_payload_timeout_command
                0x0000891c        0xe C:\9047software\PSoC Creator\3.3\PSoC Creator\psoc\content\cycomponentlibrary\CyComponentLibrary.cylib\BLE_v2_0\Library\gccCyBLEStack_BLE_SOC_PERIPHERAL.a(lec_hci_param_converter.o)
                0x0000891c                lec_hci_convert_read_authenticated_payload_timeout_command

i.lec_hci_convert_read_chn_map_command
                0x0000892a        0xe
 i.lec_hci_convert_read_chn_map_command
                0x0000892a        0xe C:\9047software\PSoC Creator\3.3\PSoC Creator\psoc\content\cycomponentlibrary\CyComponentLibrary.cylib\BLE_v2_0\Library\gccCyBLEStack_BLE_SOC_PERIPHERAL.a(lec_hci_param_converter.o)
                0x0000892a                lec_hci_convert_read_chn_map_command

i.lec_hci_convert_read_remote_used_feat_command
                0x00008938        0x2
 i.lec_hci_convert_read_remote_used_feat_command
                0x00008938        0x2 C:\9047software\PSoC Creator\3.3\PSoC Creator\psoc\content\cycomponentlibrary\CyComponentLibrary.cylib\BLE_v2_0\Library\gccCyBLEStack_BLE_SOC_PERIPHERAL.a(lec_hci_param_converter.o)
                0x00008938                lec_hci_convert_read_remote_used_feat_command

i.lec_hci_convert_read_rssi_command
                0x0000893a        0xe
 i.lec_hci_convert_read_rssi_command
                0x0000893a        0xe C:\9047software\PSoC Creator\3.3\PSoC Creator\psoc\content\cycomponentlibrary\CyComponentLibrary.cylib\BLE_v2_0\Library\gccCyBLEStack_BLE_SOC_PERIPHERAL.a(lec_hci_param_converter.o)
                0x0000893a                lec_hci_convert_read_rssi_command

i.lec_hci_convert_read_transmit_power_level_command
                0x00008948       0x12
 i.lec_hci_convert_read_transmit_power_level_command
                0x00008948       0x12 C:\9047software\PSoC Creator\3.3\PSoC Creator\psoc\content\cycomponentlibrary\CyComponentLibrary.cylib\BLE_v2_0\Library\gccCyBLEStack_BLE_SOC_PERIPHERAL.a(lec_hci_param_converter.o)
                0x00008948                lec_hci_convert_read_transmit_power_level_command

i.lec_hci_convert_receiver_test_command
                0x0000895a        0x6
 i.lec_hci_convert_receiver_test_command
                0x0000895a        0x6 C:\9047software\PSoC Creator\3.3\PSoC Creator\psoc\content\cycomponentlibrary\CyComponentLibrary.cylib\BLE_v2_0\Library\gccCyBLEStack_BLE_SOC_PERIPHERAL.a(lec_hci_param_converter.o)
                0x0000895a                lec_hci_convert_receiver_test_command

i.lec_hci_convert_remote_version_info_command
                0x00008960        0xe
 i.lec_hci_convert_remote_version_info_command
                0x00008960        0xe C:\9047software\PSoC Creator\3.3\PSoC Creator\psoc\content\cycomponentlibrary\CyComponentLibrary.cylib\BLE_v2_0\Library\gccCyBLEStack_BLE_SOC_PERIPHERAL.a(lec_hci_param_converter.o)
                0x00008960                lec_hci_convert_remote_version_info_command

i.lec_hci_convert_remove_dev_whitelist_command
                0x0000896e       0x16
 i.lec_hci_convert_remove_dev_whitelist_command
                0x0000896e       0x16 C:\9047software\PSoC Creator\3.3\PSoC Creator\psoc\content\cycomponentlibrary\CyComponentLibrary.cylib\BLE_v2_0\Library\gccCyBLEStack_BLE_SOC_PERIPHERAL.a(lec_hci_param_converter.o)
                0x0000896e                lec_hci_convert_remove_dev_whitelist_command

i.lec_hci_convert_set_adv_data_command
                0x00008984       0x16
 i.lec_hci_convert_set_adv_data_command
                0x00008984       0x16 C:\9047software\PSoC Creator\3.3\PSoC Creator\psoc\content\cycomponentlibrary\CyComponentLibrary.cylib\BLE_v2_0\Library\gccCyBLEStack_BLE_SOC_PERIPHERAL.a(lec_hci_param_converter.o)
                0x00008984                lec_hci_convert_set_adv_data_command

i.lec_hci_convert_set_adv_enable_command
                0x0000899a        0x6
 i.lec_hci_convert_set_adv_enable_command
                0x0000899a        0x6 C:\9047software\PSoC Creator\3.3\PSoC Creator\psoc\content\cycomponentlibrary\CyComponentLibrary.cylib\BLE_v2_0\Library\gccCyBLEStack_BLE_SOC_PERIPHERAL.a(lec_hci_param_converter.o)
                0x0000899a                lec_hci_convert_set_adv_enable_command

i.lec_hci_convert_set_adv_param_command
                0x000089a0       0x3e
 i.lec_hci_convert_set_adv_param_command
                0x000089a0       0x3e C:\9047software\PSoC Creator\3.3\PSoC Creator\psoc\content\cycomponentlibrary\CyComponentLibrary.cylib\BLE_v2_0\Library\gccCyBLEStack_BLE_SOC_PERIPHERAL.a(lec_hci_param_converter.o)
                0x000089a0                lec_hci_convert_set_adv_param_command

i.lec_hci_convert_set_event_mask_command
                0x000089de       0x12
 i.lec_hci_convert_set_event_mask_command
                0x000089de       0x12 C:\9047software\PSoC Creator\3.3\PSoC Creator\psoc\content\cycomponentlibrary\CyComponentLibrary.cylib\BLE_v2_0\Library\gccCyBLEStack_BLE_SOC_PERIPHERAL.a(lec_hci_param_converter.o)
                0x000089de                lec_hci_convert_set_event_mask_command

i.lec_hci_convert_set_host_chn_classsification_command
                0x000089f0        0x2
 i.lec_hci_convert_set_host_chn_classsification_command
                0x000089f0        0x2 C:\9047software\PSoC Creator\3.3\PSoC Creator\psoc\content\cycomponentlibrary\CyComponentLibrary.cylib\BLE_v2_0\Library\gccCyBLEStack_BLE_SOC_PERIPHERAL.a(lec_hci_param_converter.o)
                0x000089f0                lec_hci_convert_set_host_chn_classsification_command

i.lec_hci_convert_set_rand_address_command
                0x000089f2       0x10
 i.lec_hci_convert_set_rand_address_command
                0x000089f2       0x10 C:\9047software\PSoC Creator\3.3\PSoC Creator\psoc\content\cycomponentlibrary\CyComponentLibrary.cylib\BLE_v2_0\Library\gccCyBLEStack_BLE_SOC_PERIPHERAL.a(lec_hci_param_converter.o)
                0x000089f2                lec_hci_convert_set_rand_address_command

i.lec_hci_convert_set_scan_enable_command
                0x00008a02        0x2
 i.lec_hci_convert_set_scan_enable_command
                0x00008a02        0x2 C:\9047software\PSoC Creator\3.3\PSoC Creator\psoc\content\cycomponentlibrary\CyComponentLibrary.cylib\BLE_v2_0\Library\gccCyBLEStack_BLE_SOC_PERIPHERAL.a(lec_hci_param_converter.o)
                0x00008a02                lec_hci_convert_set_scan_enable_command

i.lec_hci_convert_set_scan_param_command
                0x00008a04        0x2
 i.lec_hci_convert_set_scan_param_command
                0x00008a04        0x2 C:\9047software\PSoC Creator\3.3\PSoC Creator\psoc\content\cycomponentlibrary\CyComponentLibrary.cylib\BLE_v2_0\Library\gccCyBLEStack_BLE_SOC_PERIPHERAL.a(lec_hci_param_converter.o)
                0x00008a04                lec_hci_convert_set_scan_param_command

i.lec_hci_convert_set_scan_response_command
                0x00008a06       0x16
 i.lec_hci_convert_set_scan_response_command
                0x00008a06       0x16 C:\9047software\PSoC Creator\3.3\PSoC Creator\psoc\content\cycomponentlibrary\CyComponentLibrary.cylib\BLE_v2_0\Library\gccCyBLEStack_BLE_SOC_PERIPHERAL.a(lec_hci_param_converter.o)
                0x00008a06                lec_hci_convert_set_scan_response_command

i.lec_hci_convert_start_encryption_command
                0x00008a1c       0x38
 i.lec_hci_convert_start_encryption_command
                0x00008a1c       0x38 C:\9047software\PSoC Creator\3.3\PSoC Creator\psoc\content\cycomponentlibrary\CyComponentLibrary.cylib\BLE_v2_0\Library\gccCyBLEStack_BLE_SOC_PERIPHERAL.a(lec_hci_param_converter.o)
                0x00008a1c                lec_hci_convert_start_encryption_command

i.lec_hci_convert_transmitter_test_command
                0x00008a54        0xe
 i.lec_hci_convert_transmitter_test_command
                0x00008a54        0xe C:\9047software\PSoC Creator\3.3\PSoC Creator\psoc\content\cycomponentlibrary\CyComponentLibrary.cylib\BLE_v2_0\Library\gccCyBLEStack_BLE_SOC_PERIPHERAL.a(lec_hci_param_converter.o)
                0x00008a54                lec_hci_convert_transmitter_test_command

i.lec_hci_convert_write_authenticated_payload_timeout_command
                0x00008a62       0x1a
 i.lec_hci_convert_write_authenticated_payload_timeout_command
                0x00008a62       0x1a C:\9047software\PSoC Creator\3.3\PSoC Creator\psoc\content\cycomponentlibrary\CyComponentLibrary.cylib\BLE_v2_0\Library\gccCyBLEStack_BLE_SOC_PERIPHERAL.a(lec_hci_param_converter.o)
                0x00008a62                lec_hci_convert_write_authenticated_payload_timeout_command

i.hci_validate_disconnection_command
                0x00008a7c       0x34
 i.hci_validate_disconnection_command
                0x00008a7c       0x34 C:\9047software\PSoC Creator\3.3\PSoC Creator\psoc\content\cycomponentlibrary\CyComponentLibrary.cylib\BLE_v2_0\Library\gccCyBLEStack_BLE_SOC_PERIPHERAL.a(lec_hci_param_validation.o)
                0x00008a7c                hci_validate_disconnection_command

i.hci_validate_le_add_rem_dev_in_wh_list_cmd
                0x00008ab0        0xe
 i.hci_validate_le_add_rem_dev_in_wh_list_cmd
                0x00008ab0        0xe C:\9047software\PSoC Creator\3.3\PSoC Creator\psoc\content\cycomponentlibrary\CyComponentLibrary.cylib\BLE_v2_0\Library\gccCyBLEStack_BLE_SOC_PERIPHERAL.a(lec_hci_param_validation.o)
                0x00008ab0                hci_validate_le_add_rem_dev_in_wh_list_cmd

i.hci_validate_le_clear_whitelist_command
                0x00008abe        0x4
 i.hci_validate_le_clear_whitelist_command
                0x00008abe        0x4 C:\9047software\PSoC Creator\3.3\PSoC Creator\psoc\content\cycomponentlibrary\CyComponentLibrary.cylib\BLE_v2_0\Library\gccCyBLEStack_BLE_SOC_PERIPHERAL.a(lec_hci_param_validation.o)
                0x00008abe                hci_validate_le_clear_whitelist_command

i.hci_validate_le_default_command
                0x00008ac2        0x4
 i.hci_validate_le_default_command
                0x00008ac2        0x4 C:\9047software\PSoC Creator\3.3\PSoC Creator\psoc\content\cycomponentlibrary\CyComponentLibrary.cylib\BLE_v2_0\Library\gccCyBLEStack_BLE_SOC_PERIPHERAL.a(lec_hci_param_validation.o)
                0x00008ac2                hci_validate_le_default_command

i.hci_validate_le_encrypt_cmd_params
                0x00008ac6        0x4
 i.hci_validate_le_encrypt_cmd_params
                0x00008ac6        0x4 C:\9047software\PSoC Creator\3.3\PSoC Creator\psoc\content\cycomponentlibrary\CyComponentLibrary.cylib\BLE_v2_0\Library\gccCyBLEStack_BLE_SOC_PERIPHERAL.a(lec_hci_param_validation.o)
                0x00008ac6                hci_validate_le_encrypt_cmd_params

i.hci_validate_le_longterm_key_req_neg_reply_command
                0x00008aca       0x14
 i.hci_validate_le_longterm_key_req_neg_reply_command
                0x00008aca       0x14 C:\9047software\PSoC Creator\3.3\PSoC Creator\psoc\content\cycomponentlibrary\CyComponentLibrary.cylib\BLE_v2_0\Library\gccCyBLEStack_BLE_SOC_PERIPHERAL.a(lec_hci_param_validation.o)
                0x00008aca                hci_validate_le_longterm_key_req_neg_reply_command

i.hci_validate_le_longterm_key_req_reply_command
                0x00008ade       0x14
 i.hci_validate_le_longterm_key_req_reply_command
                0x00008ade       0x14 C:\9047software\PSoC Creator\3.3\PSoC Creator\psoc\content\cycomponentlibrary\CyComponentLibrary.cylib\BLE_v2_0\Library\gccCyBLEStack_BLE_SOC_PERIPHERAL.a(lec_hci_param_validation.o)
                0x00008ade                hci_validate_le_longterm_key_req_reply_command

i.hci_validate_le_read_ch_map_command
                0x00008af2       0x14
 i.hci_validate_le_read_ch_map_command
                0x00008af2       0x14 C:\9047software\PSoC Creator\3.3\PSoC Creator\psoc\content\cycomponentlibrary\CyComponentLibrary.cylib\BLE_v2_0\Library\gccCyBLEStack_BLE_SOC_PERIPHERAL.a(lec_hci_param_validation.o)
                0x00008af2                hci_validate_le_read_ch_map_command

i.hci_validate_le_read_whitelist_size_command
                0x00008b06        0x4
 i.hci_validate_le_read_whitelist_size_command
                0x00008b06        0x4 C:\9047software\PSoC Creator\3.3\PSoC Creator\psoc\content\cycomponentlibrary\CyComponentLibrary.cylib\BLE_v2_0\Library\gccCyBLEStack_BLE_SOC_PERIPHERAL.a(lec_hci_param_validation.o)
                0x00008b06                hci_validate_le_read_whitelist_size_command

i.hci_validate_le_receiver_test_command
                0x00008b0a        0xe
 i.hci_validate_le_receiver_test_command
                0x00008b0a        0xe C:\9047software\PSoC Creator\3.3\PSoC Creator\psoc\content\cycomponentlibrary\CyComponentLibrary.cylib\BLE_v2_0\Library\gccCyBLEStack_BLE_SOC_PERIPHERAL.a(lec_hci_param_validation.o)
                0x00008b0a                hci_validate_le_receiver_test_command

i.hci_validate_le_set_adv_enable
                0x00008b18        0xe
 i.hci_validate_le_set_adv_enable
                0x00008b18        0xe C:\9047software\PSoC Creator\3.3\PSoC Creator\psoc\content\cycomponentlibrary\CyComponentLibrary.cylib\BLE_v2_0\Library\gccCyBLEStack_BLE_SOC_PERIPHERAL.a(lec_hci_param_validation.o)
                0x00008b18                hci_validate_le_set_adv_enable

i.hci_validate_le_set_adv_params_command
                0x00008b26       0x54
 i.hci_validate_le_set_adv_params_command
                0x00008b26       0x54 C:\9047software\PSoC Creator\3.3\PSoC Creator\psoc\content\cycomponentlibrary\CyComponentLibrary.cylib\BLE_v2_0\Library\gccCyBLEStack_BLE_SOC_PERIPHERAL.a(lec_hci_param_validation.o)
                0x00008b26                hci_validate_le_set_adv_params_command

i.hci_validate_le_set_adv_scan_resp_data_command
                0x00008b7a        0xe
 i.hci_validate_le_set_adv_scan_resp_data_command
                0x00008b7a        0xe C:\9047software\PSoC Creator\3.3\PSoC Creator\psoc\content\cycomponentlibrary\CyComponentLibrary.cylib\BLE_v2_0\Library\gccCyBLEStack_BLE_SOC_PERIPHERAL.a(lec_hci_param_validation.o)
                0x00008b7a                hci_validate_le_set_adv_scan_resp_data_command

i.hci_validate_le_set_event_mask_command
                0x00008b88       0x28
 i.hci_validate_le_set_event_mask_command
                0x00008b88       0x28 C:\9047software\PSoC Creator\3.3\PSoC Creator\psoc\content\cycomponentlibrary\CyComponentLibrary.cylib\BLE_v2_0\Library\gccCyBLEStack_BLE_SOC_PERIPHERAL.a(lec_hci_param_validation.o)
                0x00008b88                hci_validate_le_set_event_mask_command

i.hci_validate_le_set_host_ch_map_command
                0x00008bb0        0x4
 i.hci_validate_le_set_host_ch_map_command
                0x00008bb0        0x4 C:\9047software\PSoC Creator\3.3\PSoC Creator\psoc\content\cycomponentlibrary\CyComponentLibrary.cylib\BLE_v2_0\Library\gccCyBLEStack_BLE_SOC_PERIPHERAL.a(lec_hci_param_validation.o)
                0x00008bb0                hci_validate_le_set_host_ch_map_command

i.hci_validate_le_set_random_address_command
                0x00008bb4        0x4
 i.hci_validate_le_set_random_address_command
                0x00008bb4        0x4 C:\9047software\PSoC Creator\3.3\PSoC Creator\psoc\content\cycomponentlibrary\CyComponentLibrary.cylib\BLE_v2_0\Library\gccCyBLEStack_BLE_SOC_PERIPHERAL.a(lec_hci_param_validation.o)
                0x00008bb4                hci_validate_le_set_random_address_command

i.hci_validate_le_set_scan_enable
                0x00008bb8        0x4
 i.hci_validate_le_set_scan_enable
                0x00008bb8        0x4 C:\9047software\PSoC Creator\3.3\PSoC Creator\psoc\content\cycomponentlibrary\CyComponentLibrary.cylib\BLE_v2_0\Library\gccCyBLEStack_BLE_SOC_PERIPHERAL.a(lec_hci_param_validation.o)
                0x00008bb8                hci_validate_le_set_scan_enable

i.hci_validate_le_set_scan_params_command
                0x00008bbc        0x4
 i.hci_validate_le_set_scan_params_command
                0x00008bbc        0x4 C:\9047software\PSoC Creator\3.3\PSoC Creator\psoc\content\cycomponentlibrary\CyComponentLibrary.cylib\BLE_v2_0\Library\gccCyBLEStack_BLE_SOC_PERIPHERAL.a(lec_hci_param_validation.o)
                0x00008bbc                hci_validate_le_set_scan_params_command

i.hci_validate_le_test_end_command
                0x00008bc0        0x4
 i.hci_validate_le_test_end_command
                0x00008bc0        0x4 C:\9047software\PSoC Creator\3.3\PSoC Creator\psoc\content\cycomponentlibrary\CyComponentLibrary.cylib\BLE_v2_0\Library\gccCyBLEStack_BLE_SOC_PERIPHERAL.a(lec_hci_param_validation.o)
                0x00008bc0                hci_validate_le_test_end_command

i.hci_validate_le_transmitter_test_command
                0x00008bc4       0x1a
 i.hci_validate_le_transmitter_test_command
                0x00008bc4       0x1a C:\9047software\PSoC Creator\3.3\PSoC Creator\psoc\content\cycomponentlibrary\CyComponentLibrary.cylib\BLE_v2_0\Library\gccCyBLEStack_BLE_SOC_PERIPHERAL.a(lec_hci_param_validation.o)
                0x00008bc4                hci_validate_le_transmitter_test_command

i.hci_validate_read_authenticated_payload_timeout_command
                0x00008bde       0x14
 i.hci_validate_read_authenticated_payload_timeout_command
                0x00008bde       0x14 C:\9047software\PSoC Creator\3.3\PSoC Creator\psoc\content\cycomponentlibrary\CyComponentLibrary.cylib\BLE_v2_0\Library\gccCyBLEStack_BLE_SOC_PERIPHERAL.a(lec_hci_param_validation.o)
                0x00008bde                hci_validate_read_authenticated_payload_timeout_command

i.hci_validate_read_rssi_command
                0x00008bf2       0x14
 i.hci_validate_read_rssi_command
                0x00008bf2       0x14 C:\9047software\PSoC Creator\3.3\PSoC Creator\psoc\content\cycomponentlibrary\CyComponentLibrary.cylib\BLE_v2_0\Library\gccCyBLEStack_BLE_SOC_PERIPHERAL.a(lec_hci_param_validation.o)
                0x00008bf2                hci_validate_read_rssi_command

i.hci_validate_read_transmit_power_level_command
                0x00008c06       0x20
 i.hci_validate_read_transmit_power_level_command
                0x00008c06       0x20 C:\9047software\PSoC Creator\3.3\PSoC Creator\psoc\content\cycomponentlibrary\CyComponentLibrary.cylib\BLE_v2_0\Library\gccCyBLEStack_BLE_SOC_PERIPHERAL.a(lec_hci_param_validation.o)
                0x00008c06                hci_validate_read_transmit_power_level_command

i.hci_validate_reset_command
                0x00008c26        0x4
 i.hci_validate_reset_command
                0x00008c26        0x4 C:\9047software\PSoC Creator\3.3\PSoC Creator\psoc\content\cycomponentlibrary\CyComponentLibrary.cylib\BLE_v2_0\Library\gccCyBLEStack_BLE_SOC_PERIPHERAL.a(lec_hci_param_validation.o)
                0x00008c26                hci_validate_reset_command

i.hci_validate_write_authenticated_payload_timeout_command
                0x00008c2a       0x20
 i.hci_validate_write_authenticated_payload_timeout_command
                0x00008c2a       0x20 C:\9047software\PSoC Creator\3.3\PSoC Creator\psoc\content\cycomponentlibrary\CyComponentLibrary.cylib\BLE_v2_0\Library\gccCyBLEStack_BLE_SOC_PERIPHERAL.a(lec_hci_param_validation.o)
                0x00008c2a                hci_validate_write_authenticated_payload_timeout_command

i.hci_td_deliver_tx_packet
                0x00008c4c       0x34
 i.hci_td_deliver_tx_packet
                0x00008c4c       0x34 C:\9047software\PSoC Creator\3.3\PSoC Creator\psoc\content\cycomponentlibrary\CyComponentLibrary.cylib\BLE_v2_0\Library\gccCyBLEStack_BLE_SOC_PERIPHERAL.a(hci_td.o)
                0x00008c4c                hci_td_deliver_tx_packet

i.hci_td_enque_pkt
                0x00008c80       0x3c
 i.hci_td_enque_pkt
                0x00008c80       0x3c C:\9047software\PSoC Creator\3.3\PSoC Creator\psoc\content\cycomponentlibrary\CyComponentLibrary.cylib\BLE_v2_0\Library\gccCyBLEStack_BLE_SOC_PERIPHERAL.a(hci_td.o)
                0x00008c80                hci_td_enque_pkt

i.hci_td_handle_received_bytes
                0x00008cbc        0x2
 i.hci_td_handle_received_bytes
                0x00008cbc        0x2 C:\9047software\PSoC Creator\3.3\PSoC Creator\psoc\content\cycomponentlibrary\CyComponentLibrary.cylib\BLE_v2_0\Library\gccCyBLEStack_BLE_SOC_PERIPHERAL.a(hci_td.o)
                0x00008cbc                hci_td_handle_received_bytes

i.hci_td_handle_received_packet
                0x00008cbe       0x3e
 i.hci_td_handle_received_packet
                0x00008cbe       0x3e C:\9047software\PSoC Creator\3.3\PSoC Creator\psoc\content\cycomponentlibrary\CyComponentLibrary.cylib\BLE_v2_0\Library\gccCyBLEStack_BLE_SOC_PERIPHERAL.a(hci_td.o)
                0x00008cbe                hci_td_handle_received_packet

i.hci_td_tx_complete
                0x00008cfc       0x48
 i.hci_td_tx_complete
                0x00008cfc       0x48 C:\9047software\PSoC Creator\3.3\PSoC Creator\psoc\content\cycomponentlibrary\CyComponentLibrary.cylib\BLE_v2_0\Library\gccCyBLEStack_BLE_SOC_PERIPHERAL.a(hci_td.o)
                0x00008cfc                hci_td_tx_complete

i.hci_td_tx_packet
                0x00008d44        0xc
 i.hci_td_tx_packet
                0x00008d44        0xc C:\9047software\PSoC Creator\3.3\PSoC Creator\psoc\content\cycomponentlibrary\CyComponentLibrary.cylib\BLE_v2_0\Library\gccCyBLEStack_BLE_SOC_PERIPHERAL.a(hci_td.o)
                0x00008d44                hci_td_tx_packet

i.hci_td_tx_packet_data
                0x00008d50       0x1e
 i.hci_td_tx_packet_data
                0x00008d50       0x1e C:\9047software\PSoC Creator\3.3\PSoC Creator\psoc\content\cycomponentlibrary\CyComponentLibrary.cylib\BLE_v2_0\Library\gccCyBLEStack_BLE_SOC_PERIPHERAL.a(hci_td.o)
                0x00008d50                hci_td_tx_packet_data

i.pf_hci_transport_alloc_buffer
                0x00008d6e       0x28
 i.pf_hci_transport_alloc_buffer
                0x00008d6e       0x28 C:\9047software\PSoC Creator\3.3\PSoC Creator\psoc\content\cycomponentlibrary\CyComponentLibrary.cylib\BLE_v2_0\Library\gccCyBLEStack_BLE_SOC_PERIPHERAL.a(hci_td.o)
                0x00008d6e                pf_hci_transport_alloc_buffer

i.hci_td_deliver_acl_data_to_host
                0x00008d96       0x1e
 i.hci_td_deliver_acl_data_to_host
                0x00008d96       0x1e C:\9047software\PSoC Creator\3.3\PSoC Creator\psoc\content\cycomponentlibrary\CyComponentLibrary.cylib\BLE_v2_0\Library\gccCyBLEStack_BLE_SOC_PERIPHERAL.a(hci_td_api.o)
                0x00008d96                hci_td_deliver_acl_data_to_host

i.hci_td_deliver_event_to_host
                0x00008db4       0x22
 i.hci_td_deliver_event_to_host
                0x00008db4       0x22 C:\9047software\PSoC Creator\3.3\PSoC Creator\psoc\content\cycomponentlibrary\CyComponentLibrary.cylib\BLE_v2_0\Library\gccCyBLEStack_BLE_SOC_PERIPHERAL.a(hci_td_api.o)
                0x00008db4                hci_td_deliver_event_to_host

i.hci_td_handle_transport_init_completed
                0x00008dd6        0xc
 i.hci_td_handle_transport_init_completed
                0x00008dd6        0xc C:\9047software\PSoC Creator\3.3\PSoC Creator\psoc\content\cycomponentlibrary\CyComponentLibrary.cylib\BLE_v2_0\Library\gccCyBLEStack_BLE_SOC_PERIPHERAL.a(hci_td_api.o)
                0x00008dd6                hci_td_handle_transport_init_completed

i.hci_td_handle_tx_completed
                0x00008de2       0x2a
 i.hci_td_handle_tx_completed
                0x00008de2       0x2a C:\9047software\PSoC Creator\3.3\PSoC Creator\psoc\content\cycomponentlibrary\CyComponentLibrary.cylib\BLE_v2_0\Library\gccCyBLEStack_BLE_SOC_PERIPHERAL.a(hci_td_api.o)
                0x00008de2                hci_td_handle_tx_completed

i.hci_td_init   0x00008e0c       0x44
 i.hci_td_init  0x00008e0c       0x44 C:\9047software\PSoC Creator\3.3\PSoC Creator\psoc\content\cycomponentlibrary\CyComponentLibrary.cylib\BLE_v2_0\Library\gccCyBLEStack_BLE_SOC_PERIPHERAL.a(hci_td_api.o)
                0x00008e0c                hci_td_init

i.hci_td_process_signal
                0x00008e50       0x2c
 i.hci_td_process_signal
                0x00008e50       0x2c C:\9047software\PSoC Creator\3.3\PSoC Creator\psoc\content\cycomponentlibrary\CyComponentLibrary.cylib\BLE_v2_0\Library\gccCyBLEStack_BLE_SOC_PERIPHERAL.a(hci_td_task.o)
                0x00008e50                hci_td_process_signal

i.CyBle_BluetoothOnCmptCB
                0x00008e7c       0x7c
 i.CyBle_BluetoothOnCmptCB
                0x00008e7c       0x7c C:\9047software\PSoC Creator\3.3\PSoC Creator\psoc\content\cycomponentlibrary\CyComponentLibrary.cylib\BLE_v2_0\Library\gccCyBLEStack_BLE_SOC_PERIPHERAL.a(host_main.o)

i.CyBle_HostStackInit
                0x00008ef8       0x34
 i.CyBle_HostStackInit
                0x00008ef8       0x34 C:\9047software\PSoC Creator\3.3\PSoC Creator\psoc\content\cycomponentlibrary\CyComponentLibrary.cylib\BLE_v2_0\Library\gccCyBLEStack_BLE_SOC_PERIPHERAL.a(host_main.o)
                0x00008ef8                CyBle_HostStackInit

i.CyBle_HostStackOff
                0x00008f2c       0x10
 i.CyBle_HostStackOff
                0x00008f2c       0x10 C:\9047software\PSoC Creator\3.3\PSoC Creator\psoc\content\cycomponentlibrary\CyComponentLibrary.cylib\BLE_v2_0\Library\gccCyBLEStack_BLE_SOC_PERIPHERAL.a(host_main.o)
                0x00008f2c                CyBle_HostStackOff

i.CyBle_HostStackOn
                0x00008f3c       0x44
 i.CyBle_HostStackOn
                0x00008f3c       0x44 C:\9047software\PSoC Creator\3.3\PSoC Creator\psoc\content\cycomponentlibrary\CyComponentLibrary.cylib\BLE_v2_0\Library\gccCyBLEStack_BLE_SOC_PERIPHERAL.a(host_main.o)
                0x00008f3c                CyBle_HostStackOn

i.CyBle_SendEvToApp
                0x00008f80       0x14
 i.CyBle_SendEvToApp
                0x00008f80       0x14 C:\9047software\PSoC Creator\3.3\PSoC Creator\psoc\content\cycomponentlibrary\CyComponentLibrary.cylib\BLE_v2_0\Library\gccCyBLEStack_BLE_SOC_PERIPHERAL.a(host_main.o)
                0x00008f80                CyBle_SendEvToApp

i.BT_att_register
                0x00008f94       0x2c
 i.BT_att_register
                0x00008f94       0x2c C:\9047software\PSoC Creator\3.3\PSoC Creator\psoc\content\cycomponentlibrary\CyComponentLibrary.cylib\BLE_v2_0\Library\gccCyBLEStack_BLE_SOC_PERIPHERAL.a(att_api.o)
                0x00008f94                BT_att_register

i.BT_att_send_pdu
                0x00008fc0      0x63c
 i.BT_att_send_pdu
                0x00008fc0      0x63c C:\9047software\PSoC Creator\3.3\PSoC Creator\psoc\content\cycomponentlibrary\CyComponentLibrary.cylib\BLE_v2_0\Library\gccCyBLEStack_BLE_SOC_PERIPHERAL.a(att_api.o)
                0x00008fc0                BT_att_send_pdu

i.att_bt_init   0x000095fc       0x38
 i.att_bt_init  0x000095fc       0x38 C:\9047software\PSoC Creator\3.3\PSoC Creator\psoc\content\cycomponentlibrary\CyComponentLibrary.cylib\BLE_v2_0\Library\gccCyBLEStack_BLE_SOC_PERIPHERAL.a(att_init.o)
                0x000095fc                att_bt_init

i.att_bt_shutdown
                0x00009634        0x2
 i.att_bt_shutdown
                0x00009634        0x2 C:\9047software\PSoC Creator\3.3\PSoC Creator\psoc\content\cycomponentlibrary\CyComponentLibrary.cylib\BLE_v2_0\Library\gccCyBLEStack_BLE_SOC_PERIPHERAL.a(att_init.o)
                0x00009634                att_bt_shutdown

i.att_init      0x00009636        0x2
 i.att_init     0x00009636        0x2 C:\9047software\PSoC Creator\3.3\PSoC Creator\psoc\content\cycomponentlibrary\CyComponentLibrary.cylib\BLE_v2_0\Library\gccCyBLEStack_BLE_SOC_PERIPHERAL.a(att_init.o)
                0x00009636                att_init

i.att_access_state_handler
                0x00009638       0x18
 i.att_access_state_handler
                0x00009638       0x18 C:\9047software\PSoC Creator\3.3\PSoC Creator\psoc\content\cycomponentlibrary\CyComponentLibrary.cylib\BLE_v2_0\Library\gccCyBLEStack_BLE_SOC_PERIPHERAL.a(att_internal.o)
                0x00009638                att_access_state_handler

i.att_fsm_change_state
                0x00009650       0x78
 i.att_fsm_change_state
                0x00009650       0x78 C:\9047software\PSoC Creator\3.3\PSoC Creator\psoc\content\cycomponentlibrary\CyComponentLibrary.cylib\BLE_v2_0\Library\gccCyBLEStack_BLE_SOC_PERIPHERAL.a(att_internal.o)
                0x00009650                att_fsm_change_state

i.att_fsm_set_state
                0x000096c8       0x38
 i.att_fsm_set_state
                0x000096c8       0x38 C:\9047software\PSoC Creator\3.3\PSoC Creator\psoc\content\cycomponentlibrary\CyComponentLibrary.cylib\BLE_v2_0\Library\gccCyBLEStack_BLE_SOC_PERIPHERAL.a(att_internal.o)
                0x000096c8                att_fsm_set_state

i.att_get_fsm_event
                0x00009700       0x1e
 i.att_get_fsm_event
                0x00009700       0x1e C:\9047software\PSoC Creator\3.3\PSoC Creator\psoc\content\cycomponentlibrary\CyComponentLibrary.cylib\BLE_v2_0\Library\gccCyBLEStack_BLE_SOC_PERIPHERAL.a(att_internal.o)
                0x00009700                att_get_fsm_event

i.att_l2cap_data_cb
                0x00009720      0x130
 i.att_l2cap_data_cb
                0x00009720      0x130 C:\9047software\PSoC Creator\3.3\PSoC Creator\psoc\content\cycomponentlibrary\CyComponentLibrary.cylib\BLE_v2_0\Library\gccCyBLEStack_BLE_SOC_PERIPHERAL.a(att_internal.o)
                0x00009720                att_l2cap_data_cb

i.att_notify_application
                0x00009850       0x70
 i.att_notify_application
                0x00009850       0x70 C:\9047software\PSoC Creator\3.3\PSoC Creator\psoc\content\cycomponentlibrary\CyComponentLibrary.cylib\BLE_v2_0\Library\gccCyBLEStack_BLE_SOC_PERIPHERAL.a(att_internal.o)
                0x00009850                att_notify_application

i.att_pack_handle_list
                0x000098c0       0x48
 i.att_pack_handle_list
                0x000098c0       0x48 C:\9047software\PSoC Creator\3.3\PSoC Creator\psoc\content\cycomponentlibrary\CyComponentLibrary.cylib\BLE_v2_0\Library\gccCyBLEStack_BLE_SOC_PERIPHERAL.a(att_internal.o)
                0x000098c0                att_pack_handle_list

i.att_pack_handle_uuid_pair
                0x00009908       0x94
 i.att_pack_handle_uuid_pair
                0x00009908       0x94 C:\9047software\PSoC Creator\3.3\PSoC Creator\psoc\content\cycomponentlibrary\CyComponentLibrary.cylib\BLE_v2_0\Library\gccCyBLEStack_BLE_SOC_PERIPHERAL.a(att_internal.o)
                0x00009908                att_pack_handle_uuid_pair

i.att_pack_handle_value_pair
                0x0000999c       0x4c
 i.att_pack_handle_value_pair
                0x0000999c       0x4c C:\9047software\PSoC Creator\3.3\PSoC Creator\psoc\content\cycomponentlibrary\CyComponentLibrary.cylib\BLE_v2_0\Library\gccCyBLEStack_BLE_SOC_PERIPHERAL.a(att_internal.o)
                0x0000999c                att_pack_handle_value_pair

i.att_pack_value
                0x000099e8       0x44
 i.att_pack_value
                0x000099e8       0x44 C:\9047software\PSoC Creator\3.3\PSoC Creator\psoc\content\cycomponentlibrary\CyComponentLibrary.cylib\BLE_v2_0\Library\gccCyBLEStack_BLE_SOC_PERIPHERAL.a(att_internal.o)
                0x000099e8                att_pack_value

i.att_timer_cb  0x00009a2c       0x60
 i.att_timer_cb
                0x00009a2c       0x60 C:\9047software\PSoC Creator\3.3\PSoC Creator\psoc\content\cycomponentlibrary\CyComponentLibrary.cylib\BLE_v2_0\Library\gccCyBLEStack_BLE_SOC_PERIPHERAL.a(att_internal.o)
                0x00009a2c                att_timer_cb

i.att_transport_write
                0x00009a8c       0x48
 i.att_transport_write
                0x00009a8c       0x48 C:\9047software\PSoC Creator\3.3\PSoC Creator\psoc\content\cycomponentlibrary\CyComponentLibrary.cylib\BLE_v2_0\Library\gccCyBLEStack_BLE_SOC_PERIPHERAL.a(att_internal.o)
                0x00009a8c                att_transport_write

i.BT_bluetooth_get_stack_init_state
                0x00009ad4       0x1c
 i.BT_bluetooth_get_stack_init_state
                0x00009ad4       0x1c C:\9047software\PSoC Creator\3.3\PSoC Creator\psoc\content\cycomponentlibrary\CyComponentLibrary.cylib\BLE_v2_0\Library\gccCyBLEStack_BLE_SOC_PERIPHERAL.a(BT_common.o)
                0x00009ad4                BT_bluetooth_get_stack_init_state

i.BT_bluetooth_off
                0x00009af0       0x48
 i.BT_bluetooth_off
                0x00009af0       0x48 C:\9047software\PSoC Creator\3.3\PSoC Creator\psoc\content\cycomponentlibrary\CyComponentLibrary.cylib\BLE_v2_0\Library\gccCyBLEStack_BLE_SOC_PERIPHERAL.a(BT_common.o)
                0x00009af0                BT_bluetooth_off

i.BT_bluetooth_on
                0x00009b38       0x60
 i.BT_bluetooth_on
                0x00009b38       0x60 C:\9047software\PSoC Creator\3.3\PSoC Creator\psoc\content\cycomponentlibrary\CyComponentLibrary.cylib\BLE_v2_0\Library\gccCyBLEStack_BLE_SOC_PERIPHERAL.a(BT_common.o)
                0x00009b38                BT_bluetooth_on

i.BT_common_bluetooth_on_complete
                0x00009b98       0x20
 i.BT_common_bluetooth_on_complete
                0x00009b98       0x20 C:\9047software\PSoC Creator\3.3\PSoC Creator\psoc\content\cycomponentlibrary\CyComponentLibrary.cylib\BLE_v2_0\Library\gccCyBLEStack_BLE_SOC_PERIPHERAL.a(BT_common.o)
                0x00009b98                BT_common_bluetooth_on_complete

i.BT_ethermind_init
                0x00009bb8       0x40
 i.BT_ethermind_init
                0x00009bb8       0x40 C:\9047software\PSoC Creator\3.3\PSoC Creator\psoc\content\cycomponentlibrary\CyComponentLibrary.cylib\BLE_v2_0\Library\gccCyBLEStack_BLE_SOC_PERIPHERAL.a(BT_common.o)
                0x00009bb8                BT_ethermind_init

i.device_queue_alloc
                0x00009bf8       0x98
 i.device_queue_alloc
                0x00009bf8       0x98 C:\9047software\PSoC Creator\3.3\PSoC Creator\psoc\content\cycomponentlibrary\CyComponentLibrary.cylib\BLE_v2_0\Library\gccCyBLEStack_BLE_SOC_PERIPHERAL.a(device_queue.o)
                0x00009bf8                device_queue_alloc

i.device_queue_bt_init
                0x00009c90       0x40
 i.device_queue_bt_init
                0x00009c90       0x40 C:\9047software\PSoC Creator\3.3\PSoC Creator\psoc\content\cycomponentlibrary\CyComponentLibrary.cylib\BLE_v2_0\Library\gccCyBLEStack_BLE_SOC_PERIPHERAL.a(device_queue.o)
                0x00009c90                device_queue_bt_init

i.device_queue_bt_shutdown
                0x00009cd0        0x8
 i.device_queue_bt_shutdown
                0x00009cd0        0x8 C:\9047software\PSoC Creator\3.3\PSoC Creator\psoc\content\cycomponentlibrary\CyComponentLibrary.cylib\BLE_v2_0\Library\gccCyBLEStack_BLE_SOC_PERIPHERAL.a(device_queue.o)
                0x00009cd0                device_queue_bt_shutdown

i.device_queue_free
                0x00009cd8       0x6c
 i.device_queue_free
                0x00009cd8       0x6c C:\9047software\PSoC Creator\3.3\PSoC Creator\psoc\content\cycomponentlibrary\CyComponentLibrary.cylib\BLE_v2_0\Library\gccCyBLEStack_BLE_SOC_PERIPHERAL.a(device_queue.o)
                0x00009cd8                device_queue_free

i.device_queue_get_local_addr
                0x00009d44       0x44
 i.device_queue_get_local_addr
                0x00009d44       0x44 C:\9047software\PSoC Creator\3.3\PSoC Creator\psoc\content\cycomponentlibrary\CyComponentLibrary.cylib\BLE_v2_0\Library\gccCyBLEStack_BLE_SOC_PERIPHERAL.a(device_queue.o)
                0x00009d44                device_queue_get_local_addr

i.device_queue_get_remote_addr
                0x00009d88       0x44
 i.device_queue_get_remote_addr
                0x00009d88       0x44 C:\9047software\PSoC Creator\3.3\PSoC Creator\psoc\content\cycomponentlibrary\CyComponentLibrary.cylib\BLE_v2_0\Library\gccCyBLEStack_BLE_SOC_PERIPHERAL.a(device_queue.o)
                0x00009d88                device_queue_get_remote_addr

i.device_queue_init
                0x00009dcc       0x14
 i.device_queue_init
                0x00009dcc       0x14 C:\9047software\PSoC Creator\3.3\PSoC Creator\psoc\content\cycomponentlibrary\CyComponentLibrary.cylib\BLE_v2_0\Library\gccCyBLEStack_BLE_SOC_PERIPHERAL.a(device_queue.o)
                0x00009dcc                device_queue_init

i.device_queue_search_remote_addr
                0x00009de0       0x88
 i.device_queue_search_remote_addr
                0x00009de0       0x88 C:\9047software\PSoC Creator\3.3\PSoC Creator\psoc\content\cycomponentlibrary\CyComponentLibrary.cylib\BLE_v2_0\Library\gccCyBLEStack_BLE_SOC_PERIPHERAL.a(device_queue.o)
                0x00009de0                device_queue_search_remote_addr

i.device_queue_set_curr_addr_type
                0x00009e68       0x28
 i.device_queue_set_curr_addr_type
                0x00009e68       0x28 C:\9047software\PSoC Creator\3.3\PSoC Creator\psoc\content\cycomponentlibrary\CyComponentLibrary.cylib\BLE_v2_0\Library\gccCyBLEStack_BLE_SOC_PERIPHERAL.a(device_queue.o)
                0x00009e68                device_queue_set_curr_addr_type

i.device_queue_set_remote_addr
                0x00009e90       0x44
 i.device_queue_set_remote_addr
                0x00009e90       0x44 C:\9047software\PSoC Creator\3.3\PSoC Creator\psoc\content\cycomponentlibrary\CyComponentLibrary.cylib\BLE_v2_0\Library\gccCyBLEStack_BLE_SOC_PERIPHERAL.a(device_queue.o)
                0x00009e90                device_queue_set_remote_addr

i.dq_pstorage_cb
                0x00009ed4       0x48
 i.dq_pstorage_cb
                0x00009ed4       0x48 C:\9047software\PSoC Creator\3.3\PSoC Creator\psoc\content\cycomponentlibrary\CyComponentLibrary.cylib\BLE_v2_0\Library\gccCyBLEStack_BLE_SOC_PERIPHERAL.a(device_queue.o)
                0x00009ed4                dq_pstorage_cb

i.CyBle_L2capCB
                0x00009f1c       0x34
 i.CyBle_L2capCB
                0x00009f1c       0x34 C:\9047software\PSoC Creator\3.3\PSoC Creator\psoc\content\cycomponentlibrary\CyComponentLibrary.cylib\BLE_v2_0\Library\gccCyBLEStack_BLE_SOC_PERIPHERAL.a(l2cap.o)
                0x00009f1c                CyBle_L2capCB

i.CyBle_L2capFreeBuffers
                0x00009f50       0x34
 i.CyBle_L2capFreeBuffers
                0x00009f50       0x34 C:\9047software\PSoC Creator\3.3\PSoC Creator\psoc\content\cycomponentlibrary\CyComponentLibrary.cylib\BLE_v2_0\Library\gccCyBLEStack_BLE_SOC_PERIPHERAL.a(l2cap.o)
                0x00009f50                CyBle_L2capFreeBuffers

i.CyBle_L2capInit
                0x00009f84      0x170
 i.CyBle_L2capInit
                0x00009f84      0x170 C:\9047software\PSoC Creator\3.3\PSoC Creator\psoc\content\cycomponentlibrary\CyComponentLibrary.cylib\BLE_v2_0\Library\gccCyBLEStack_BLE_SOC_PERIPHERAL.a(l2cap.o)
                0x00009f84                CyBle_L2capInit

i.CyBle_L2capMemsetBuffers
                0x0000a0f4       0x54
 i.CyBle_L2capMemsetBuffers
                0x0000a0f4       0x54 C:\9047software\PSoC Creator\3.3\PSoC Creator\psoc\content\cycomponentlibrary\CyComponentLibrary.cylib\BLE_v2_0\Library\gccCyBLEStack_BLE_SOC_PERIPHERAL.a(l2cap.o)
                0x0000a0f4                CyBle_L2capMemsetBuffers

i.CyBle_L2capShutdown
                0x0000a148        0xc
 i.CyBle_L2capShutdown
                0x0000a148        0xc C:\9047software\PSoC Creator\3.3\PSoC Creator\psoc\content\cycomponentlibrary\CyComponentLibrary.cylib\BLE_v2_0\Library\gccCyBLEStack_BLE_SOC_PERIPHERAL.a(l2cap.o)
                0x0000a148                CyBle_L2capShutdown

i.CyBle_L2capTxQueueFlowCb
                0x0000a154        0xe
 i.CyBle_L2capTxQueueFlowCb
                0x0000a154        0xe C:\9047software\PSoC Creator\3.3\PSoC Creator\psoc\content\cycomponentlibrary\CyComponentLibrary.cylib\BLE_v2_0\Library\gccCyBLEStack_BLE_SOC_PERIPHERAL.a(l2cap.o)
                0x0000a154                CyBle_L2capTxQueueFlowCb

i.l2cap_disconnect_cid
                0x0000a164       0xa8
 i.l2cap_disconnect_cid
                0x0000a164       0xa8 C:\9047software\PSoC Creator\3.3\PSoC Creator\psoc\content\cycomponentlibrary\CyComponentLibrary.cylib\BLE_v2_0\Library\gccCyBLEStack_BLE_SOC_PERIPHERAL.a(l2cap_disconnect.o)
                0x0000a164                l2cap_disconnect_cid

i.l2cap_disconnect_req
                0x0000a20c       0xcc
 i.l2cap_disconnect_req
                0x0000a20c       0xcc C:\9047software\PSoC Creator\3.3\PSoC Creator\psoc\content\cycomponentlibrary\CyComponentLibrary.cylib\BLE_v2_0\Library\gccCyBLEStack_BLE_SOC_PERIPHERAL.a(l2cap_disconnect.o)
                0x0000a20c                l2cap_disconnect_req

i.l2cap_disconnect_rsp
                0x0000a2d8       0x90
 i.l2cap_disconnect_rsp
                0x0000a2d8       0x90 C:\9047software\PSoC Creator\3.3\PSoC Creator\psoc\content\cycomponentlibrary\CyComponentLibrary.cylib\BLE_v2_0\Library\gccCyBLEStack_BLE_SOC_PERIPHERAL.a(l2cap_disconnect.o)
                0x0000a2d8                l2cap_disconnect_rsp

i.l2cap_lp_disconnect_ind
                0x0000a368       0xcc
 i.l2cap_lp_disconnect_ind
                0x0000a368       0xcc C:\9047software\PSoC Creator\3.3\PSoC Creator\psoc\content\cycomponentlibrary\CyComponentLibrary.cylib\BLE_v2_0\Library\gccCyBLEStack_BLE_SOC_PERIPHERAL.a(l2cap_disconnect.o)
                0x0000a368                l2cap_lp_disconnect_ind

i.l2cap_bt_init
                0x0000a434       0x80
 i.l2cap_bt_init
                0x0000a434       0x80 C:\9047software\PSoC Creator\3.3\PSoC Creator\psoc\content\cycomponentlibrary\CyComponentLibrary.cylib\BLE_v2_0\Library\gccCyBLEStack_BLE_SOC_PERIPHERAL.a(l2cap_init.o)
                0x0000a434                l2cap_bt_init

i.l2cap_bt_shutdown
                0x0000a4b4       0x24
 i.l2cap_bt_shutdown
                0x0000a4b4       0x24 C:\9047software\PSoC Creator\3.3\PSoC Creator\psoc\content\cycomponentlibrary\CyComponentLibrary.cylib\BLE_v2_0\Library\gccCyBLEStack_BLE_SOC_PERIPHERAL.a(l2cap_init.o)
                0x0000a4b4                l2cap_bt_shutdown

i.l2cap_init    0x0000a4d8       0x10
 i.l2cap_init   0x0000a4d8       0x10 C:\9047software\PSoC Creator\3.3\PSoC Creator\psoc\content\cycomponentlibrary\CyComponentLibrary.cylib\BLE_v2_0\Library\gccCyBLEStack_BLE_SOC_PERIPHERAL.a(l2cap_init.o)
                0x0000a4d8                l2cap_init

i.l2cap_register_tx_queue_flow_cb
                0x0000a4e8       0x18
 i.l2cap_register_tx_queue_flow_cb
                0x0000a4e8       0x18 C:\9047software\PSoC Creator\3.3\PSoC Creator\psoc\content\cycomponentlibrary\CyComponentLibrary.cylib\BLE_v2_0\Library\gccCyBLEStack_BLE_SOC_PERIPHERAL.a(l2cap_init.o)
                0x0000a4e8                l2cap_register_tx_queue_flow_cb

i.l2cap_allocate_buffer_element
                0x0000a500       0x54
 i.l2cap_allocate_buffer_element
                0x0000a500       0x54 C:\9047software\PSoC Creator\3.3\PSoC Creator\psoc\content\cycomponentlibrary\CyComponentLibrary.cylib\BLE_v2_0\Library\gccCyBLEStack_BLE_SOC_PERIPHERAL.a(l2cap_utils.o)
                0x0000a500                l2cap_allocate_buffer_element

i.l2cap_buffer_dequeue
                0x0000a554       0xc0
 i.l2cap_buffer_dequeue
                0x0000a554       0xc0 C:\9047software\PSoC Creator\3.3\PSoC Creator\psoc\content\cycomponentlibrary\CyComponentLibrary.cylib\BLE_v2_0\Library\gccCyBLEStack_BLE_SOC_PERIPHERAL.a(l2cap_utils.o)
                0x0000a554                l2cap_buffer_dequeue

i.l2cap_buffer_enqueue
                0x0000a614       0x40
 i.l2cap_buffer_enqueue
                0x0000a614       0x40 C:\9047software\PSoC Creator\3.3\PSoC Creator\psoc\content\cycomponentlibrary\CyComponentLibrary.cylib\BLE_v2_0\Library\gccCyBLEStack_BLE_SOC_PERIPHERAL.a(l2cap_utils.o)
                0x0000a614                l2cap_buffer_enqueue

i.l2cap_free_buffer_element
                0x0000a654       0x44
 i.l2cap_free_buffer_element
                0x0000a654       0x44 C:\9047software\PSoC Creator\3.3\PSoC Creator\psoc\content\cycomponentlibrary\CyComponentLibrary.cylib\BLE_v2_0\Library\gccCyBLEStack_BLE_SOC_PERIPHERAL.a(l2cap_utils.o)
                0x0000a654                l2cap_free_buffer_element

i.l2cap_is_handle_in_sigch_list
                0x0000a698       0x1c
 i.l2cap_is_handle_in_sigch_list
                0x0000a698       0x1c C:\9047software\PSoC Creator\3.3\PSoC Creator\psoc\content\cycomponentlibrary\CyComponentLibrary.cylib\BLE_v2_0\Library\gccCyBLEStack_BLE_SOC_PERIPHERAL.a(l2cap_utils.o)
                0x0000a698                l2cap_is_handle_in_sigch_list

i.l2cap_is_in_sigch_list
                0x0000a6b4       0x2c
 i.l2cap_is_in_sigch_list
                0x0000a6b4       0x2c C:\9047software\PSoC Creator\3.3\PSoC Creator\psoc\content\cycomponentlibrary\CyComponentLibrary.cylib\BLE_v2_0\Library\gccCyBLEStack_BLE_SOC_PERIPHERAL.a(l2cap_utils.o)
                0x0000a6b4                l2cap_is_in_sigch_list

i.l2cap_tx_queue_flow_control
                0x0000a6e0       0x5c
 i.l2cap_tx_queue_flow_control
                0x0000a6e0       0x5c C:\9047software\PSoC Creator\3.3\PSoC Creator\psoc\content\cycomponentlibrary\CyComponentLibrary.cylib\BLE_v2_0\Library\gccCyBLEStack_BLE_SOC_PERIPHERAL.a(l2cap_utils.o)
                0x0000a6e0                l2cap_tx_queue_flow_control

i.l2cap_data_transmitter_bh
                0x0000a73c       0xa4
 i.l2cap_data_transmitter_bh
                0x0000a73c       0xa4 C:\9047software\PSoC Creator\3.3\PSoC Creator\psoc\content\cycomponentlibrary\CyComponentLibrary.cylib\BLE_v2_0\Library\gccCyBLEStack_BLE_SOC_PERIPHERAL.a(l2cap_lmp.o)
                0x0000a73c                l2cap_data_transmitter_bh

i.l2cap_frame_tx_pdu
                0x0000a7e0       0x84
 i.l2cap_frame_tx_pdu
                0x0000a7e0       0x84 C:\9047software\PSoC Creator\3.3\PSoC Creator\psoc\content\cycomponentlibrary\CyComponentLibrary.cylib\BLE_v2_0\Library\gccCyBLEStack_BLE_SOC_PERIPHERAL.a(l2cap_lmp.o)
                0x0000a7e0                l2cap_frame_tx_pdu

i.l2cap_lp_data_write
                0x0000a864      0x178
 i.l2cap_lp_data_write
                0x0000a864      0x178 C:\9047software\PSoC Creator\3.3\PSoC Creator\psoc\content\cycomponentlibrary\CyComponentLibrary.cylib\BLE_v2_0\Library\gccCyBLEStack_BLE_SOC_PERIPHERAL.a(l2cap_lmp.o)
                0x0000a864                l2cap_lp_data_write

i.l2cap_lp_le_buffer_size
                0x0000a9dc       0x2c
 i.l2cap_lp_le_buffer_size
                0x0000a9dc       0x2c C:\9047software\PSoC Creator\3.3\PSoC Creator\psoc\content\cycomponentlibrary\CyComponentLibrary.cylib\BLE_v2_0\Library\gccCyBLEStack_BLE_SOC_PERIPHERAL.a(l2cap_lmp.o)
                0x0000a9dc                l2cap_lp_le_buffer_size

i.l2cap_lp_num_completed_packets
                0x0000aa08       0x50
 i.l2cap_lp_num_completed_packets
                0x0000aa08       0x50 C:\9047software\PSoC Creator\3.3\PSoC Creator\psoc\content\cycomponentlibrary\CyComponentLibrary.cylib\BLE_v2_0\Library\gccCyBLEStack_BLE_SOC_PERIPHERAL.a(l2cap_lmp.o)
                0x0000aa08                l2cap_lp_num_completed_packets

i.l2cap_schedule_data_tx
                0x0000aa58       0x34
 i.l2cap_schedule_data_tx
                0x0000aa58       0x34 C:\9047software\PSoC Creator\3.3\PSoC Creator\psoc\content\cycomponentlibrary\CyComponentLibrary.cylib\BLE_v2_0\Library\gccCyBLEStack_BLE_SOC_PERIPHERAL.a(l2cap_lmp.o)
                0x0000aa58                l2cap_schedule_data_tx

i.BT_l2cap_register_le_event_cb
                0x0000aa8c       0x18
 i.BT_l2cap_register_le_event_cb
                0x0000aa8c       0x18 C:\9047software\PSoC Creator\3.3\PSoC Creator\psoc\content\cycomponentlibrary\CyComponentLibrary.cylib\BLE_v2_0\Library\gccCyBLEStack_BLE_SOC_PERIPHERAL.a(l2cap_le.o)
                0x0000aa8c                BT_l2cap_register_le_event_cb

i.l2cap_fixed_channel_data_write
                0x0000aaa4       0x68
 i.l2cap_fixed_channel_data_write
                0x0000aaa4       0x68 C:\9047software\PSoC Creator\3.3\PSoC Creator\psoc\content\cycomponentlibrary\CyComponentLibrary.cylib\BLE_v2_0\Library\gccCyBLEStack_BLE_SOC_PERIPHERAL.a(l2cap_fixed_channel.o)
                0x0000aaa4                l2cap_fixed_channel_data_write

i.l2cap_register_fixed_channel_cb
                0x0000ab0c       0x2c
 i.l2cap_register_fixed_channel_cb
                0x0000ab0c       0x2c C:\9047software\PSoC Creator\3.3\PSoC Creator\psoc\content\cycomponentlibrary\CyComponentLibrary.cylib\BLE_v2_0\Library\gccCyBLEStack_BLE_SOC_PERIPHERAL.a(l2cap_fixed_channel.o)
                0x0000ab0c                l2cap_register_fixed_channel_cb

i.l2cap_update_fixed_channel_mtu
                0x0000ab38       0x34
 i.l2cap_update_fixed_channel_mtu
                0x0000ab38       0x34 C:\9047software\PSoC Creator\3.3\PSoC Creator\psoc\content\cycomponentlibrary\CyComponentLibrary.cylib\BLE_v2_0\Library\gccCyBLEStack_BLE_SOC_PERIPHERAL.a(l2cap_fixed_channel.o)
                0x0000ab38                l2cap_update_fixed_channel_mtu

i.l2cap_allocate_channel
                0x0000ab6c       0x40
 i.l2cap_allocate_channel
                0x0000ab6c       0x40 C:\9047software\PSoC Creator\3.3\PSoC Creator\psoc\content\cycomponentlibrary\CyComponentLibrary.cylib\BLE_v2_0\Library\gccCyBLEStack_BLE_SOC_PERIPHERAL.a(l2cap_channels.o)
                0x0000ab6c                l2cap_allocate_channel

i.l2cap_fixed_mode_rx_data_handler
                0x0000abac       0x24
 i.l2cap_fixed_mode_rx_data_handler
                0x0000abac       0x24 C:\9047software\PSoC Creator\3.3\PSoC Creator\psoc\content\cycomponentlibrary\CyComponentLibrary.cylib\BLE_v2_0\Library\gccCyBLEStack_BLE_SOC_PERIPHERAL.a(l2cap_channels.o)
                0x0000abac                l2cap_fixed_mode_rx_data_handler

i.l2cap_free_channel
                0x0000abd0       0xf0
 i.l2cap_free_channel
                0x0000abd0       0xf0 C:\9047software\PSoC Creator\3.3\PSoC Creator\psoc\content\cycomponentlibrary\CyComponentLibrary.cylib\BLE_v2_0\Library\gccCyBLEStack_BLE_SOC_PERIPHERAL.a(l2cap_channels.o)
                0x0000abd0                l2cap_free_channel

i.l2cap_search_local_channel
                0x0000acc0       0x54
 i.l2cap_search_local_channel
                0x0000acc0       0x54 C:\9047software\PSoC Creator\3.3\PSoC Creator\psoc\content\cycomponentlibrary\CyComponentLibrary.cylib\BLE_v2_0\Library\gccCyBLEStack_BLE_SOC_PERIPHERAL.a(l2cap_channels.o)
                0x0000acc0                l2cap_search_local_channel

i.l2cap_cbfc_connect_req
                0x0000ad14      0x1a8
 i.l2cap_cbfc_connect_req
                0x0000ad14      0x1a8 C:\9047software\PSoC Creator\3.3\PSoC Creator\psoc\content\cycomponentlibrary\CyComponentLibrary.cylib\BLE_v2_0\Library\gccCyBLEStack_BLE_SOC_PERIPHERAL.a(l2cap_credit_mode.o)
                0x0000ad14                l2cap_cbfc_connect_req

i.l2cap_cbfc_connect_rsp
                0x0000aebc      0x158
 i.l2cap_cbfc_connect_rsp
                0x0000aebc      0x158 C:\9047software\PSoC Creator\3.3\PSoC Creator\psoc\content\cycomponentlibrary\CyComponentLibrary.cylib\BLE_v2_0\Library\gccCyBLEStack_BLE_SOC_PERIPHERAL.a(l2cap_credit_mode.o)
                0x0000aebc                l2cap_cbfc_connect_rsp

i.l2cap_credit_mode_rx_data_handler
                0x0000b014      0x178
 i.l2cap_credit_mode_rx_data_handler
                0x0000b014      0x178 C:\9047software\PSoC Creator\3.3\PSoC Creator\psoc\content\cycomponentlibrary\CyComponentLibrary.cylib\BLE_v2_0\Library\gccCyBLEStack_BLE_SOC_PERIPHERAL.a(l2cap_credit_mode.o)
                0x0000b014                l2cap_credit_mode_rx_data_handler

i.l2cap_credit_mode_tx_data_handler
                0x0000b18c        0x2
 i.l2cap_credit_mode_tx_data_handler
                0x0000b18c        0x2 C:\9047software\PSoC Creator\3.3\PSoC Creator\psoc\content\cycomponentlibrary\CyComponentLibrary.cylib\BLE_v2_0\Library\gccCyBLEStack_BLE_SOC_PERIPHERAL.a(l2cap_credit_mode.o)
                0x0000b18c                l2cap_credit_mode_tx_data_handler

i.l2cap_enqueue_cbfc_data_for_tx
                0x0000b190      0x118
 i.l2cap_enqueue_cbfc_data_for_tx
                0x0000b190      0x118 C:\9047software\PSoC Creator\3.3\PSoC Creator\psoc\content\cycomponentlibrary\CyComponentLibrary.cylib\BLE_v2_0\Library\gccCyBLEStack_BLE_SOC_PERIPHERAL.a(l2cap_credit_mode.o)
                0x0000b190                l2cap_enqueue_cbfc_data_for_tx

i.l2cap_flow_control_credit
                0x0000b2a8       0xb8
 i.l2cap_flow_control_credit
                0x0000b2a8       0xb8 C:\9047software\PSoC Creator\3.3\PSoC Creator\psoc\content\cycomponentlibrary\CyComponentLibrary.cylib\BLE_v2_0\Library\gccCyBLEStack_BLE_SOC_PERIPHERAL.a(l2cap_credit_mode.o)
                0x0000b2a8                l2cap_flow_control_credit

i.l2cap_is_cbfc_psm_registered
                0x0000b360       0x1c
 i.l2cap_is_cbfc_psm_registered
                0x0000b360       0x1c C:\9047software\PSoC Creator\3.3\PSoC Creator\psoc\content\cycomponentlibrary\CyComponentLibrary.cylib\BLE_v2_0\Library\gccCyBLEStack_BLE_SOC_PERIPHERAL.a(l2cap_credit_mode.o)
                0x0000b360                l2cap_is_cbfc_psm_registered

i.l2cap_send_cbfc_connect_rsp
                0x0000b37c       0x58
 i.l2cap_send_cbfc_connect_rsp
                0x0000b37c       0x58 C:\9047software\PSoC Creator\3.3\PSoC Creator\psoc\content\cycomponentlibrary\CyComponentLibrary.cylib\BLE_v2_0\Library\gccCyBLEStack_BLE_SOC_PERIPHERAL.a(l2cap_credit_mode.o)
                0x0000b37c                l2cap_send_cbfc_connect_rsp

i.l2cap_command_rej
                0x0000b3d4       0xa8
 i.l2cap_command_rej
                0x0000b3d4       0xa8 C:\9047software\PSoC Creator\3.3\PSoC Creator\psoc\content\cycomponentlibrary\CyComponentLibrary.cylib\BLE_v2_0\Library\gccCyBLEStack_BLE_SOC_PERIPHERAL.a(l2cap_command.o)
                0x0000b3d4                l2cap_command_rej

i.l2cap_command_timeout_handler
                0x0000b47c       0xcc
 i.l2cap_command_timeout_handler
                0x0000b47c       0xcc C:\9047software\PSoC Creator\3.3\PSoC Creator\psoc\content\cycomponentlibrary\CyComponentLibrary.cylib\BLE_v2_0\Library\gccCyBLEStack_BLE_SOC_PERIPHERAL.a(l2cap_command.o)
                0x0000b47c                l2cap_command_timeout_handler

i.l2cap_command_write
                0x0000b548       0x68
 i.l2cap_command_write
                0x0000b548       0x68 C:\9047software\PSoC Creator\3.3\PSoC Creator\psoc\content\cycomponentlibrary\CyComponentLibrary.cylib\BLE_v2_0\Library\gccCyBLEStack_BLE_SOC_PERIPHERAL.a(l2cap_command.o)
                0x0000b548                l2cap_command_write

i.l2cap_connection_update_req
                0x0000b5b0       0x44
 i.l2cap_connection_update_req
                0x0000b5b0       0x44 C:\9047software\PSoC Creator\3.3\PSoC Creator\psoc\content\cycomponentlibrary\CyComponentLibrary.cylib\BLE_v2_0\Library\gccCyBLEStack_BLE_SOC_PERIPHERAL.a(l2cap_command.o)
                0x0000b5b0                l2cap_connection_update_req

i.l2cap_connection_update_rsp
                0x0000b5f4       0x44
 i.l2cap_connection_update_rsp
                0x0000b5f4       0x44 C:\9047software\PSoC Creator\3.3\PSoC Creator\psoc\content\cycomponentlibrary\CyComponentLibrary.cylib\BLE_v2_0\Library\gccCyBLEStack_BLE_SOC_PERIPHERAL.a(l2cap_command.o)
                0x0000b5f4                l2cap_connection_update_rsp

i.l2cap_create_command
                0x0000b638       0xa4
 i.l2cap_create_command
                0x0000b638       0xa4 C:\9047software\PSoC Creator\3.3\PSoC Creator\psoc\content\cycomponentlibrary\CyComponentLibrary.cylib\BLE_v2_0\Library\gccCyBLEStack_BLE_SOC_PERIPHERAL.a(l2cap_command.o)
                0x0000b638                l2cap_create_command

i.l2cap_delete_command
                0x0000b6dc       0x38
 i.l2cap_delete_command
                0x0000b6dc       0x38 C:\9047software\PSoC Creator\3.3\PSoC Creator\psoc\content\cycomponentlibrary\CyComponentLibrary.cylib\BLE_v2_0\Library\gccCyBLEStack_BLE_SOC_PERIPHERAL.a(l2cap_command.o)
                0x0000b6dc                l2cap_delete_command

i.l2cap_search_command
                0x0000b714       0x28
 i.l2cap_search_command
                0x0000b714       0x28 C:\9047software\PSoC Creator\3.3\PSoC Creator\psoc\content\cycomponentlibrary\CyComponentLibrary.cylib\BLE_v2_0\Library\gccCyBLEStack_BLE_SOC_PERIPHERAL.a(l2cap_command.o)
                0x0000b714                l2cap_search_command

i.l2cap_send_command_rej
                0x0000b73c       0x60
 i.l2cap_send_command_rej
                0x0000b73c       0x60 C:\9047software\PSoC Creator\3.3\PSoC Creator\psoc\content\cycomponentlibrary\CyComponentLibrary.cylib\BLE_v2_0\Library\gccCyBLEStack_BLE_SOC_PERIPHERAL.a(l2cap_command.o)
                0x0000b73c                l2cap_send_command_rej

i.l2cap_unknown_cmd
                0x0000b79c       0x10
 i.l2cap_unknown_cmd
                0x0000b79c       0x10 C:\9047software\PSoC Creator\3.3\PSoC Creator\psoc\content\cycomponentlibrary\CyComponentLibrary.cylib\BLE_v2_0\Library\gccCyBLEStack_BLE_SOC_PERIPHERAL.a(l2cap_command.o)
                0x0000b79c                l2cap_unknown_cmd

i.l2cap_update_command
                0x0000b7ac       0x20
 i.l2cap_update_command
                0x0000b7ac       0x20 C:\9047software\PSoC Creator\3.3\PSoC Creator\psoc\content\cycomponentlibrary\CyComponentLibrary.cylib\BLE_v2_0\Library\gccCyBLEStack_BLE_SOC_PERIPHERAL.a(l2cap_command.o)
                0x0000b7ac                l2cap_update_command

i.fsm_post_event
                0x0000b7cc       0xa0
 i.fsm_post_event
                0x0000b7cc       0xa0 C:\9047software\PSoC Creator\3.3\PSoC Creator\psoc\content\cycomponentlibrary\CyComponentLibrary.cylib\BLE_v2_0\Library\gccCyBLEStack_BLE_SOC_PERIPHERAL.a(fsm_engine.o)
                0x0000b7cc                fsm_post_event

i.CyBle_GapAdvTimerExpiryHandler
                0x0000b86c       0x28
 i.CyBle_GapAdvTimerExpiryHandler
                0x0000b86c       0x28 C:\9047software\PSoC Creator\3.3\PSoC Creator\psoc\content\cycomponentlibrary\CyComponentLibrary.cylib\BLE_v2_0\Library\gccCyBLEStack_BLE_SOC_PERIPHERAL.a(gap.o)

i.CyBle_GapCheckErrCode
                0x0000b894       0x88
 i.CyBle_GapCheckErrCode
                0x0000b894       0x88 C:\9047software\PSoC Creator\3.3\PSoC Creator\psoc\content\cycomponentlibrary\CyComponentLibrary.cylib\BLE_v2_0\Library\gccCyBLEStack_BLE_SOC_PERIPHERAL.a(gap.o)

i.CyBle_GapGetBondedDevicesList
                0x0000b91c       0x90
 i.CyBle_GapGetBondedDevicesList
                0x0000b91c       0x90 C:\9047software\PSoC Creator\3.3\PSoC Creator\psoc\content\cycomponentlibrary\CyComponentLibrary.cylib\BLE_v2_0\Library\gccCyBLEStack_BLE_SOC_PERIPHERAL.a(gap.o)
                0x0000b91c                CyBle_GapGetBondedDevicesList

i.CyBle_GapInit
                0x0000b9ac       0x2c
 i.CyBle_GapInit
                0x0000b9ac       0x2c C:\9047software\PSoC Creator\3.3\PSoC Creator\psoc\content\cycomponentlibrary\CyComponentLibrary.cylib\BLE_v2_0\Library\gccCyBLEStack_BLE_SOC_PERIPHERAL.a(gap.o)
                0x0000b9ac                CyBle_GapInit

i.CyBle_GapSetIoCap
                0x0000b9d8       0x3c
 i.CyBle_GapSetIoCap
                0x0000b9d8       0x3c C:\9047software\PSoC Creator\3.3\PSoC Creator\psoc\content\cycomponentlibrary\CyComponentLibrary.cylib\BLE_v2_0\Library\gccCyBLEStack_BLE_SOC_PERIPHERAL.a(gap.o)
                0x0000b9d8                CyBle_GapSetIoCap

i.CyBle_GapSetScanRspData
                0x0000ba14       0x28
 i.CyBle_GapSetScanRspData
                0x0000ba14       0x28 C:\9047software\PSoC Creator\3.3\PSoC Creator\psoc\content\cycomponentlibrary\CyComponentLibrary.cylib\BLE_v2_0\Library\gccCyBLEStack_BLE_SOC_PERIPHERAL.a(gap.o)

i.CyBle_GapSignData
                0x0000ba3c      0x150
 i.CyBle_GapSignData
                0x0000ba3c      0x150 C:\9047software\PSoC Creator\3.3\PSoC Creator\psoc\content\cycomponentlibrary\CyComponentLibrary.cylib\BLE_v2_0\Library\gccCyBLEStack_BLE_SOC_PERIPHERAL.a(gap.o)
                0x0000ba3c                CyBle_GapSignData

i.CyBle_GapStartAdvertising
                0x0000bb8c       0x20
 i.CyBle_GapStartAdvertising
                0x0000bb8c       0x20 C:\9047software\PSoC Creator\3.3\PSoC Creator\psoc\content\cycomponentlibrary\CyComponentLibrary.cylib\BLE_v2_0\Library\gccCyBLEStack_BLE_SOC_PERIPHERAL.a(gap.o)

i.CyBle_GapUpdateBdAddress
                0x0000bbac       0x3c
 i.CyBle_GapUpdateBdAddress
                0x0000bbac       0x3c C:\9047software\PSoC Creator\3.3\PSoC Creator\psoc\content\cycomponentlibrary\CyComponentLibrary.cylib\BLE_v2_0\Library\gccCyBLEStack_BLE_SOC_PERIPHERAL.a(gap.o)
                0x0000bbac                CyBle_GapUpdateBdAddress

i.CyBle_GappAuthReqReply
                0x0000bbe8       0x6c
 i.CyBle_GappAuthReqReply
                0x0000bbe8       0x6c C:\9047software\PSoC Creator\3.3\PSoC Creator\psoc\content\cycomponentlibrary\CyComponentLibrary.cylib\BLE_v2_0\Library\gccCyBLEStack_BLE_SOC_PERIPHERAL.a(gap.o)
                0x0000bbe8                CyBle_GappAuthReqReply

i.CyBle_GappEnterDiscoveryMode
                0x0000bc54      0x11c
 i.CyBle_GappEnterDiscoveryMode
                0x0000bc54      0x11c C:\9047software\PSoC Creator\3.3\PSoC Creator\psoc\content\cycomponentlibrary\CyComponentLibrary.cylib\BLE_v2_0\Library\gccCyBLEStack_BLE_SOC_PERIPHERAL.a(gap.o)
                0x0000bc54                CyBle_GappEnterDiscoveryMode

i.CyBle_HciCb   0x0000bd70      0x1d4
 i.CyBle_HciCb  0x0000bd70      0x1d4 C:\9047software\PSoC Creator\3.3\PSoC Creator\psoc\content\cycomponentlibrary\CyComponentLibrary.cylib\BLE_v2_0\Library\gccCyBLEStack_BLE_SOC_PERIPHERAL.a(gap.o)
                0x0000bd70                CyBle_HciCb

i.CyBle_SmpCb   0x0000bf44      0x16c
 i.CyBle_SmpCb  0x0000bf44      0x16c C:\9047software\PSoC Creator\3.3\PSoC Creator\psoc\content\cycomponentlibrary\CyComponentLibrary.cylib\BLE_v2_0\Library\gccCyBLEStack_BLE_SOC_PERIPHERAL.a(gap.o)
                0x0000bf44                CyBle_SmpCb

i.CyBle_GattCB  0x0000c0b0      0x630
 i.CyBle_GattCB
                0x0000c0b0      0x630 C:\9047software\PSoC Creator\3.3\PSoC Creator\psoc\content\cycomponentlibrary\CyComponentLibrary.cylib\BLE_v2_0\Library\gccCyBLEStack_BLE_SOC_PERIPHERAL.a(gatt.o)
                0x0000c0b0                CyBle_GattCB

i.CyBle_GattDBGet16BitUUID
                0x0000c6e0       0x70
 i.CyBle_GattDBGet16BitUUID
                0x0000c6e0       0x70 C:\9047software\PSoC Creator\3.3\PSoC Creator\psoc\content\cycomponentlibrary\CyComponentLibrary.cylib\BLE_v2_0\Library\gccCyBLEStack_BLE_SOC_PERIPHERAL.a(gatt.o)
                0x0000c6e0                CyBle_GattDBGet16BitUUID

i.CyBle_GattInit
                0x0000c750       0x2c
 i.CyBle_GattInit
                0x0000c750       0x2c C:\9047software\PSoC Creator\3.3\PSoC Creator\psoc\content\cycomponentlibrary\CyComponentLibrary.cylib\BLE_v2_0\Library\gccCyBLEStack_BLE_SOC_PERIPHERAL.a(gatt.o)
                0x0000c750                CyBle_GattInit

i.CyBle_GattResetGlobals
                0x0000c77c       0x1c
 i.CyBle_GattResetGlobals
                0x0000c77c       0x1c C:\9047software\PSoC Creator\3.3\PSoC Creator\psoc\content\cycomponentlibrary\CyComponentLibrary.cylib\BLE_v2_0\Library\gccCyBLEStack_BLE_SOC_PERIPHERAL.a(gatt.o)
                0x0000c77c                CyBle_GattResetGlobals

i.CyBle_GattShutdown
                0x0000c798        0x8
 i.CyBle_GattShutdown
                0x0000c798        0x8 C:\9047software\PSoC Creator\3.3\PSoC Creator\psoc\content\cycomponentlibrary\CyComponentLibrary.cylib\BLE_v2_0\Library\gccCyBLEStack_BLE_SOC_PERIPHERAL.a(gatt.o)
                0x0000c798                CyBle_GattShutdown

i.CyBle_SendPDU
                0x0000c7a0       0x74
 i.CyBle_SendPDU
                0x0000c7a0       0x74 C:\9047software\PSoC Creator\3.3\PSoC Creator\psoc\content\cycomponentlibrary\CyComponentLibrary.cylib\BLE_v2_0\Library\gccCyBLEStack_BLE_SOC_PERIPHERAL.a(gatt.o)
                0x0000c7a0                CyBle_SendPDU

i.CyBle_GattClientInit
                0x0000c814        0x8
 i.CyBle_GattClientInit
                0x0000c814        0x8 C:\9047software\PSoC Creator\3.3\PSoC Creator\psoc\content\cycomponentlibrary\CyComponentLibrary.cylib\BLE_v2_0\Library\gccCyBLEStack_BLE_SOC_PERIPHERAL.a(gattClient.o)
                0x0000c814                CyBle_GattClientInit

i.CyBle_GattSendPrepWriteReq
                0x0000c81c       0x90
 i.CyBle_GattSendPrepWriteReq
                0x0000c81c       0x90 C:\9047software\PSoC Creator\3.3\PSoC Creator\psoc\content\cycomponentlibrary\CyComponentLibrary.cylib\BLE_v2_0\Library\gccCyBLEStack_BLE_SOC_PERIPHERAL.a(gattClient.o)

i.CyBle_GattcResetGlobals
                0x0000c8ac       0x6c
 i.CyBle_GattcResetGlobals
                0x0000c8ac       0x6c C:\9047software\PSoC Creator\3.3\PSoC Creator\psoc\content\cycomponentlibrary\CyComponentLibrary.cylib\BLE_v2_0\Library\gccCyBLEStack_BLE_SOC_PERIPHERAL.a(gattClient.o)
                0x0000c8ac                CyBle_GattcResetGlobals

i.CyBle_GattcSendSignedWriteCmd
                0x0000c918       0x40
 i.CyBle_GattcSendSignedWriteCmd
                0x0000c918       0x40 C:\9047software\PSoC Creator\3.3\PSoC Creator\psoc\content\cycomponentlibrary\CyComponentLibrary.cylib\BLE_v2_0\Library\gccCyBLEStack_BLE_SOC_PERIPHERAL.a(gattClient.o)
                0x0000c918                CyBle_GattcSendSignedWriteCmd

i.CyBle_HandleGattErrorRsp
                0x0000c958       0x32
 i.CyBle_HandleGattErrorRsp
                0x0000c958       0x32 C:\9047software\PSoC Creator\3.3\PSoC Creator\psoc\content\cycomponentlibrary\CyComponentLibrary.cylib\BLE_v2_0\Library\gccCyBLEStack_BLE_SOC_PERIPHERAL.a(gattClient.o)
                0x0000c958                CyBle_HandleGattErrorRsp

i.CyBle_HandleGattExecWriteRsp
                0x0000c98c       0x20
 i.CyBle_HandleGattExecWriteRsp
                0x0000c98c       0x20 C:\9047software\PSoC Creator\3.3\PSoC Creator\psoc\content\cycomponentlibrary\CyComponentLibrary.cylib\BLE_v2_0\Library\gccCyBLEStack_BLE_SOC_PERIPHERAL.a(gattClient.o)
                0x0000c98c                CyBle_HandleGattExecWriteRsp

i.CyBle_HandleGattFindByTypeValRsp
                0x0000c9ac       0xbc
 i.CyBle_HandleGattFindByTypeValRsp
                0x0000c9ac       0xbc C:\9047software\PSoC Creator\3.3\PSoC Creator\psoc\content\cycomponentlibrary\CyComponentLibrary.cylib\BLE_v2_0\Library\gccCyBLEStack_BLE_SOC_PERIPHERAL.a(gattClient.o)
                0x0000c9ac                CyBle_HandleGattFindByTypeValRsp

i.CyBle_HandleGattFindInfoRsp
                0x0000ca68       0x90
 i.CyBle_HandleGattFindInfoRsp
                0x0000ca68       0x90 C:\9047software\PSoC Creator\3.3\PSoC Creator\psoc\content\cycomponentlibrary\CyComponentLibrary.cylib\BLE_v2_0\Library\gccCyBLEStack_BLE_SOC_PERIPHERAL.a(gattClient.o)
                0x0000ca68                CyBle_HandleGattFindInfoRsp

i.CyBle_HandleGattPrepWriteRsp
                0x0000caf8       0xa4
 i.CyBle_HandleGattPrepWriteRsp
                0x0000caf8       0xa4 C:\9047software\PSoC Creator\3.3\PSoC Creator\psoc\content\cycomponentlibrary\CyComponentLibrary.cylib\BLE_v2_0\Library\gccCyBLEStack_BLE_SOC_PERIPHERAL.a(gattClient.o)
                0x0000caf8                CyBle_HandleGattPrepWriteRsp

i.CyBle_HandleGattReadBlobRsp
                0x0000cb9c       0x54
 i.CyBle_HandleGattReadBlobRsp
                0x0000cb9c       0x54 C:\9047software\PSoC Creator\3.3\PSoC Creator\psoc\content\cycomponentlibrary\CyComponentLibrary.cylib\BLE_v2_0\Library\gccCyBLEStack_BLE_SOC_PERIPHERAL.a(gattClient.o)
                0x0000cb9c                CyBle_HandleGattReadBlobRsp

i.CyBle_HandleGattReadByGrpTypeRsp
                0x0000cbf0       0x84
 i.CyBle_HandleGattReadByGrpTypeRsp
                0x0000cbf0       0x84 C:\9047software\PSoC Creator\3.3\PSoC Creator\psoc\content\cycomponentlibrary\CyComponentLibrary.cylib\BLE_v2_0\Library\gccCyBLEStack_BLE_SOC_PERIPHERAL.a(gattClient.o)
                0x0000cbf0                CyBle_HandleGattReadByGrpTypeRsp

i.CyBle_HandleGattReadByTypeRsp
                0x0000cc74       0xf4
 i.CyBle_HandleGattReadByTypeRsp
                0x0000cc74       0xf4 C:\9047software\PSoC Creator\3.3\PSoC Creator\psoc\content\cycomponentlibrary\CyComponentLibrary.cylib\BLE_v2_0\Library\gccCyBLEStack_BLE_SOC_PERIPHERAL.a(gattClient.o)
                0x0000cc74                CyBle_HandleGattReadByTypeRsp

i.CyBle_SendGattReadByTypeRspToApp
                0x0000cd68       0x1c
 i.CyBle_SendGattReadByTypeRspToApp
                0x0000cd68       0x1c C:\9047software\PSoC Creator\3.3\PSoC Creator\psoc\content\cycomponentlibrary\CyComponentLibrary.cylib\BLE_v2_0\Library\gccCyBLEStack_BLE_SOC_PERIPHERAL.a(gattClient.o)

i.CyBle_GattFreeWriteQueue
                0x0000cd84       0x14
 i.CyBle_GattFreeWriteQueue
                0x0000cd84       0x14 C:\9047software\PSoC Creator\3.3\PSoC Creator\psoc\content\cycomponentlibrary\CyComponentLibrary.cylib\BLE_v2_0\Library\gccCyBLEStack_BLE_SOC_PERIPHERAL.a(gattServer.o)

i.CyBle_GattPrepareWriteDequeue
                0x0000cd98       0x28
 i.CyBle_GattPrepareWriteDequeue
                0x0000cd98       0x28 C:\9047software\PSoC Creator\3.3\PSoC Creator\psoc\content\cycomponentlibrary\CyComponentLibrary.cylib\BLE_v2_0\Library\gccCyBLEStack_BLE_SOC_PERIPHERAL.a(gattServer.o)
                0x0000cd98                CyBle_GattPrepareWriteDequeue

i.CyBle_GattPrepareWriteEnqueue
                0x0000cdc0       0x5c
 i.CyBle_GattPrepareWriteEnqueue
                0x0000cdc0       0x5c C:\9047software\PSoC Creator\3.3\PSoC Creator\psoc\content\cycomponentlibrary\CyComponentLibrary.cylib\BLE_v2_0\Library\gccCyBLEStack_BLE_SOC_PERIPHERAL.a(gattServer.o)
                0x0000cdc0                CyBle_GattPrepareWriteEnqueue

i.CyBle_GattPrepareWriteQueueInit
                0x0000ce1c       0x3c
 i.CyBle_GattPrepareWriteQueueInit
                0x0000ce1c       0x3c C:\9047software\PSoC Creator\3.3\PSoC Creator\psoc\content\cycomponentlibrary\CyComponentLibrary.cylib\BLE_v2_0\Library\gccCyBLEStack_BLE_SOC_PERIPHERAL.a(gattServer.o)

i.CyBle_GattServerInit
                0x0000ce58       0x20
 i.CyBle_GattServerInit
                0x0000ce58       0x20 C:\9047software\PSoC Creator\3.3\PSoC Creator\psoc\content\cycomponentlibrary\CyComponentLibrary.cylib\BLE_v2_0\Library\gccCyBLEStack_BLE_SOC_PERIPHERAL.a(gattServer.o)
                0x0000ce58                CyBle_GattServerInit

i.CyBle_GattServerShutdown
                0x0000ce78       0x14
 i.CyBle_GattServerShutdown
                0x0000ce78       0x14 C:\9047software\PSoC Creator\3.3\PSoC Creator\psoc\content\cycomponentlibrary\CyComponentLibrary.cylib\BLE_v2_0\Library\gccCyBLEStack_BLE_SOC_PERIPHERAL.a(gattServer.o)
                0x0000ce78                CyBle_GattServerShutdown

i.CyBle_GattsErrorRsp
                0x0000ce8c       0x16
 i.CyBle_GattsErrorRsp
                0x0000ce8c       0x16 C:\9047software\PSoC Creator\3.3\PSoC Creator\psoc\content\cycomponentlibrary\CyComponentLibrary.cylib\BLE_v2_0\Library\gccCyBLEStack_BLE_SOC_PERIPHERAL.a(gattServer.o)
                0x0000ce8c                CyBle_GattsErrorRsp

i.CyBle_GattsExchangeMtuRsp
                0x0000cea4       0x20
 i.CyBle_GattsExchangeMtuRsp
                0x0000cea4       0x20 C:\9047software\PSoC Creator\3.3\PSoC Creator\psoc\content\cycomponentlibrary\CyComponentLibrary.cylib\BLE_v2_0\Library\gccCyBLEStack_BLE_SOC_PERIPHERAL.a(gattServer.o)
                0x0000cea4                CyBle_GattsExchangeMtuRsp

i.CyBle_GattsNotification
                0x0000cec4       0x28
 i.CyBle_GattsNotification
                0x0000cec4       0x28 C:\9047software\PSoC Creator\3.3\PSoC Creator\psoc\content\cycomponentlibrary\CyComponentLibrary.cylib\BLE_v2_0\Library\gccCyBLEStack_BLE_SOC_PERIPHERAL.a(gattServer.o)
                0x0000cec4                CyBle_GattsNotification

i.CyBle_GattsResetGlobals
                0x0000ceec       0x28
 i.CyBle_GattsResetGlobals
                0x0000ceec       0x28 C:\9047software\PSoC Creator\3.3\PSoC Creator\psoc\content\cycomponentlibrary\CyComponentLibrary.cylib\BLE_v2_0\Library\gccCyBLEStack_BLE_SOC_PERIPHERAL.a(gattServer.o)
                0x0000ceec                CyBle_GattsResetGlobals

i.CyBle_GattsSendSignedWriteEvent
                0x0000cf14       0x6c
 i.CyBle_GattsSendSignedWriteEvent
                0x0000cf14       0x6c C:\9047software\PSoC Creator\3.3\PSoC Creator\psoc\content\cycomponentlibrary\CyComponentLibrary.cylib\BLE_v2_0\Library\gccCyBLEStack_BLE_SOC_PERIPHERAL.a(gattServer.o)
                0x0000cf14                CyBle_GattsSendSignedWriteEvent

i.CyBle_GattsWriteRsp
                0x0000cf80        0xe
 i.CyBle_GattsWriteRsp
                0x0000cf80        0xe C:\9047software\PSoC Creator\3.3\PSoC Creator\psoc\content\cycomponentlibrary\CyComponentLibrary.cylib\BLE_v2_0\Library\gccCyBLEStack_BLE_SOC_PERIPHERAL.a(gattServer.o)
                0x0000cf80                CyBle_GattsWriteRsp

i.CyBle_HandleGattExecuteWriteReq
                0x0000cf90       0xa8
 i.CyBle_HandleGattExecuteWriteReq
                0x0000cf90       0xa8 C:\9047software\PSoC Creator\3.3\PSoC Creator\psoc\content\cycomponentlibrary\CyComponentLibrary.cylib\BLE_v2_0\Library\gccCyBLEStack_BLE_SOC_PERIPHERAL.a(gattServer.o)
                0x0000cf90                CyBle_HandleGattExecuteWriteReq

i.CyBle_HandleGattFindByTypeValReq
                0x0000d038       0x78
 i.CyBle_HandleGattFindByTypeValReq
                0x0000d038       0x78 C:\9047software\PSoC Creator\3.3\PSoC Creator\psoc\content\cycomponentlibrary\CyComponentLibrary.cylib\BLE_v2_0\Library\gccCyBLEStack_BLE_SOC_PERIPHERAL.a(gattServer.o)
                0x0000d038                CyBle_HandleGattFindByTypeValReq

i.CyBle_HandleGattFindInfoReq
                0x0000d0b0       0x94
 i.CyBle_HandleGattFindInfoReq
                0x0000d0b0       0x94 C:\9047software\PSoC Creator\3.3\PSoC Creator\psoc\content\cycomponentlibrary\CyComponentLibrary.cylib\BLE_v2_0\Library\gccCyBLEStack_BLE_SOC_PERIPHERAL.a(gattServer.o)
                0x0000d0b0                CyBle_HandleGattFindInfoReq

i.CyBle_HandleGattPrepWriteReq
                0x0000d144       0xfc
 i.CyBle_HandleGattPrepWriteReq
                0x0000d144       0xfc C:\9047software\PSoC Creator\3.3\PSoC Creator\psoc\content\cycomponentlibrary\CyComponentLibrary.cylib\BLE_v2_0\Library\gccCyBLEStack_BLE_SOC_PERIPHERAL.a(gattServer.o)
                0x0000d144                CyBle_HandleGattPrepWriteReq

i.CyBle_HandleGattReadByGrpTypeReq
                0x0000d240       0xa4
 i.CyBle_HandleGattReadByGrpTypeReq
                0x0000d240       0xa4 C:\9047software\PSoC Creator\3.3\PSoC Creator\psoc\content\cycomponentlibrary\CyComponentLibrary.cylib\BLE_v2_0\Library\gccCyBLEStack_BLE_SOC_PERIPHERAL.a(gattServer.o)
                0x0000d240                CyBle_HandleGattReadByGrpTypeReq

i.CyBle_HandleGattReadByTypeReq
                0x0000d2e4       0xe0
 i.CyBle_HandleGattReadByTypeReq
                0x0000d2e4       0xe0 C:\9047software\PSoC Creator\3.3\PSoC Creator\psoc\content\cycomponentlibrary\CyComponentLibrary.cylib\BLE_v2_0\Library\gccCyBLEStack_BLE_SOC_PERIPHERAL.a(gattServer.o)
                0x0000d2e4                CyBle_HandleGattReadByTypeReq

i.CyBle_HandleGattReadMultiReq
                0x0000d3c4       0xcc
 i.CyBle_HandleGattReadMultiReq
                0x0000d3c4       0xcc C:\9047software\PSoC Creator\3.3\PSoC Creator\psoc\content\cycomponentlibrary\CyComponentLibrary.cylib\BLE_v2_0\Library\gccCyBLEStack_BLE_SOC_PERIPHERAL.a(gattServer.o)
                0x0000d3c4                CyBle_HandleGattReadMultiReq

i.CyBle_HandleGattReadReq
                0x0000d490       0xc0
 i.CyBle_HandleGattReadReq
                0x0000d490       0xc0 C:\9047software\PSoC Creator\3.3\PSoC Creator\psoc\content\cycomponentlibrary\CyComponentLibrary.cylib\BLE_v2_0\Library\gccCyBLEStack_BLE_SOC_PERIPHERAL.a(gattServer.o)
                0x0000d490                CyBle_HandleGattReadReq

i.CyBle_GattDBAccessHandle
                0x0000d550       0xfc
 i.CyBle_GattDBAccessHandle
                0x0000d550       0xfc C:\9047software\PSoC Creator\3.3\PSoC Creator\psoc\content\cycomponentlibrary\CyComponentLibrary.cylib\BLE_v2_0\Library\gccCyBLEStack_BLE_SOC_PERIPHERAL.a(gattDbHandler.o)
                0x0000d550                CyBle_GattDBAccessHandle

i.CyBle_GattDBGetGroupRangeValpair
                0x0000d64c      0x198
 i.CyBle_GattDBGetGroupRangeValpair
                0x0000d64c      0x198 C:\9047software\PSoC Creator\3.3\PSoC Creator\psoc\content\cycomponentlibrary\CyComponentLibrary.cylib\BLE_v2_0\Library\gccCyBLEStack_BLE_SOC_PERIPHERAL.a(gattDbHandler.o)
                0x0000d64c                CyBle_GattDBGetGroupRangeValpair

i.CyBle_GattDBGetHandleUUIDValuePair
                0x0000d7e4      0x1cc
 i.CyBle_GattDBGetHandleUUIDValuePair
                0x0000d7e4      0x1cc C:\9047software\PSoC Creator\3.3\PSoC Creator\psoc\content\cycomponentlibrary\CyComponentLibrary.cylib\BLE_v2_0\Library\gccCyBLEStack_BLE_SOC_PERIPHERAL.a(gattDbHandler.o)
                0x0000d7e4                CyBle_GattDBGetHandleUUIDValuePair

i.CyBle_GattsDbRegister
                0x0000d9b0       0x30
 i.CyBle_GattsDbRegister
                0x0000d9b0       0x30 C:\9047software\PSoC Creator\3.3\PSoC Creator\psoc\content\cycomponentlibrary\CyComponentLibrary.cylib\BLE_v2_0\Library\gccCyBLEStack_BLE_SOC_PERIPHERAL.a(gattDbHandler.o)
                0x0000d9b0                CyBle_GattsDbRegister

i.CyBle_GattsReadAttributeValue
                0x0000d9e0       0x6c
 i.CyBle_GattsReadAttributeValue
                0x0000d9e0       0x6c C:\9047software\PSoC Creator\3.3\PSoC Creator\psoc\content\cycomponentlibrary\CyComponentLibrary.cylib\BLE_v2_0\Library\gccCyBLEStack_BLE_SOC_PERIPHERAL.a(gattDbHandler.o)
                0x0000d9e0                CyBle_GattsReadAttributeValue

i.CyBle_GattsWriteAttributeValue
                0x0000da4c       0x34
 i.CyBle_GattsWriteAttributeValue
                0x0000da4c       0x34 C:\9047software\PSoC Creator\3.3\PSoC Creator\psoc\content\cycomponentlibrary\CyComponentLibrary.cylib\BLE_v2_0\Library\gccCyBLEStack_BLE_SOC_PERIPHERAL.a(gattDbHandler.o)
                0x0000da4c                CyBle_GattsWriteAttributeValue

i.BT_hci_get_connection_details
                0x0000da80       0x54
 i.BT_hci_get_connection_details
                0x0000da80       0x54 C:\9047software\PSoC Creator\3.3\PSoC Creator\psoc\content\cycomponentlibrary\CyComponentLibrary.cylib\BLE_v2_0\Library\gccCyBLEStack_BLE_SOC_PERIPHERAL.a(hci_api.o)
                0x0000da80                BT_hci_get_connection_details

i.BT_hci_get_connection_handle
                0x0000dad4       0x54
 i.BT_hci_get_connection_handle
                0x0000dad4       0x54 C:\9047software\PSoC Creator\3.3\PSoC Creator\psoc\content\cycomponentlibrary\CyComponentLibrary.cylib\BLE_v2_0\Library\gccCyBLEStack_BLE_SOC_PERIPHERAL.a(hci_api.o)
                0x0000dad4                BT_hci_get_connection_handle

i.BT_hci_get_local_bd_addr
                0x0000db28       0x20
 i.BT_hci_get_local_bd_addr
                0x0000db28       0x20 C:\9047software\PSoC Creator\3.3\PSoC Creator\psoc\content\cycomponentlibrary\CyComponentLibrary.cylib\BLE_v2_0\Library\gccCyBLEStack_BLE_SOC_PERIPHERAL.a(hci_api.o)
                0x0000db28                BT_hci_get_local_bd_addr

i.BT_hci_le_get_device_role
                0x0000db48       0x34
 i.BT_hci_le_get_device_role
                0x0000db48       0x34 C:\9047software\PSoC Creator\3.3\PSoC Creator\psoc\content\cycomponentlibrary\CyComponentLibrary.cylib\BLE_v2_0\Library\gccCyBLEStack_BLE_SOC_PERIPHERAL.a(hci_api.o)
                0x0000db48                BT_hci_le_get_device_role

i.BT_hci_register_event_indication_callback
                0x0000db7c       0x20
 i.BT_hci_register_event_indication_callback
                0x0000db7c       0x20 C:\9047software\PSoC Creator\3.3\PSoC Creator\psoc\content\cycomponentlibrary\CyComponentLibrary.cylib\BLE_v2_0\Library\gccCyBLEStack_BLE_SOC_PERIPHERAL.a(hci_api.o)
                0x0000db7c                BT_hci_register_event_indication_callback

i.hci_write_command_UCHAR
                0x0000db9c        0xc
 i.hci_write_command_UCHAR
                0x0000db9c        0xc C:\9047software\PSoC Creator\3.3\PSoC Creator\psoc\content\cycomponentlibrary\CyComponentLibrary.cylib\BLE_v2_0\Library\gccCyBLEStack_BLE_SOC_PERIPHERAL.a(hci_api.o)
                0x0000db9c                hci_write_command_UCHAR

i.hci_write_command_UCHAR_array
                0x0000dba8       0x1c
 i.hci_write_command_UCHAR_array
                0x0000dba8       0x1c C:\9047software\PSoC Creator\3.3\PSoC Creator\psoc\content\cycomponentlibrary\CyComponentLibrary.cylib\BLE_v2_0\Library\gccCyBLEStack_BLE_SOC_PERIPHERAL.a(hci_api.o)
                0x0000dba8                hci_write_command_UCHAR_array

i.hci_write_command_adv_scan_response_data
                0x0000dbc4       0x4c
 i.hci_write_command_adv_scan_response_data
                0x0000dbc4       0x4c C:\9047software\PSoC Creator\3.3\PSoC Creator\psoc\content\cycomponentlibrary\CyComponentLibrary.cylib\BLE_v2_0\Library\gccCyBLEStack_BLE_SOC_PERIPHERAL.a(hci_api.o)
                0x0000dbc4                hci_write_command_adv_scan_response_data

i.hci_write_command_connection_handle
                0x0000dc10       0x24
 i.hci_write_command_connection_handle
                0x0000dc10       0x24 C:\9047software\PSoC Creator\3.3\PSoC Creator\psoc\content\cycomponentlibrary\CyComponentLibrary.cylib\BLE_v2_0\Library\gccCyBLEStack_BLE_SOC_PERIPHERAL.a(hci_api.o)
                0x0000dc10                hci_write_command_connection_handle

i.hci_disconnect_req
                0x0000dc34       0x1c
 i.hci_disconnect_req
                0x0000dc34       0x1c C:\9047software\PSoC Creator\3.3\PSoC Creator\psoc\content\cycomponentlibrary\CyComponentLibrary.cylib\BLE_v2_0\Library\gccCyBLEStack_BLE_SOC_PERIPHERAL.a(hci_link_control_api.o)
                0x0000dc34                hci_disconnect_req

i.hci_common_api_handler
                0x0000dc50       0x50
 i.hci_common_api_handler
                0x0000dc50       0x50 C:\9047software\PSoC Creator\3.3\PSoC Creator\psoc\content\cycomponentlibrary\CyComponentLibrary.cylib\BLE_v2_0\Library\gccCyBLEStack_BLE_SOC_PERIPHERAL.a(hci_commands.o)
                0x0000dc50                hci_common_api_handler

i.hci_common_api_handler_no_params
                0x0000dca0        0xc
 i.hci_common_api_handler_no_params
                0x0000dca0        0xc C:\9047software\PSoC Creator\3.3\PSoC Creator\psoc\content\cycomponentlibrary\CyComponentLibrary.cylib\BLE_v2_0\Library\gccCyBLEStack_BLE_SOC_PERIPHERAL.a(hci_commands.o)
                0x0000dca0                hci_common_api_handler_no_params

i.hci_auth_complete_encrypt_change_event
                0x0000dcac       0x14
 i.hci_auth_complete_encrypt_change_event
                0x0000dcac       0x14 C:\9047software\PSoC Creator\3.3\PSoC Creator\psoc\content\cycomponentlibrary\CyComponentLibrary.cylib\BLE_v2_0\Library\gccCyBLEStack_BLE_SOC_PERIPHERAL.a(hci_events.o)
                0x0000dcac                hci_auth_complete_encrypt_change_event

i.hci_command_complete_event
                0x0000dcc0       0xec
 i.hci_command_complete_event
                0x0000dcc0       0xec C:\9047software\PSoC Creator\3.3\PSoC Creator\psoc\content\cycomponentlibrary\CyComponentLibrary.cylib\BLE_v2_0\Library\gccCyBLEStack_BLE_SOC_PERIPHERAL.a(hci_events.o)
                0x0000dcc0                hci_command_complete_event

i.hci_command_status_event
                0x0000ddac       0x64
 i.hci_command_status_event
                0x0000ddac       0x64 C:\9047software\PSoC Creator\3.3\PSoC Creator\psoc\content\cycomponentlibrary\CyComponentLibrary.cylib\BLE_v2_0\Library\gccCyBLEStack_BLE_SOC_PERIPHERAL.a(hci_events.o)
                0x0000ddac                hci_command_status_event

i.hci_handle_hardware_error
                0x0000de10       0x54
 i.hci_handle_hardware_error
                0x0000de10       0x54 C:\9047software\PSoC Creator\3.3\PSoC Creator\psoc\content\cycomponentlibrary\CyComponentLibrary.cylib\BLE_v2_0\Library\gccCyBLEStack_BLE_SOC_PERIPHERAL.a(hci_events.o)
                0x0000de10                hci_handle_hardware_error

i.hci_le_deliver_packets
                0x0000de64       0x30
 i.hci_le_deliver_packets
                0x0000de64       0x30 C:\9047software\PSoC Creator\3.3\PSoC Creator\psoc\content\cycomponentlibrary\CyComponentLibrary.cylib\BLE_v2_0\Library\gccCyBLEStack_BLE_SOC_PERIPHERAL.a(hci_events.o)
                0x0000de64                hci_le_deliver_packets

i.hci_le_enqueue_packet
                0x0000de94       0x30
 i.hci_le_enqueue_packet
                0x0000de94       0x30 C:\9047software\PSoC Creator\3.3\PSoC Creator\psoc\content\cycomponentlibrary\CyComponentLibrary.cylib\BLE_v2_0\Library\gccCyBLEStack_BLE_SOC_PERIPHERAL.a(hci_events.o)

i.hci_le_long_term_key_requested_event
                0x0000dec4       0x14
 i.hci_le_long_term_key_requested_event
                0x0000dec4       0x14 C:\9047software\PSoC Creator\3.3\PSoC Creator\psoc\content\cycomponentlibrary\CyComponentLibrary.cylib\BLE_v2_0\Library\gccCyBLEStack_BLE_SOC_PERIPHERAL.a(hci_events.o)
                0x0000dec4                hci_le_long_term_key_requested_event

i.hci_number_of_completed_packets_event
                0x0000ded8       0x2e
 i.hci_number_of_completed_packets_event
                0x0000ded8       0x2e C:\9047software\PSoC Creator\3.3\PSoC Creator\psoc\content\cycomponentlibrary\CyComponentLibrary.cylib\BLE_v2_0\Library\gccCyBLEStack_BLE_SOC_PERIPHERAL.a(hci_events.o)
                0x0000ded8                hci_number_of_completed_packets_event

i.hci_transport_read_data
                0x0000df08      0x148
 i.hci_transport_read_data
                0x0000df08      0x148 C:\9047software\PSoC Creator\3.3\PSoC Creator\psoc\content\cycomponentlibrary\CyComponentLibrary.cylib\BLE_v2_0\Library\gccCyBLEStack_BLE_SOC_PERIPHERAL.a(hci_events.o)
                0x0000df08                hci_transport_read_data

i.hci_bt_init   0x0000e050       0x58
 i.hci_bt_init  0x0000e050       0x58 C:\9047software\PSoC Creator\3.3\PSoC Creator\psoc\content\cycomponentlibrary\CyComponentLibrary.cylib\BLE_v2_0\Library\gccCyBLEStack_BLE_SOC_PERIPHERAL.a(hci_init.o)
                0x0000e050                hci_bt_init

i.hci_bt_shutdown
                0x0000e0a8       0x48
 i.hci_bt_shutdown
                0x0000e0a8       0x48 C:\9047software\PSoC Creator\3.3\PSoC Creator\psoc\content\cycomponentlibrary\CyComponentLibrary.cylib\BLE_v2_0\Library\gccCyBLEStack_BLE_SOC_PERIPHERAL.a(hci_init.o)
                0x0000e0a8                hci_bt_shutdown

i.hci_handle_init_sequence
                0x0000e0f0       0xb0
 i.hci_handle_init_sequence
                0x0000e0f0       0xb0 C:\9047software\PSoC Creator\3.3\PSoC Creator\psoc\content\cycomponentlibrary\CyComponentLibrary.cylib\BLE_v2_0\Library\gccCyBLEStack_BLE_SOC_PERIPHERAL.a(hci_init.o)
                0x0000e0f0                hci_handle_init_sequence

i.hci_init      0x0000e1a0        0xc
 i.hci_init     0x0000e1a0        0xc C:\9047software\PSoC Creator\3.3\PSoC Creator\psoc\content\cycomponentlibrary\CyComponentLibrary.cylib\BLE_v2_0\Library\gccCyBLEStack_BLE_SOC_PERIPHERAL.a(hci_init.o)
                0x0000e1a0                hci_init

i.BT_hci_le_encrypt
                0x0000e1ac       0x58
 i.BT_hci_le_encrypt
                0x0000e1ac       0x58 C:\9047software\PSoC Creator\3.3\PSoC Creator\psoc\content\cycomponentlibrary\CyComponentLibrary.cylib\BLE_v2_0\Library\gccCyBLEStack_BLE_SOC_PERIPHERAL.a(hci_le_api.o)
                0x0000e1ac                BT_hci_le_encrypt

i.BT_hci_le_long_term_key_requested_reply
                0x0000e204       0x44
 i.BT_hci_le_long_term_key_requested_reply
                0x0000e204       0x44 C:\9047software\PSoC Creator\3.3\PSoC Creator\psoc\content\cycomponentlibrary\CyComponentLibrary.cylib\BLE_v2_0\Library\gccCyBLEStack_BLE_SOC_PERIPHERAL.a(hci_le_api.o)
                0x0000e204                BT_hci_le_long_term_key_requested_reply

i.BT_hci_le_set_advertising_parameters
                0x0000e248       0x84
 i.BT_hci_le_set_advertising_parameters
                0x0000e248       0x84 C:\9047software\PSoC Creator\3.3\PSoC Creator\psoc\content\cycomponentlibrary\CyComponentLibrary.cylib\BLE_v2_0\Library\gccCyBLEStack_BLE_SOC_PERIPHERAL.a(hci_le_api.o)
                0x0000e248                BT_hci_le_set_advertising_parameters

i.hci_alloc_remote_device
                0x0000e2cc       0x38
 i.hci_alloc_remote_device
                0x0000e2cc       0x38 C:\9047software\PSoC Creator\3.3\PSoC Creator\psoc\content\cycomponentlibrary\CyComponentLibrary.cylib\BLE_v2_0\Library\gccCyBLEStack_BLE_SOC_PERIPHERAL.a(hci_utils.o)
                0x0000e2cc                hci_alloc_remote_device

i.hci_find_device_by_handle
                0x0000e304       0x2c
 i.hci_find_device_by_handle
                0x0000e304       0x2c C:\9047software\PSoC Creator\3.3\PSoC Creator\psoc\content\cycomponentlibrary\CyComponentLibrary.cylib\BLE_v2_0\Library\gccCyBLEStack_BLE_SOC_PERIPHERAL.a(hci_utils.o)
                0x0000e304                hci_find_device_by_handle

i.hci_free_remote_device
                0x0000e330       0x24
 i.hci_free_remote_device
                0x0000e330       0x24 C:\9047software\PSoC Creator\3.3\PSoC Creator\psoc\content\cycomponentlibrary\CyComponentLibrary.cylib\BLE_v2_0\Library\gccCyBLEStack_BLE_SOC_PERIPHERAL.a(hci_utils.o)
                0x0000e330                hci_free_remote_device

i.BT_smp_data_sign
                0x0000e354       0x54
 i.BT_smp_data_sign
                0x0000e354       0x54 C:\9047software\PSoC Creator\3.3\PSoC Creator\psoc\content\cycomponentlibrary\CyComponentLibrary.cylib\BLE_v2_0\Library\gccCyBLEStack_BLE_SOC_PERIPHERAL.a(smp_api.o)
                0x0000e354                BT_smp_data_sign

i.BT_smp_get_device_security_info
                0x0000e3a8       0x60
 i.BT_smp_get_device_security_info
                0x0000e3a8       0x60 C:\9047software\PSoC Creator\3.3\PSoC Creator\psoc\content\cycomponentlibrary\CyComponentLibrary.cylib\BLE_v2_0\Library\gccCyBLEStack_BLE_SOC_PERIPHERAL.a(smp_api.o)
                0x0000e3a8                BT_smp_get_device_security_info

i.BT_smp_notify_address_resolution
                0x0000e408       0x50
 i.BT_smp_notify_address_resolution
                0x0000e408       0x50 C:\9047software\PSoC Creator\3.3\PSoC Creator\psoc\content\cycomponentlibrary\CyComponentLibrary.cylib\BLE_v2_0\Library\gccCyBLEStack_BLE_SOC_PERIPHERAL.a(smp_api.o)
                0x0000e408                BT_smp_notify_address_resolution

i.BT_smp_param_request_reply
                0x0000e458       0x8c
 i.BT_smp_param_request_reply
                0x0000e458       0x8c C:\9047software\PSoC Creator\3.3\PSoC Creator\psoc\content\cycomponentlibrary\CyComponentLibrary.cylib\BLE_v2_0\Library\gccCyBLEStack_BLE_SOC_PERIPHERAL.a(smp_api.o)
                0x0000e458                BT_smp_param_request_reply

i.BT_smp_register_user_interface
                0x0000e4e4       0x18
 i.BT_smp_register_user_interface
                0x0000e4e4       0x18 C:\9047software\PSoC Creator\3.3\PSoC Creator\psoc\content\cycomponentlibrary\CyComponentLibrary.cylib\BLE_v2_0\Library\gccCyBLEStack_BLE_SOC_PERIPHERAL.a(smp_api.o)
                0x0000e4e4                BT_smp_register_user_interface

i.BT_smp_resolve_device
                0x0000e4fc       0x60
 i.BT_smp_resolve_device
                0x0000e4fc       0x60 C:\9047software\PSoC Creator\3.3\PSoC Creator\psoc\content\cycomponentlibrary\CyComponentLibrary.cylib\BLE_v2_0\Library\gccCyBLEStack_BLE_SOC_PERIPHERAL.a(smp_api.o)
                0x0000e4fc                BT_smp_resolve_device

i.BT_smp_verify_resolvable_pvt_addr
                0x0000e55c       0x44
 i.BT_smp_verify_resolvable_pvt_addr
                0x0000e55c       0x44 C:\9047software\PSoC Creator\3.3\PSoC Creator\psoc\content\cycomponentlibrary\CyComponentLibrary.cylib\BLE_v2_0\Library\gccCyBLEStack_BLE_SOC_PERIPHERAL.a(smp_api.o)
                0x0000e55c                BT_smp_verify_resolvable_pvt_addr

i.smp_cmac_complete
                0x0000e5a0       0x28
 i.smp_cmac_complete
                0x0000e5a0       0x28 C:\9047software\PSoC Creator\3.3\PSoC Creator\psoc\content\cycomponentlibrary\CyComponentLibrary.cylib\BLE_v2_0\Library\gccCyBLEStack_BLE_SOC_PERIPHERAL.a(smp_api.o)

i.smp_ah_eval_complete
                0x0000e5c8       0xd8
 i.smp_ah_eval_complete
                0x0000e5c8       0xd8 C:\9047software\PSoC Creator\3.3\PSoC Creator\psoc\content\cycomponentlibrary\CyComponentLibrary.cylib\BLE_v2_0\Library\gccCyBLEStack_BLE_SOC_PERIPHERAL.a(smp_core.o)
                0x0000e5c8                smp_ah_eval_complete

i.smp_authentication_complete
                0x0000e6a0       0x94
 i.smp_authentication_complete
                0x0000e6a0       0x94 C:\9047software\PSoC Creator\3.3\PSoC Creator\psoc\content\cycomponentlibrary\CyComponentLibrary.cylib\BLE_v2_0\Library\gccCyBLEStack_BLE_SOC_PERIPHERAL.a(smp_core.o)
                0x0000e6a0                smp_authentication_complete

i.smp_clear_connection_entity
                0x0000e734       0x58
 i.smp_clear_connection_entity
                0x0000e734       0x58 C:\9047software\PSoC Creator\3.3\PSoC Creator\psoc\content\cycomponentlibrary\CyComponentLibrary.cylib\BLE_v2_0\Library\gccCyBLEStack_BLE_SOC_PERIPHERAL.a(smp_core.o)
                0x0000e734                smp_clear_connection_entity

i.smp_get_auth_info_from_req
                0x0000e78c       0x1a
 i.smp_get_auth_info_from_req
                0x0000e78c       0x1a C:\9047software\PSoC Creator\3.3\PSoC Creator\psoc\content\cycomponentlibrary\CyComponentLibrary.cylib\BLE_v2_0\Library\gccCyBLEStack_BLE_SOC_PERIPHERAL.a(smp_core.o)
                0x0000e78c                smp_get_auth_info_from_req

i.smp_get_auth_req_from_info
                0x0000e7a6       0x20
 i.smp_get_auth_req_from_info
                0x0000e7a6       0x20 C:\9047software\PSoC Creator\3.3\PSoC Creator\psoc\content\cycomponentlibrary\CyComponentLibrary.cylib\BLE_v2_0\Library\gccCyBLEStack_BLE_SOC_PERIPHERAL.a(smp_core.o)
                0x0000e7a6                smp_get_auth_req_from_info

i.smp_get_iocap_assoc_model
                0x0000e7c8       0x1c
 i.smp_get_iocap_assoc_model
                0x0000e7c8       0x1c C:\9047software\PSoC Creator\3.3\PSoC Creator\psoc\content\cycomponentlibrary\CyComponentLibrary.cylib\BLE_v2_0\Library\gccCyBLEStack_BLE_SOC_PERIPHERAL.a(smp_core.o)
                0x0000e7c8                smp_get_iocap_assoc_model

i.smp_handle_security_request
                0x0000e7e4       0x44
 i.smp_handle_security_request
                0x0000e7e4       0x44 C:\9047software\PSoC Creator\3.3\PSoC Creator\psoc\content\cycomponentlibrary\CyComponentLibrary.cylib\BLE_v2_0\Library\gccCyBLEStack_BLE_SOC_PERIPHERAL.a(smp_core.o)
                0x0000e7e4                smp_handle_security_request

i.smp_procedure_timeout_cb
                0x0000e828       0x24
 i.smp_procedure_timeout_cb
                0x0000e828       0x24 C:\9047software\PSoC Creator\3.3\PSoC Creator\psoc\content\cycomponentlibrary\CyComponentLibrary.cylib\BLE_v2_0\Library\gccCyBLEStack_BLE_SOC_PERIPHERAL.a(smp_core.o)
                0x0000e828                smp_procedure_timeout_cb

i.smp_pvt_addr_rand_complete
                0x0000e84c       0x38
 i.smp_pvt_addr_rand_complete
                0x0000e84c       0x38 C:\9047software\PSoC Creator\3.3\PSoC Creator\psoc\content\cycomponentlibrary\CyComponentLibrary.cylib\BLE_v2_0\Library\gccCyBLEStack_BLE_SOC_PERIPHERAL.a(smp_core.o)
                0x0000e84c                smp_pvt_addr_rand_complete

i.smp_send_command
                0x0000e884       0x68
 i.smp_send_command
                0x0000e884       0x68 C:\9047software\PSoC Creator\3.3\PSoC Creator\psoc\content\cycomponentlibrary\CyComponentLibrary.cylib\BLE_v2_0\Library\gccCyBLEStack_BLE_SOC_PERIPHERAL.a(smp_core.o)
                0x0000e884                smp_send_command

i.smp_send_event
                0x0000e8ec       0x3c
 i.smp_send_event
                0x0000e8ec       0x3c C:\9047software\PSoC Creator\3.3\PSoC Creator\psoc\content\cycomponentlibrary\CyComponentLibrary.cylib\BLE_v2_0\Library\gccCyBLEStack_BLE_SOC_PERIPHERAL.a(smp_core.o)
                0x0000e8ec                smp_send_event

i.smp_send_pairing_failed
                0x0000e928       0x26
 i.smp_send_pairing_failed
                0x0000e928       0x26 C:\9047software\PSoC Creator\3.3\PSoC Creator\psoc\content\cycomponentlibrary\CyComponentLibrary.cylib\BLE_v2_0\Library\gccCyBLEStack_BLE_SOC_PERIPHERAL.a(smp_core.o)
                0x0000e928                smp_send_pairing_failed

i.smp_send_pairing_reqres
                0x0000e950       0x9c
 i.smp_send_pairing_reqres
                0x0000e950       0x9c C:\9047software\PSoC Creator\3.3\PSoC Creator\psoc\content\cycomponentlibrary\CyComponentLibrary.cylib\BLE_v2_0\Library\gccCyBLEStack_BLE_SOC_PERIPHERAL.a(smp_core.o)
                0x0000e950                smp_send_pairing_reqres

i.smp_timer_start
                0x0000e9ec       0x34
 i.smp_timer_start
                0x0000e9ec       0x34 C:\9047software\PSoC Creator\3.3\PSoC Creator\psoc\content\cycomponentlibrary\CyComponentLibrary.cylib\BLE_v2_0\Library\gccCyBLEStack_BLE_SOC_PERIPHERAL.a(smp_core.o)
                0x0000e9ec                smp_timer_start

i.smp_timer_stop
                0x0000ea20       0x20
 i.smp_timer_stop
                0x0000ea20       0x20 C:\9047software\PSoC Creator\3.3\PSoC Creator\psoc\content\cycomponentlibrary\CyComponentLibrary.cylib\BLE_v2_0\Library\gccCyBLEStack_BLE_SOC_PERIPHERAL.a(smp_core.o)
                0x0000ea20                smp_timer_stop

i.smp_validate_pairing_params
                0x0000ea40       0x50
 i.smp_validate_pairing_params
                0x0000ea40       0x50 C:\9047software\PSoC Creator\3.3\PSoC Creator\psoc\content\cycomponentlibrary\CyComponentLibrary.cylib\BLE_v2_0\Library\gccCyBLEStack_BLE_SOC_PERIPHERAL.a(smp_core.o)
                0x0000ea40                smp_validate_pairing_params

i.smp_validate_security
                0x0000ea90       0x24
 i.smp_validate_security
                0x0000ea90       0x24 C:\9047software\PSoC Creator\3.3\PSoC Creator\psoc\content\cycomponentlibrary\CyComponentLibrary.cylib\BLE_v2_0\Library\gccCyBLEStack_BLE_SOC_PERIPHERAL.a(smp_core.o)
                0x0000ea90                smp_validate_security

i.smp_bt_init   0x0000eab4       0x7c
 i.smp_bt_init  0x0000eab4       0x7c C:\9047software\PSoC Creator\3.3\PSoC Creator\psoc\content\cycomponentlibrary\CyComponentLibrary.cylib\BLE_v2_0\Library\gccCyBLEStack_BLE_SOC_PERIPHERAL.a(smp_init.o)
                0x0000eab4                smp_bt_init

i.smp_bt_shutdown
                0x0000eb30       0x24
 i.smp_bt_shutdown
                0x0000eb30       0x24 C:\9047software\PSoC Creator\3.3\PSoC Creator\psoc\content\cycomponentlibrary\CyComponentLibrary.cylib\BLE_v2_0\Library\gccCyBLEStack_BLE_SOC_PERIPHERAL.a(smp_init.o)
                0x0000eb30                smp_bt_shutdown

i.smp_init      0x0000eb54       0x18
 i.smp_init     0x0000eb54       0x18 C:\9047software\PSoC Creator\3.3\PSoC Creator\psoc\content\cycomponentlibrary\CyComponentLibrary.cylib\BLE_v2_0\Library\gccCyBLEStack_BLE_SOC_PERIPHERAL.a(smp_init.o)
                0x0000eb54                smp_init

i.smp_command_complete
                0x0000eb6c       0x3c
 i.smp_command_complete
                0x0000eb6c       0x3c C:\9047software\PSoC Creator\3.3\PSoC Creator\psoc\content\cycomponentlibrary\CyComponentLibrary.cylib\BLE_v2_0\Library\gccCyBLEStack_BLE_SOC_PERIPHERAL.a(smp_interface.o)
                0x0000eb6c                smp_command_complete

i.smp_encryption_complete
                0x0000eba8       0x58
 i.smp_encryption_complete
                0x0000eba8       0x58 C:\9047software\PSoC Creator\3.3\PSoC Creator\psoc\content\cycomponentlibrary\CyComponentLibrary.cylib\BLE_v2_0\Library\gccCyBLEStack_BLE_SOC_PERIPHERAL.a(smp_interface.o)
                0x0000eba8                smp_encryption_complete

i.smp_l2cap_connection_complete
                0x0000ec00       0x64
 i.smp_l2cap_connection_complete
                0x0000ec00       0x64 C:\9047software\PSoC Creator\3.3\PSoC Creator\psoc\content\cycomponentlibrary\CyComponentLibrary.cylib\BLE_v2_0\Library\gccCyBLEStack_BLE_SOC_PERIPHERAL.a(smp_interface.o)

i.smp_l2cap_data_read_ind
                0x0000ec64       0xa4
 i.smp_l2cap_data_read_ind
                0x0000ec64       0xa4 C:\9047software\PSoC Creator\3.3\PSoC Creator\psoc\content\cycomponentlibrary\CyComponentLibrary.cylib\BLE_v2_0\Library\gccCyBLEStack_BLE_SOC_PERIPHERAL.a(smp_interface.o)

i.smp_l2cap_disconnection_complete
                0x0000ed08       0x14
 i.smp_l2cap_disconnection_complete
                0x0000ed08       0x14 C:\9047software\PSoC Creator\3.3\PSoC Creator\psoc\content\cycomponentlibrary\CyComponentLibrary.cylib\BLE_v2_0\Library\gccCyBLEStack_BLE_SOC_PERIPHERAL.a(smp_interface.o)

i.smp_l2cap_event_cb
                0x0000ed1c       0x1c
 i.smp_l2cap_event_cb
                0x0000ed1c       0x1c C:\9047software\PSoC Creator\3.3\PSoC Creator\psoc\content\cycomponentlibrary\CyComponentLibrary.cylib\BLE_v2_0\Library\gccCyBLEStack_BLE_SOC_PERIPHERAL.a(smp_interface.o)
                0x0000ed1c                smp_l2cap_event_cb

i.smp_long_term_key_requested
                0x0000ed38       0x64
 i.smp_long_term_key_requested
                0x0000ed38       0x64 C:\9047software\PSoC Creator\3.3\PSoC Creator\psoc\content\cycomponentlibrary\CyComponentLibrary.cylib\BLE_v2_0\Library\gccCyBLEStack_BLE_SOC_PERIPHERAL.a(smp_interface.o)
                0x0000ed38                smp_long_term_key_requested

i.smp_16byte_xor
                0x0000ed9c       0x12
 i.smp_16byte_xor
                0x0000ed9c       0x12 C:\9047software\PSoC Creator\3.3\PSoC Creator\psoc\content\cycomponentlibrary\CyComponentLibrary.cylib\BLE_v2_0\Library\gccCyBLEStack_BLE_SOC_PERIPHERAL.a(smp_utils.o)
                0x0000ed9c                smp_16byte_xor

i.smp_create_device_entity
                0x0000edb0       0x84
 i.smp_create_device_entity
                0x0000edb0       0x84 C:\9047software\PSoC Creator\3.3\PSoC Creator\psoc\content\cycomponentlibrary\CyComponentLibrary.cylib\BLE_v2_0\Library\gccCyBLEStack_BLE_SOC_PERIPHERAL.a(smp_utils.o)
                0x0000edb0                smp_create_device_entity

i.smp_free_context
                0x0000ee34       0x2c
 i.smp_free_context
                0x0000ee34       0x2c C:\9047software\PSoC Creator\3.3\PSoC Creator\psoc\content\cycomponentlibrary\CyComponentLibrary.cylib\BLE_v2_0\Library\gccCyBLEStack_BLE_SOC_PERIPHERAL.a(smp_utils.o)
                0x0000ee34                smp_free_context

i.smp_get_context
                0x0000ee60       0x30
 i.smp_get_context
                0x0000ee60       0x30 C:\9047software\PSoC Creator\3.3\PSoC Creator\psoc\content\cycomponentlibrary\CyComponentLibrary.cylib\BLE_v2_0\Library\gccCyBLEStack_BLE_SOC_PERIPHERAL.a(smp_utils.o)
                0x0000ee60                smp_get_context

i.smp_get_fsm_event
                0x0000ee90       0x20
 i.smp_get_fsm_event
                0x0000ee90       0x20 C:\9047software\PSoC Creator\3.3\PSoC Creator\psoc\content\cycomponentlibrary\CyComponentLibrary.cylib\BLE_v2_0\Library\gccCyBLEStack_BLE_SOC_PERIPHERAL.a(smp_utils.o)
                0x0000ee90                smp_get_fsm_event

i.smp_reset_device_entity
                0x0000eeb0       0x4c
 i.smp_reset_device_entity
                0x0000eeb0       0x4c C:\9047software\PSoC Creator\3.3\PSoC Creator\psoc\content\cycomponentlibrary\CyComponentLibrary.cylib\BLE_v2_0\Library\gccCyBLEStack_BLE_SOC_PERIPHERAL.a(smp_utils.o)
                0x0000eeb0                smp_reset_device_entity

i.smp_search_and_add_device
                0x0000eefc       0x18
 i.smp_search_and_add_device
                0x0000eefc       0x18 C:\9047software\PSoC Creator\3.3\PSoC Creator\psoc\content\cycomponentlibrary\CyComponentLibrary.cylib\BLE_v2_0\Library\gccCyBLEStack_BLE_SOC_PERIPHERAL.a(smp_utils.o)
                0x0000eefc                smp_search_and_add_device

i.smp_search_device
                0x0000ef14       0x40
 i.smp_search_device
                0x0000ef14       0x40 C:\9047software\PSoC Creator\3.3\PSoC Creator\psoc\content\cycomponentlibrary\CyComponentLibrary.cylib\BLE_v2_0\Library\gccCyBLEStack_BLE_SOC_PERIPHERAL.a(smp_utils.o)
                0x0000ef14                smp_search_device

i.smp_set_device_validity
                0x0000ef54       0x28
 i.smp_set_device_validity
                0x0000ef54       0x28 C:\9047software\PSoC Creator\3.3\PSoC Creator\psoc\content\cycomponentlibrary\CyComponentLibrary.cylib\BLE_v2_0\Library\gccCyBLEStack_BLE_SOC_PERIPHERAL.a(smp_utils.o)
                0x0000ef54                smp_set_device_validity

i.smp_access_state_handler
                0x0000ef7c       0x18
 i.smp_access_state_handler
                0x0000ef7c       0x18 C:\9047software\PSoC Creator\3.3\PSoC Creator\psoc\content\cycomponentlibrary\CyComponentLibrary.cylib\BLE_v2_0\Library\gccCyBLEStack_BLE_SOC_PERIPHERAL.a(smp_fsm_engine.o)
                0x0000ef7c                smp_access_state_handler

i.smp_fsm_post_event
                0x0000ef94       0x40
 i.smp_fsm_post_event
                0x0000ef94       0x40 C:\9047software\PSoC Creator\3.3\PSoC Creator\psoc\content\cycomponentlibrary\CyComponentLibrary.cylib\BLE_v2_0\Library\gccCyBLEStack_BLE_SOC_PERIPHERAL.a(smp_fsm_engine.o)
                0x0000ef94                smp_fsm_post_event

i.smp_tbx_ah_eval
                0x0000efd4       0x34
 i.smp_tbx_ah_eval
                0x0000efd4       0x34 C:\9047software\PSoC Creator\3.3\PSoC Creator\psoc\content\cycomponentlibrary\CyComponentLibrary.cylib\BLE_v2_0\Library\gccCyBLEStack_BLE_SOC_PERIPHERAL.a(smp_tools.o)
                0x0000efd4                smp_tbx_ah_eval

i.smp_tbx_c1_eval
                0x0000f008       0xa6
 i.smp_tbx_c1_eval
                0x0000f008       0xa6 C:\9047software\PSoC Creator\3.3\PSoC Creator\psoc\content\cycomponentlibrary\CyComponentLibrary.cylib\BLE_v2_0\Library\gccCyBLEStack_BLE_SOC_PERIPHERAL.a(smp_tools.o)
                0x0000f008                smp_tbx_c1_eval

i.smp_tbx_encryption_complete
                0x0000f0b0       0x80
 i.smp_tbx_encryption_complete
                0x0000f0b0       0x80 C:\9047software\PSoC Creator\3.3\PSoC Creator\psoc\content\cycomponentlibrary\CyComponentLibrary.cylib\BLE_v2_0\Library\gccCyBLEStack_BLE_SOC_PERIPHERAL.a(smp_tools.o)
                0x0000f0b0                smp_tbx_encryption_complete

i.smp_tbx_rand_complete
                0x0000f130       0x34
 i.smp_tbx_rand_complete
                0x0000f130       0x34 C:\9047software\PSoC Creator\3.3\PSoC Creator\psoc\content\cycomponentlibrary\CyComponentLibrary.cylib\BLE_v2_0\Library\gccCyBLEStack_BLE_SOC_PERIPHERAL.a(smp_tools.o)
                0x0000f130                smp_tbx_rand_complete

i.smp_tbx_s1_eval
                0x0000f164       0x3a
 i.smp_tbx_s1_eval
                0x0000f164       0x3a C:\9047software\PSoC Creator\3.3\PSoC Creator\psoc\content\cycomponentlibrary\CyComponentLibrary.cylib\BLE_v2_0\Library\gccCyBLEStack_BLE_SOC_PERIPHERAL.a(smp_tools.o)
                0x0000f164                smp_tbx_s1_eval

i.smp_pstorage_cb
                0x0000f19e       0x16
 i.smp_pstorage_cb
                0x0000f19e       0x16 C:\9047software\PSoC Creator\3.3\PSoC Creator\psoc\content\cycomponentlibrary\CyComponentLibrary.cylib\BLE_v2_0\Library\gccCyBLEStack_BLE_SOC_PERIPHERAL.a(smp_psstore.o)
                0x0000f19e                smp_pstorage_cb

i.smp_storage_read
                0x0000f1b4       0x70
 i.smp_storage_read
                0x0000f1b4       0x70 C:\9047software\PSoC Creator\3.3\PSoC Creator\psoc\content\cycomponentlibrary\CyComponentLibrary.cylib\BLE_v2_0\Library\gccCyBLEStack_BLE_SOC_PERIPHERAL.a(smp_psstore.o)
                0x0000f1b4                smp_storage_read

i.smp_storage_write
                0x0000f224       0x6c
 i.smp_storage_write
                0x0000f224       0x6c C:\9047software\PSoC Creator\3.3\PSoC Creator\psoc\content\cycomponentlibrary\CyComponentLibrary.cylib\BLE_v2_0\Library\gccCyBLEStack_BLE_SOC_PERIPHERAL.a(smp_psstore.o)
                0x0000f224                smp_storage_write

i.write_task_bt_init
                0x0000f290       0x1c
 i.write_task_bt_init
                0x0000f290       0x1c C:\9047software\PSoC Creator\3.3\PSoC Creator\psoc\content\cycomponentlibrary\CyComponentLibrary.cylib\BLE_v2_0\Library\gccCyBLEStack_BLE_SOC_PERIPHERAL.a(write_task.o)
                0x0000f290                write_task_bt_init

i.write_task_bt_shutdown
                0x0000f2ac       0x48
 i.write_task_bt_shutdown
                0x0000f2ac       0x48 C:\9047software\PSoC Creator\3.3\PSoC Creator\psoc\content\cycomponentlibrary\CyComponentLibrary.cylib\BLE_v2_0\Library\gccCyBLEStack_BLE_SOC_PERIPHERAL.a(write_task.o)
                0x0000f2ac                write_task_bt_shutdown

i.write_task_enqueue
                0x0000f2f4       0x8c
 i.write_task_enqueue
                0x0000f2f4       0x8c C:\9047software\PSoC Creator\3.3\PSoC Creator\psoc\content\cycomponentlibrary\CyComponentLibrary.cylib\BLE_v2_0\Library\gccCyBLEStack_BLE_SOC_PERIPHERAL.a(write_task.o)
                0x0000f2f4                write_task_enqueue

i.write_task_init
                0x0000f380       0x4c
 i.write_task_init
                0x0000f380       0x4c C:\9047software\PSoC Creator\3.3\PSoC Creator\psoc\content\cycomponentlibrary\CyComponentLibrary.cylib\BLE_v2_0\Library\gccCyBLEStack_BLE_SOC_PERIPHERAL.a(write_task.o)
                0x0000f380                write_task_init

i.write_task_start_routine
                0x0000f3cc       0x3c
 i.write_task_start_routine
                0x0000f3cc       0x3c C:\9047software\PSoC Creator\3.3\PSoC Creator\psoc\content\cycomponentlibrary\CyComponentLibrary.cylib\BLE_v2_0\Library\gccCyBLEStack_BLE_SOC_PERIPHERAL.a(write_task.o)
                0x0000f3cc                write_task_start_routine

i.wt_service_queue
                0x0000f408       0x90
 i.wt_service_queue
                0x0000f408       0x90 C:\9047software\PSoC Creator\3.3\PSoC Creator\psoc\content\cycomponentlibrary\CyComponentLibrary.cylib\BLE_v2_0\Library\gccCyBLEStack_BLE_SOC_PERIPHERAL.a(write_task.o)
                0x0000f408                wt_service_queue

i.aes_cmac      0x0000f498       0x8c
 i.aes_cmac     0x0000f498       0x8c C:\9047software\PSoC Creator\3.3\PSoC Creator\psoc\content\cycomponentlibrary\CyComponentLibrary.cylib\BLE_v2_0\Library\gccCyBLEStack_BLE_SOC_PERIPHERAL.a(aes_cmac.o)
                0x0000f498                aes_cmac

i.aes_cmac_1bit_leftshift_16octet_stream
                0x0000f524       0x20
 i.aes_cmac_1bit_leftshift_16octet_stream
                0x0000f524       0x20 C:\9047software\PSoC Creator\3.3\PSoC Creator\psoc\content\cycomponentlibrary\CyComponentLibrary.cylib\BLE_v2_0\Library\gccCyBLEStack_BLE_SOC_PERIPHERAL.a(aes_cmac.o)

i.aes_cmac_aes_128_encryption_complete
                0x0000f544       0xa4
 i.aes_cmac_aes_128_encryption_complete
                0x0000f544       0xa4 C:\9047software\PSoC Creator\3.3\PSoC Creator\psoc\content\cycomponentlibrary\CyComponentLibrary.cylib\BLE_v2_0\Library\gccCyBLEStack_BLE_SOC_PERIPHERAL.a(aes_cmac.o)
                0x0000f544                aes_cmac_aes_128_encryption_complete

i.aes_cmac_context_init
                0x0000f5e8       0x1c
 i.aes_cmac_context_init
                0x0000f5e8       0x1c C:\9047software\PSoC Creator\3.3\PSoC Creator\psoc\content\cycomponentlibrary\CyComponentLibrary.cylib\BLE_v2_0\Library\gccCyBLEStack_BLE_SOC_PERIPHERAL.a(aes_cmac.o)
                0x0000f5e8                aes_cmac_context_init

i.aes_cmac_create_subkeys
                0x0000f604       0x50
 i.aes_cmac_create_subkeys
                0x0000f604       0x50 C:\9047software\PSoC Creator\3.3\PSoC Creator\psoc\content\cycomponentlibrary\CyComponentLibrary.cylib\BLE_v2_0\Library\gccCyBLEStack_BLE_SOC_PERIPHERAL.a(aes_cmac.o)

i.aes_cmac_finalize_mac
                0x0000f654       0xb8
 i.aes_cmac_finalize_mac
                0x0000f654       0xb8 C:\9047software\PSoC Creator\3.3\PSoC Creator\psoc\content\cycomponentlibrary\CyComponentLibrary.cylib\BLE_v2_0\Library\gccCyBLEStack_BLE_SOC_PERIPHERAL.a(aes_cmac.o)

i.aes_cmac_generate_mac
                0x0000f70c       0x7c
 i.aes_cmac_generate_mac
                0x0000f70c       0x7c C:\9047software\PSoC Creator\3.3\PSoC Creator\psoc\content\cycomponentlibrary\CyComponentLibrary.cylib\BLE_v2_0\Library\gccCyBLEStack_BLE_SOC_PERIPHERAL.a(aes_cmac.o)

i.aes_cmac_handle_process_completion
                0x0000f788       0x4c
 i.aes_cmac_handle_process_completion
                0x0000f788       0x4c C:\9047software\PSoC Creator\3.3\PSoC Creator\psoc\content\cycomponentlibrary\CyComponentLibrary.cylib\BLE_v2_0\Library\gccCyBLEStack_BLE_SOC_PERIPHERAL.a(aes_cmac.o)

i.aes_cmac_xor_16octet
                0x0000f7d4       0x12
 i.aes_cmac_xor_16octet
                0x0000f7d4       0x12 C:\9047software\PSoC Creator\3.3\PSoC Creator\psoc\content\cycomponentlibrary\CyComponentLibrary.cylib\BLE_v2_0\Library\gccCyBLEStack_BLE_SOC_PERIPHERAL.a(aes_cmac.o)

i.aes_cmac_128B_encrypt_complete_pl
                0x0000f7e6        0x8
 i.aes_cmac_128B_encrypt_complete_pl
                0x0000f7e6        0x8 C:\9047software\PSoC Creator\3.3\PSoC Creator\psoc\content\cycomponentlibrary\CyComponentLibrary.cylib\BLE_v2_0\Library\gccCyBLEStack_BLE_SOC_PERIPHERAL.a(aes_cmac_pl.o)
                0x0000f7e6                aes_cmac_128B_encrypt_complete_pl

i.aes_cmac_128B_encrypt_pl
                0x0000f7ee       0x12
 i.aes_cmac_128B_encrypt_pl
                0x0000f7ee       0x12 C:\9047software\PSoC Creator\3.3\PSoC Creator\psoc\content\cycomponentlibrary\CyComponentLibrary.cylib\BLE_v2_0\Library\gccCyBLEStack_BLE_SOC_PERIPHERAL.a(aes_cmac_pl.o)
                0x0000f7ee                aes_cmac_128B_encrypt_pl

i.BT_status_set_bit
                0x0000f800       0x24
 i.BT_status_set_bit
                0x0000f800       0x24 C:\9047software\PSoC Creator\3.3\PSoC Creator\psoc\content\cycomponentlibrary\CyComponentLibrary.cylib\BLE_v2_0\Library\gccCyBLEStack_BLE_SOC_PERIPHERAL.a(status.o)
                0x0000f800                BT_status_set_bit

i.status_bt_init
                0x0000f824        0xc
 i.status_bt_init
                0x0000f824        0xc C:\9047software\PSoC Creator\3.3\PSoC Creator\psoc\content\cycomponentlibrary\CyComponentLibrary.cylib\BLE_v2_0\Library\gccCyBLEStack_BLE_SOC_PERIPHERAL.a(status.o)
                0x0000f824                status_bt_init

i.status_init   0x0000f830        0x2
 i.status_init  0x0000f830        0x2 C:\9047software\PSoC Creator\3.3\PSoC Creator\psoc\content\cycomponentlibrary\CyComponentLibrary.cylib\BLE_v2_0\Library\gccCyBLEStack_BLE_SOC_PERIPHERAL.a(status.o)
                0x0000f830                status_init

i.BT_storage_load_db
                0x0000f834       0x60
 i.BT_storage_load_db
                0x0000f834       0x60 C:\9047software\PSoC Creator\3.3\PSoC Creator\psoc\content\cycomponentlibrary\CyComponentLibrary.cylib\BLE_v2_0\Library\gccCyBLEStack_BLE_SOC_PERIPHERAL.a(storage.o)
                0x0000f834                BT_storage_load_db

i.BT_storage_read
                0x0000f894       0x12
 i.BT_storage_read
                0x0000f894       0x12 C:\9047software\PSoC Creator\3.3\PSoC Creator\psoc\content\cycomponentlibrary\CyComponentLibrary.cylib\BLE_v2_0\Library\gccCyBLEStack_BLE_SOC_PERIPHERAL.a(storage.o)
                0x0000f894                BT_storage_read

i.BT_storage_register_db
                0x0000f8a8       0x48
 i.BT_storage_register_db
                0x0000f8a8       0x48 C:\9047software\PSoC Creator\3.3\PSoC Creator\psoc\content\cycomponentlibrary\CyComponentLibrary.cylib\BLE_v2_0\Library\gccCyBLEStack_BLE_SOC_PERIPHERAL.a(storage.o)
                0x0000f8a8                BT_storage_register_db

i.BT_storage_store_db
                0x0000f8f0       0x5c
 i.BT_storage_store_db
                0x0000f8f0       0x5c C:\9047software\PSoC Creator\3.3\PSoC Creator\psoc\content\cycomponentlibrary\CyComponentLibrary.cylib\BLE_v2_0\Library\gccCyBLEStack_BLE_SOC_PERIPHERAL.a(storage.o)
                0x0000f8f0                BT_storage_store_db

i.BT_storage_write
                0x0000f94c       0x12
 i.BT_storage_write
                0x0000f94c       0x12 C:\9047software\PSoC Creator\3.3\PSoC Creator\psoc\content\cycomponentlibrary\CyComponentLibrary.cylib\BLE_v2_0\Library\gccCyBLEStack_BLE_SOC_PERIPHERAL.a(storage.o)
                0x0000f94c                BT_storage_write

i.storage_bt_init
                0x0000f95e        0xe
 i.storage_bt_init
                0x0000f95e        0xe C:\9047software\PSoC Creator\3.3\PSoC Creator\psoc\content\cycomponentlibrary\CyComponentLibrary.cylib\BLE_v2_0\Library\gccCyBLEStack_BLE_SOC_PERIPHERAL.a(storage.o)
                0x0000f95e                storage_bt_init

i.storage_bt_shutdown
                0x0000f96c        0xe
 i.storage_bt_shutdown
                0x0000f96c        0xe C:\9047software\PSoC Creator\3.3\PSoC Creator\psoc\content\cycomponentlibrary\CyComponentLibrary.cylib\BLE_v2_0\Library\gccCyBLEStack_BLE_SOC_PERIPHERAL.a(storage.o)
                0x0000f96c                storage_bt_shutdown

i.storage_get_base_size_for_type
                0x0000f97c       0x1c
 i.storage_get_base_size_for_type
                0x0000f97c       0x1c C:\9047software\PSoC Creator\3.3\PSoC Creator\psoc\content\cycomponentlibrary\CyComponentLibrary.cylib\BLE_v2_0\Library\gccCyBLEStack_BLE_SOC_PERIPHERAL.a(storage.o)

i.storage_init  0x0000f998       0x18
 i.storage_init
                0x0000f998       0x18 C:\9047software\PSoC Creator\3.3\PSoC Creator\psoc\content\cycomponentlibrary\CyComponentLibrary.cylib\BLE_v2_0\Library\gccCyBLEStack_BLE_SOC_PERIPHERAL.a(storage.o)
                0x0000f998                storage_init

i.storage_search_index
                0x0000f9b0       0x30
 i.storage_search_index
                0x0000f9b0       0x30 C:\9047software\PSoC Creator\3.3\PSoC Creator\psoc\content\cycomponentlibrary\CyComponentLibrary.cylib\BLE_v2_0\Library\gccCyBLEStack_BLE_SOC_PERIPHERAL.a(storage.o)

i.BT_ISROSQPost
                0x0000f9e0        0xa
 i.BT_ISROSQPost
                0x0000f9e0        0xa C:\9047software\PSoC Creator\3.3\PSoC Creator\psoc\content\cycomponentlibrary\CyComponentLibrary.cylib\BLE_v2_0\Library\gccCyBLEStack_BLE_SOC_PERIPHERAL.a(bt_os_common.o)
                0x0000f9e0                BT_ISROSQPost

i.BT_OSQPost    0x0000f9ea        0xa
 i.BT_OSQPost   0x0000f9ea        0xa C:\9047software\PSoC Creator\3.3\PSoC Creator\psoc\content\cycomponentlibrary\CyComponentLibrary.cylib\BLE_v2_0\Library\gccCyBLEStack_BLE_SOC_PERIPHERAL.a(bt_os_common.o)
                0x0000f9ea                BT_OSQPost

i.BT_thread_create
                0x0000f9f4       0x30
 i.BT_thread_create
                0x0000f9f4       0x30 C:\9047software\PSoC Creator\3.3\PSoC Creator\psoc\content\cycomponentlibrary\CyComponentLibrary.cylib\BLE_v2_0\Library\gccCyBLEStack_BLE_SOC_PERIPHERAL.a(bt_os_common.o)
                0x0000f9f4                BT_thread_create

i.pf_timer_handle_tick
                0x0000fa24        0x8
 i.pf_timer_handle_tick
                0x0000fa24        0x8 C:\9047software\PSoC Creator\3.3\PSoC Creator\psoc\content\cycomponentlibrary\CyComponentLibrary.cylib\BLE_v2_0\Library\gccCyBLEStack_BLE_SOC_PERIPHERAL.a(bt_os_common.o)
                0x0000fa24                pf_timer_handle_tick

i.BT_start_timer
                0x0000fa2c       0x7c
 i.BT_start_timer
                0x0000fa2c       0x7c C:\9047software\PSoC Creator\3.3\PSoC Creator\psoc\content\cycomponentlibrary\CyComponentLibrary.cylib\BLE_v2_0\Library\gccCyBLEStack_BLE_SOC_PERIPHERAL.a(BT_timer.o)
                0x0000fa2c                BT_start_timer

i.BT_stop_timer
                0x0000faa8       0x58
 i.BT_stop_timer
                0x0000faa8       0x58 C:\9047software\PSoC Creator\3.3\PSoC Creator\psoc\content\cycomponentlibrary\CyComponentLibrary.cylib\BLE_v2_0\Library\gccCyBLEStack_BLE_SOC_PERIPHERAL.a(BT_timer.o)
                0x0000faa8                BT_stop_timer

i.BT_timer_process_signals
                0x0000fb00       0x58
 i.BT_timer_process_signals
                0x0000fb00       0x58 C:\9047software\PSoC Creator\3.3\PSoC Creator\psoc\content\cycomponentlibrary\CyComponentLibrary.cylib\BLE_v2_0\Library\gccCyBLEStack_BLE_SOC_PERIPHERAL.a(BT_timer.o)
                0x0000fb00                BT_timer_process_signals

i.pf_timer_handle_callback
                0x0000fb58       0x20
 i.pf_timer_handle_callback
                0x0000fb58       0x20 C:\9047software\PSoC Creator\3.3\PSoC Creator\psoc\content\cycomponentlibrary\CyComponentLibrary.cylib\BLE_v2_0\Library\gccCyBLEStack_BLE_SOC_PERIPHERAL.a(BT_timer.o)
                0x0000fb58                pf_timer_handle_callback

i.timer_active_entity
                0x0000fb78       0x24
 i.timer_active_entity
                0x0000fb78       0x24 C:\9047software\PSoC Creator\3.3\PSoC Creator\psoc\content\cycomponentlibrary\CyComponentLibrary.cylib\BLE_v2_0\Library\gccCyBLEStack_BLE_SOC_PERIPHERAL.a(BT_timer.o)
                0x0000fb78                timer_active_entity

i.timer_alloc_entity
                0x0000fb9c       0x1c
 i.timer_alloc_entity
                0x0000fb9c       0x1c C:\9047software\PSoC Creator\3.3\PSoC Creator\psoc\content\cycomponentlibrary\CyComponentLibrary.cylib\BLE_v2_0\Library\gccCyBLEStack_BLE_SOC_PERIPHERAL.a(BT_timer.o)
                0x0000fb9c                timer_alloc_entity

i.timer_allocated_entity
                0x0000fbb8       0x24
 i.timer_allocated_entity
                0x0000fbb8       0x24 C:\9047software\PSoC Creator\3.3\PSoC Creator\psoc\content\cycomponentlibrary\CyComponentLibrary.cylib\BLE_v2_0\Library\gccCyBLEStack_BLE_SOC_PERIPHERAL.a(BT_timer.o)
                0x0000fbb8                timer_allocated_entity

i.timer_bt_init
                0x0000fbdc        0x2
 i.timer_bt_init
                0x0000fbdc        0x2 C:\9047software\PSoC Creator\3.3\PSoC Creator\psoc\content\cycomponentlibrary\CyComponentLibrary.cylib\BLE_v2_0\Library\gccCyBLEStack_BLE_SOC_PERIPHERAL.a(BT_timer.o)
                0x0000fbdc                timer_bt_init

i.timer_bt_shutdown
                0x0000fbe0       0x38
 i.timer_bt_shutdown
                0x0000fbe0       0x38 C:\9047software\PSoC Creator\3.3\PSoC Creator\psoc\content\cycomponentlibrary\CyComponentLibrary.cylib\BLE_v2_0\Library\gccCyBLEStack_BLE_SOC_PERIPHERAL.a(BT_timer.o)
                0x0000fbe0                timer_bt_shutdown

i.timer_init    0x0000fc18       0x28
 i.timer_init   0x0000fc18       0x28 C:\9047software\PSoC Creator\3.3\PSoC Creator\psoc\content\cycomponentlibrary\CyComponentLibrary.cylib\BLE_v2_0\Library\gccCyBLEStack_BLE_SOC_PERIPHERAL.a(BT_timer.o)
                0x0000fc18                timer_init

i.BleStackFlashStorageInit
                0x0000fc40       0x74
 i.BleStackFlashStorageInit
                0x0000fc40       0x74 C:\9047software\PSoC Creator\3.3\PSoC Creator\psoc\content\cycomponentlibrary\CyComponentLibrary.cylib\BLE_v2_0\Library\gccCyBLEStack_BLE_SOC_PERIPHERAL.a(storage_pl.o)
                0x0000fc40                BleStackFlashStorageInit

i.BleStackWriteToFlashPending
                0x0000fcb4       0x24
 i.BleStackWriteToFlashPending
                0x0000fcb4       0x24 C:\9047software\PSoC Creator\3.3\PSoC Creator\psoc\content\cycomponentlibrary\CyComponentLibrary.cylib\BLE_v2_0\Library\gccCyBLEStack_BLE_SOC_PERIPHERAL.a(storage_pl.o)
                0x0000fcb4                BleStackWriteToFlashPending

i.BleStackWriteToFlashRam
                0x0000fcd8       0x70
 i.BleStackWriteToFlashRam
                0x0000fcd8       0x70 C:\9047software\PSoC Creator\3.3\PSoC Creator\psoc\content\cycomponentlibrary\CyComponentLibrary.cylib\BLE_v2_0\Library\gccCyBLEStack_BLE_SOC_PERIPHERAL.a(storage_pl.o)
                0x0000fcd8                BleStackWriteToFlashRam

i.storage_bt_init_pl
                0x0000fd48       0x24
 i.storage_bt_init_pl
                0x0000fd48       0x24 C:\9047software\PSoC Creator\3.3\PSoC Creator\psoc\content\cycomponentlibrary\CyComponentLibrary.cylib\BLE_v2_0\Library\gccCyBLEStack_BLE_SOC_PERIPHERAL.a(storage_pl.o)
                0x0000fd48                storage_bt_init_pl

i.storage_bt_shutdown_pl
                0x0000fd6c        0x8
 i.storage_bt_shutdown_pl
                0x0000fd6c        0x8 C:\9047software\PSoC Creator\3.3\PSoC Creator\psoc\content\cycomponentlibrary\CyComponentLibrary.cylib\BLE_v2_0\Library\gccCyBLEStack_BLE_SOC_PERIPHERAL.a(storage_pl.o)
                0x0000fd6c                storage_bt_shutdown_pl

i.storage_close_pl
                0x0000fd74        0x4
 i.storage_close_pl
                0x0000fd74        0x4 C:\9047software\PSoC Creator\3.3\PSoC Creator\psoc\content\cycomponentlibrary\CyComponentLibrary.cylib\BLE_v2_0\Library\gccCyBLEStack_BLE_SOC_PERIPHERAL.a(storage_pl.o)
                0x0000fd74                storage_close_pl

i.storage_open_pl
                0x0000fd78       0x1c
 i.storage_open_pl
                0x0000fd78       0x1c C:\9047software\PSoC Creator\3.3\PSoC Creator\psoc\content\cycomponentlibrary\CyComponentLibrary.cylib\BLE_v2_0\Library\gccCyBLEStack_BLE_SOC_PERIPHERAL.a(storage_pl.o)
                0x0000fd78                storage_open_pl

i.storage_read_pl
                0x0000fd94       0x28
 i.storage_read_pl
                0x0000fd94       0x28 C:\9047software\PSoC Creator\3.3\PSoC Creator\psoc\content\cycomponentlibrary\CyComponentLibrary.cylib\BLE_v2_0\Library\gccCyBLEStack_BLE_SOC_PERIPHERAL.a(storage_pl.o)
                0x0000fd94                storage_read_pl

i.storage_read_signature_pl
                0x0000fdbc       0x2c
 i.storage_read_signature_pl
                0x0000fdbc       0x2c C:\9047software\PSoC Creator\3.3\PSoC Creator\psoc\content\cycomponentlibrary\CyComponentLibrary.cylib\BLE_v2_0\Library\gccCyBLEStack_BLE_SOC_PERIPHERAL.a(storage_pl.o)
                0x0000fdbc                storage_read_signature_pl

i.storage_reset_storage_offset
                0x0000fde8       0x10
 i.storage_reset_storage_offset
                0x0000fde8       0x10 C:\9047software\PSoC Creator\3.3\PSoC Creator\psoc\content\cycomponentlibrary\CyComponentLibrary.cylib\BLE_v2_0\Library\gccCyBLEStack_BLE_SOC_PERIPHERAL.a(storage_pl.o)

i.storage_write_pl
                0x0000fdf8       0x24
 i.storage_write_pl
                0x0000fdf8       0x24 C:\9047software\PSoC Creator\3.3\PSoC Creator\psoc\content\cycomponentlibrary\CyComponentLibrary.cylib\BLE_v2_0\Library\gccCyBLEStack_BLE_SOC_PERIPHERAL.a(storage_pl.o)
                0x0000fdf8                storage_write_pl

i.storage_write_signature_pl
                0x0000fe1c       0x14
 i.storage_write_signature_pl
                0x0000fe1c       0x14 C:\9047software\PSoC Creator\3.3\PSoC Creator\psoc\content\cycomponentlibrary\CyComponentLibrary.cylib\BLE_v2_0\Library\gccCyBLEStack_BLE_SOC_PERIPHERAL.a(storage_pl.o)
                0x0000fe1c                storage_write_signature_pl

i.drbg_get_random_number
                0x0000fe30       0x2e
 i.drbg_get_random_number
                0x0000fe30       0x2e C:\9047software\PSoC Creator\3.3\PSoC Creator\psoc\content\cycomponentlibrary\CyComponentLibrary.cylib\BLE_v2_0\Library\gccCyBLEStack_BLE_SOC_PERIPHERAL.a(drbg.o)
                0x0000fe30                drbg_get_random_number

i.generate_drbg
                0x0000fe60      0x100
 i.generate_drbg
                0x0000fe60      0x100 C:\9047software\PSoC Creator\3.3\PSoC Creator\psoc\content\cycomponentlibrary\CyComponentLibrary.cylib\BLE_v2_0\Library\gccCyBLEStack_BLE_SOC_PERIPHERAL.a(drbg.o)
                0x0000fe60                generate_drbg

i.sha1          0x0000ff60      0x318
 i.sha1         0x0000ff60      0x318 C:\9047software\PSoC Creator\3.3\PSoC Creator\psoc\content\cycomponentlibrary\CyComponentLibrary.cylib\BLE_v2_0\Library\gccCyBLEStack_BLE_SOC_PERIPHERAL.a(drbg.o)
                0x0000ff60                sha1

i.convert_to_lsb
                0x00010278       0x1c
 i.convert_to_lsb
                0x00010278       0x1c C:\9047software\PSoC Creator\3.3\PSoC Creator\psoc\content\cycomponentlibrary\CyComponentLibrary.cylib\BLE_v2_0\Library\gccCyBLEStack_BLE_SOC_PERIPHERAL.a(bt_fw_os_al.o)
                0x00010278                convert_to_lsb

i.le_allocate_command_buffer
                0x00010294       0x20
 i.le_allocate_command_buffer
                0x00010294       0x20 C:\9047software\PSoC Creator\3.3\PSoC Creator\psoc\content\cycomponentlibrary\CyComponentLibrary.cylib\BLE_v2_0\Library\gccCyBLEStack_BLE_SOC_PERIPHERAL.a(bt_fw_os_al.o)
                0x00010294                le_allocate_command_buffer

i.le_allocate_event_buffer
                0x000102b4       0x30
 i.le_allocate_event_buffer
                0x000102b4       0x30 C:\9047software\PSoC Creator\3.3\PSoC Creator\psoc\content\cycomponentlibrary\CyComponentLibrary.cylib\BLE_v2_0\Library\gccCyBLEStack_BLE_SOC_PERIPHERAL.a(bt_fw_os_al.o)
                0x000102b4                le_allocate_event_buffer

i.le_allocate_rx_data_buffer
                0x000102e4       0x20
 i.le_allocate_rx_data_buffer
                0x000102e4       0x20 C:\9047software\PSoC Creator\3.3\PSoC Creator\psoc\content\cycomponentlibrary\CyComponentLibrary.cylib\BLE_v2_0\Library\gccCyBLEStack_BLE_SOC_PERIPHERAL.a(bt_fw_os_al.o)
                0x000102e4                le_allocate_rx_data_buffer

i.le_allocate_rx_pdu_buffer
                0x00010304       0x20
 i.le_allocate_rx_pdu_buffer
                0x00010304       0x20 C:\9047software\PSoC Creator\3.3\PSoC Creator\psoc\content\cycomponentlibrary\CyComponentLibrary.cylib\BLE_v2_0\Library\gccCyBLEStack_BLE_SOC_PERIPHERAL.a(bt_fw_os_al.o)
                0x00010304                le_allocate_rx_pdu_buffer

i.le_allocate_tx_data_buffer
                0x00010324       0x20
 i.le_allocate_tx_data_buffer
                0x00010324       0x20 C:\9047software\PSoC Creator\3.3\PSoC Creator\psoc\content\cycomponentlibrary\CyComponentLibrary.cylib\BLE_v2_0\Library\gccCyBLEStack_BLE_SOC_PERIPHERAL.a(bt_fw_os_al.o)
                0x00010324                le_allocate_tx_data_buffer

i.le_allocate_tx_pdu_buffer
                0x00010344       0x20
 i.le_allocate_tx_pdu_buffer
                0x00010344       0x20 C:\9047software\PSoC Creator\3.3\PSoC Creator\psoc\content\cycomponentlibrary\CyComponentLibrary.cylib\BLE_v2_0\Library\gccCyBLEStack_BLE_SOC_PERIPHERAL.a(bt_fw_os_al.o)
                0x00010344                le_allocate_tx_pdu_buffer

i.le_allocate_txn_buffer
                0x00010364       0x20
 i.le_allocate_txn_buffer
                0x00010364       0x20 C:\9047software\PSoC Creator\3.3\PSoC Creator\psoc\content\cycomponentlibrary\CyComponentLibrary.cylib\BLE_v2_0\Library\gccCyBLEStack_BLE_SOC_PERIPHERAL.a(bt_fw_os_al.o)
                0x00010364                le_allocate_txn_buffer

i.le_create_tasks
                0x00010384        0xe
 i.le_create_tasks
                0x00010384        0xe C:\9047software\PSoC Creator\3.3\PSoC Creator\psoc\content\cycomponentlibrary\CyComponentLibrary.cylib\BLE_v2_0\Library\gccCyBLEStack_BLE_SOC_PERIPHERAL.a(bt_fw_os_al.o)
                0x00010384                le_create_tasks

i.le_free_command_buffer
                0x00010394       0x14
 i.le_free_command_buffer
                0x00010394       0x14 C:\9047software\PSoC Creator\3.3\PSoC Creator\psoc\content\cycomponentlibrary\CyComponentLibrary.cylib\BLE_v2_0\Library\gccCyBLEStack_BLE_SOC_PERIPHERAL.a(bt_fw_os_al.o)
                0x00010394                le_free_command_buffer

i.le_free_event_buffer
                0x000103a8       0x28
 i.le_free_event_buffer
                0x000103a8       0x28 C:\9047software\PSoC Creator\3.3\PSoC Creator\psoc\content\cycomponentlibrary\CyComponentLibrary.cylib\BLE_v2_0\Library\gccCyBLEStack_BLE_SOC_PERIPHERAL.a(bt_fw_os_al.o)
                0x000103a8                le_free_event_buffer

i.le_free_rx_data_buffer
                0x000103d0       0x14
 i.le_free_rx_data_buffer
                0x000103d0       0x14 C:\9047software\PSoC Creator\3.3\PSoC Creator\psoc\content\cycomponentlibrary\CyComponentLibrary.cylib\BLE_v2_0\Library\gccCyBLEStack_BLE_SOC_PERIPHERAL.a(bt_fw_os_al.o)
                0x000103d0                le_free_rx_data_buffer

i.le_free_rx_pdu_buffer
                0x000103e4       0x14
 i.le_free_rx_pdu_buffer
                0x000103e4       0x14 C:\9047software\PSoC Creator\3.3\PSoC Creator\psoc\content\cycomponentlibrary\CyComponentLibrary.cylib\BLE_v2_0\Library\gccCyBLEStack_BLE_SOC_PERIPHERAL.a(bt_fw_os_al.o)
                0x000103e4                le_free_rx_pdu_buffer

i.le_free_tx_data_buffer
                0x000103f8       0x14
 i.le_free_tx_data_buffer
                0x000103f8       0x14 C:\9047software\PSoC Creator\3.3\PSoC Creator\psoc\content\cycomponentlibrary\CyComponentLibrary.cylib\BLE_v2_0\Library\gccCyBLEStack_BLE_SOC_PERIPHERAL.a(bt_fw_os_al.o)
                0x000103f8                le_free_tx_data_buffer

i.le_free_tx_pdu_buffer
                0x0001040c       0x14
 i.le_free_tx_pdu_buffer
                0x0001040c       0x14 C:\9047software\PSoC Creator\3.3\PSoC Creator\psoc\content\cycomponentlibrary\CyComponentLibrary.cylib\BLE_v2_0\Library\gccCyBLEStack_BLE_SOC_PERIPHERAL.a(bt_fw_os_al.o)
                0x0001040c                le_free_tx_pdu_buffer

i.le_free_txn_buffer
                0x00010420       0x14
 i.le_free_txn_buffer
                0x00010420       0x14 C:\9047software\PSoC Creator\3.3\PSoC Creator\psoc\content\cycomponentlibrary\CyComponentLibrary.cylib\BLE_v2_0\Library\gccCyBLEStack_BLE_SOC_PERIPHERAL.a(bt_fw_os_al.o)
                0x00010420                le_free_txn_buffer

i.le_initialize_buffers
                0x00010434       0x88
 i.le_initialize_buffers
                0x00010434       0x88 C:\9047software\PSoC Creator\3.3\PSoC Creator\psoc\content\cycomponentlibrary\CyComponentLibrary.cylib\BLE_v2_0\Library\gccCyBLEStack_BLE_SOC_PERIPHERAL.a(bt_fw_os_al.o)
                0x00010434                le_initialize_buffers

i.le_isr_send_signal_to_task
                0x000104bc        0xc
 i.le_isr_send_signal_to_task
                0x000104bc        0xc C:\9047software\PSoC Creator\3.3\PSoC Creator\psoc\content\cycomponentlibrary\CyComponentLibrary.cylib\BLE_v2_0\Library\gccCyBLEStack_BLE_SOC_PERIPHERAL.a(bt_fw_os_al.o)
                0x000104bc                le_isr_send_signal_to_task

i.le_reset_buffers
                0x000104c8       0x3c
 i.le_reset_buffers
                0x000104c8       0x3c C:\9047software\PSoC Creator\3.3\PSoC Creator\psoc\content\cycomponentlibrary\CyComponentLibrary.cylib\BLE_v2_0\Library\gccCyBLEStack_BLE_SOC_PERIPHERAL.a(bt_fw_os_al.o)
                0x000104c8                le_reset_buffers

i.le_send_signal_to_task
                0x00010504        0xc
 i.le_send_signal_to_task
                0x00010504        0xc C:\9047software\PSoC Creator\3.3\PSoC Creator\psoc\content\cycomponentlibrary\CyComponentLibrary.cylib\BLE_v2_0\Library\gccCyBLEStack_BLE_SOC_PERIPHERAL.a(bt_fw_os_al.o)
                0x00010504                le_send_signal_to_task

i.lec_generate_br_edr_command_complete_event
                0x00010510      0x15c
 i.lec_generate_br_edr_command_complete_event
                0x00010510      0x15c C:\9047software\PSoC Creator\3.3\PSoC Creator\psoc\content\cycomponentlibrary\CyComponentLibrary.cylib\BLE_v2_0\Library\gccCyBLEStack_BLE_SOC_PERIPHERAL.a(lec_hci_br_edr_commands.o)
                0x00010510                lec_generate_br_edr_command_complete_event

i.lec_get_expected_br_edr_cmd_param_length
                0x0001066c       0x94
 i.lec_get_expected_br_edr_cmd_param_length
                0x0001066c       0x94 C:\9047software\PSoC Creator\3.3\PSoC Creator\psoc\content\cycomponentlibrary\CyComponentLibrary.cylib\BLE_v2_0\Library\gccCyBLEStack_BLE_SOC_PERIPHERAL.a(lec_hci_br_edr_commands.o)
                0x0001066c                lec_get_expected_br_edr_cmd_param_length

i.lec_hci_convert_br_edr_command_params
                0x00010700       0xa4
 i.lec_hci_convert_br_edr_command_params
                0x00010700       0xa4 C:\9047software\PSoC Creator\3.3\PSoC Creator\psoc\content\cycomponentlibrary\CyComponentLibrary.cylib\BLE_v2_0\Library\gccCyBLEStack_BLE_SOC_PERIPHERAL.a(lec_hci_br_edr_commands.o)
                0x00010700                lec_hci_convert_br_edr_command_params

i.lec_hci_handle_br_edr_command
                0x000107a4       0xe0
 i.lec_hci_handle_br_edr_command
                0x000107a4       0xe0 C:\9047software\PSoC Creator\3.3\PSoC Creator\psoc\content\cycomponentlibrary\CyComponentLibrary.cylib\BLE_v2_0\Library\gccCyBLEStack_BLE_SOC_PERIPHERAL.a(lec_hci_br_edr_commands.o)
                0x000107a4                lec_hci_handle_br_edr_command

i.lec_hci_handle_br_edr_set_event_mask_command
                0x00010884       0x50
 i.lec_hci_handle_br_edr_set_event_mask_command
                0x00010884       0x50 C:\9047software\PSoC Creator\3.3\PSoC Creator\psoc\content\cycomponentlibrary\CyComponentLibrary.cylib\BLE_v2_0\Library\gccCyBLEStack_BLE_SOC_PERIPHERAL.a(lec_hci_br_edr_commands.o)
                0x00010884                lec_hci_handle_br_edr_set_event_mask_command

i.lec_hci_handle_br_edr_set_event_mask_page2_command
                0x000108d4       0x28
 i.lec_hci_handle_br_edr_set_event_mask_page2_command
                0x000108d4       0x28 C:\9047software\PSoC Creator\3.3\PSoC Creator\psoc\content\cycomponentlibrary\CyComponentLibrary.cylib\BLE_v2_0\Library\gccCyBLEStack_BLE_SOC_PERIPHERAL.a(lec_hci_br_edr_commands.o)
                0x000108d4                lec_hci_handle_br_edr_set_event_mask_page2_command

i.lec_hci_handle_disconnect
                0x000108fc       0x18
 i.lec_hci_handle_disconnect
                0x000108fc       0x18 C:\9047software\PSoC Creator\3.3\PSoC Creator\psoc\content\cycomponentlibrary\CyComponentLibrary.cylib\BLE_v2_0\Library\gccCyBLEStack_BLE_SOC_PERIPHERAL.a(lec_hci_br_edr_commands.o)
                0x000108fc                lec_hci_handle_disconnect

i.lec_hci_handle_read_authenticated_payload_timeout_command
                0x00010914       0x1e
 i.lec_hci_handle_read_authenticated_payload_timeout_command
                0x00010914       0x1e C:\9047software\PSoC Creator\3.3\PSoC Creator\psoc\content\cycomponentlibrary\CyComponentLibrary.cylib\BLE_v2_0\Library\gccCyBLEStack_BLE_SOC_PERIPHERAL.a(lec_hci_br_edr_commands.o)
                0x00010914                lec_hci_handle_read_authenticated_payload_timeout_command

i.lec_hci_handle_read_rssi_command
                0x00010932        0x8
 i.lec_hci_handle_read_rssi_command
                0x00010932        0x8 C:\9047software\PSoC Creator\3.3\PSoC Creator\psoc\content\cycomponentlibrary\CyComponentLibrary.cylib\BLE_v2_0\Library\gccCyBLEStack_BLE_SOC_PERIPHERAL.a(lec_hci_br_edr_commands.o)
                0x00010932                lec_hci_handle_read_rssi_command

i.lec_hci_handle_read_transmit_power_level_command
                0x0001093a        0x8
 i.lec_hci_handle_read_transmit_power_level_command
                0x0001093a        0x8 C:\9047software\PSoC Creator\3.3\PSoC Creator\psoc\content\cycomponentlibrary\CyComponentLibrary.cylib\BLE_v2_0\Library\gccCyBLEStack_BLE_SOC_PERIPHERAL.a(lec_hci_br_edr_commands.o)
                0x0001093a                lec_hci_handle_read_transmit_power_level_command

i.lec_hci_handle_remote_version_cmd
                0x00010942        0x8
 i.lec_hci_handle_remote_version_cmd
                0x00010942        0x8 C:\9047software\PSoC Creator\3.3\PSoC Creator\psoc\content\cycomponentlibrary\CyComponentLibrary.cylib\BLE_v2_0\Library\gccCyBLEStack_BLE_SOC_PERIPHERAL.a(lec_hci_br_edr_commands.o)
                0x00010942                lec_hci_handle_remote_version_cmd

i.lec_hci_handle_reset_command
                0x0001094a       0x18
 i.lec_hci_handle_reset_command
                0x0001094a       0x18 C:\9047software\PSoC Creator\3.3\PSoC Creator\psoc\content\cycomponentlibrary\CyComponentLibrary.cylib\BLE_v2_0\Library\gccCyBLEStack_BLE_SOC_PERIPHERAL.a(lec_hci_br_edr_commands.o)
                0x0001094a                lec_hci_handle_reset_command

i.lec_hci_handle_write_authenticated_payload_timeout_command
                0x00010962       0x1e
 i.lec_hci_handle_write_authenticated_payload_timeout_command
                0x00010962       0x1e C:\9047software\PSoC Creator\3.3\PSoC Creator\psoc\content\cycomponentlibrary\CyComponentLibrary.cylib\BLE_v2_0\Library\gccCyBLEStack_BLE_SOC_PERIPHERAL.a(lec_hci_br_edr_commands.o)
                0x00010962                lec_hci_handle_write_authenticated_payload_timeout_command

i.lec_hci_handle_set_adv_data_command
                0x00010980        0x8
 i.lec_hci_handle_set_adv_data_command
                0x00010980        0x8 C:\9047software\PSoC Creator\3.3\PSoC Creator\psoc\content\cycomponentlibrary\CyComponentLibrary.cylib\BLE_v2_0\Library\gccCyBLEStack_BLE_SOC_PERIPHERAL.a(lec_hci_le_adv_commands.o)
                0x00010980                lec_hci_handle_set_adv_data_command

i.lec_hci_handle_set_adv_enable_command
                0x00010988        0x8
 i.lec_hci_handle_set_adv_enable_command
                0x00010988        0x8 C:\9047software\PSoC Creator\3.3\PSoC Creator\psoc\content\cycomponentlibrary\CyComponentLibrary.cylib\BLE_v2_0\Library\gccCyBLEStack_BLE_SOC_PERIPHERAL.a(lec_hci_le_adv_commands.o)
                0x00010988                lec_hci_handle_set_adv_enable_command

i.lec_hci_handle_set_adv_param_command
                0x00010990        0x8
 i.lec_hci_handle_set_adv_param_command
                0x00010990        0x8 C:\9047software\PSoC Creator\3.3\PSoC Creator\psoc\content\cycomponentlibrary\CyComponentLibrary.cylib\BLE_v2_0\Library\gccCyBLEStack_BLE_SOC_PERIPHERAL.a(lec_hci_le_adv_commands.o)
                0x00010990                lec_hci_handle_set_adv_param_command

i.lec_hci_handle_set_scan_response_command
                0x00010998        0x8
 i.lec_hci_handle_set_scan_response_command
                0x00010998        0x8 C:\9047software\PSoC Creator\3.3\PSoC Creator\psoc\content\cycomponentlibrary\CyComponentLibrary.cylib\BLE_v2_0\Library\gccCyBLEStack_BLE_SOC_PERIPHERAL.a(lec_hci_le_adv_commands.o)
                0x00010998                lec_hci_handle_set_scan_response_command

i.bluetooth_off_lower_pl
                0x000109a0        0x2
 i.bluetooth_off_lower_pl
                0x000109a0        0x2 C:\9047software\PSoC Creator\3.3\PSoC Creator\psoc\content\cycomponentlibrary\CyComponentLibrary.cylib\BLE_v2_0\Library\gccCyBLEStack_BLE_SOC_PERIPHERAL.a(BT_common_pl.o)
                0x000109a0                bluetooth_off_lower_pl

i.bluetooth_off_upper_pl
                0x000109a2        0xc
 i.bluetooth_off_upper_pl
                0x000109a2        0xc C:\9047software\PSoC Creator\3.3\PSoC Creator\psoc\content\cycomponentlibrary\CyComponentLibrary.cylib\BLE_v2_0\Library\gccCyBLEStack_BLE_SOC_PERIPHERAL.a(BT_common_pl.o)
                0x000109a2                bluetooth_off_upper_pl

i.bluetooth_on_lower_pl
                0x000109ae        0x2
 i.bluetooth_on_lower_pl
                0x000109ae        0x2 C:\9047software\PSoC Creator\3.3\PSoC Creator\psoc\content\cycomponentlibrary\CyComponentLibrary.cylib\BLE_v2_0\Library\gccCyBLEStack_BLE_SOC_PERIPHERAL.a(BT_common_pl.o)
                0x000109ae                bluetooth_on_lower_pl

i.bluetooth_on_upper_pl
                0x000109b0        0xc
 i.bluetooth_on_upper_pl
                0x000109b0        0xc C:\9047software\PSoC Creator\3.3\PSoC Creator\psoc\content\cycomponentlibrary\CyComponentLibrary.cylib\BLE_v2_0\Library\gccCyBLEStack_BLE_SOC_PERIPHERAL.a(BT_common_pl.o)
                0x000109b0                bluetooth_on_upper_pl

i.ethermind_init_lower_pl
                0x000109bc        0x2
 i.ethermind_init_lower_pl
                0x000109bc        0x2 C:\9047software\PSoC Creator\3.3\PSoC Creator\psoc\content\cycomponentlibrary\CyComponentLibrary.cylib\BLE_v2_0\Library\gccCyBLEStack_BLE_SOC_PERIPHERAL.a(BT_common_pl.o)
                0x000109bc                ethermind_init_lower_pl

i.ethermind_init_upper_pl
                0x000109be        0xc
 i.ethermind_init_upper_pl
                0x000109be        0xc C:\9047software\PSoC Creator\3.3\PSoC Creator\psoc\content\cycomponentlibrary\CyComponentLibrary.cylib\BLE_v2_0\Library\gccCyBLEStack_BLE_SOC_PERIPHERAL.a(BT_common_pl.o)
                0x000109be                ethermind_init_upper_pl

i.device_queue_disconnect_on_full_pl
                0x000109ca        0x2
 i.device_queue_disconnect_on_full_pl
                0x000109ca        0x2 C:\9047software\PSoC Creator\3.3\PSoC Creator\psoc\content\cycomponentlibrary\CyComponentLibrary.cylib\BLE_v2_0\Library\gccCyBLEStack_BLE_SOC_PERIPHERAL.a(device_queue_pl.o)
                0x000109ca                device_queue_disconnect_on_full_pl

i.device_queue_free_pl
                0x000109cc        0x2
 i.device_queue_free_pl
                0x000109cc        0x2 C:\9047software\PSoC Creator\3.3\PSoC Creator\psoc\content\cycomponentlibrary\CyComponentLibrary.cylib\BLE_v2_0\Library\gccCyBLEStack_BLE_SOC_PERIPHERAL.a(device_queue_pl.o)
                0x000109cc                device_queue_free_pl

i.device_queue_full_pl
                0x000109ce        0x2
 i.device_queue_full_pl
                0x000109ce        0x2 C:\9047software\PSoC Creator\3.3\PSoC Creator\psoc\content\cycomponentlibrary\CyComponentLibrary.cylib\BLE_v2_0\Library\gccCyBLEStack_BLE_SOC_PERIPHERAL.a(device_queue_pl.o)
                0x000109ce                device_queue_full_pl

i.device_queue_pl_init
                0x000109d0        0x2
 i.device_queue_pl_init
                0x000109d0        0x2 C:\9047software\PSoC Creator\3.3\PSoC Creator\psoc\content\cycomponentlibrary\CyComponentLibrary.cylib\BLE_v2_0\Library\gccCyBLEStack_BLE_SOC_PERIPHERAL.a(device_queue_pl.o)
                0x000109d0                device_queue_pl_init

i.device_queue_pl_shutdown
                0x000109d2        0x2
 i.device_queue_pl_shutdown
                0x000109d2        0x2 C:\9047software\PSoC Creator\3.3\PSoC Creator\psoc\content\cycomponentlibrary\CyComponentLibrary.cylib\BLE_v2_0\Library\gccCyBLEStack_BLE_SOC_PERIPHERAL.a(device_queue_pl.o)
                0x000109d2                device_queue_pl_shutdown

i.BT_smp_get_csrk_key_info_pl
                0x000109d4       0x10
 i.BT_smp_get_csrk_key_info_pl
                0x000109d4       0x10 C:\9047software\PSoC Creator\3.3\PSoC Creator\psoc\content\cycomponentlibrary\CyComponentLibrary.cylib\BLE_v2_0\Library\gccCyBLEStack_BLE_SOC_PERIPHERAL.a(smp_pl.o)
                0x000109d4                BT_smp_get_csrk_key_info_pl

i.BT_smp_get_key_exchange_info_pl
                0x000109e4        0xc
 i.BT_smp_get_key_exchange_info_pl
                0x000109e4        0xc C:\9047software\PSoC Creator\3.3\PSoC Creator\psoc\content\cycomponentlibrary\CyComponentLibrary.cylib\BLE_v2_0\Library\gccCyBLEStack_BLE_SOC_PERIPHERAL.a(smp_pl.o)
                0x000109e4                BT_smp_get_key_exchange_info_pl

i.BT_smp_get_local_capability_pl
                0x000109f0       0x18
 i.BT_smp_get_local_capability_pl
                0x000109f0       0x18 C:\9047software\PSoC Creator\3.3\PSoC Creator\psoc\content\cycomponentlibrary\CyComponentLibrary.cylib\BLE_v2_0\Library\gccCyBLEStack_BLE_SOC_PERIPHERAL.a(smp_pl.o)
                0x000109f0                BT_smp_get_local_capability_pl

i.BT_smp_get_long_term_key_pl
                0x00010a08       0x14
 i.BT_smp_get_long_term_key_pl
                0x00010a08       0x14 C:\9047software\PSoC Creator\3.3\PSoC Creator\psoc\content\cycomponentlibrary\CyComponentLibrary.cylib\BLE_v2_0\Library\gccCyBLEStack_BLE_SOC_PERIPHERAL.a(smp_pl.o)
                0x00010a08                BT_smp_get_long_term_key_pl

i.BT_smp_get_max_encryption_key_size_pl
                0x00010a1c        0xc
 i.BT_smp_get_max_encryption_key_size_pl
                0x00010a1c        0xc C:\9047software\PSoC Creator\3.3\PSoC Creator\psoc\content\cycomponentlibrary\CyComponentLibrary.cylib\BLE_v2_0\Library\gccCyBLEStack_BLE_SOC_PERIPHERAL.a(smp_pl.o)
                0x00010a1c                BT_smp_get_max_encryption_key_size_pl

i.BT_smp_set_bd_address_pl
                0x00010a28       0x1c
 i.BT_smp_set_bd_address_pl
                0x00010a28       0x1c C:\9047software\PSoC Creator\3.3\PSoC Creator\psoc\content\cycomponentlibrary\CyComponentLibrary.cylib\BLE_v2_0\Library\gccCyBLEStack_BLE_SOC_PERIPHERAL.a(smp_pl.o)
                0x00010a28                BT_smp_set_bd_address_pl

i.BT_smp_set_max_encryption_key_size_pl
                0x00010a44        0xc
 i.BT_smp_set_max_encryption_key_size_pl
                0x00010a44        0xc C:\9047software\PSoC Creator\3.3\PSoC Creator\psoc\content\cycomponentlibrary\CyComponentLibrary.cylib\BLE_v2_0\Library\gccCyBLEStack_BLE_SOC_PERIPHERAL.a(smp_pl.o)
                0x00010a44                BT_smp_set_max_encryption_key_size_pl

i.smp_check_pairing_security_pl
                0x00010a50       0x14
 i.smp_check_pairing_security_pl
                0x00010a50       0x14 C:\9047software\PSoC Creator\3.3\PSoC Creator\psoc\content\cycomponentlibrary\CyComponentLibrary.cylib\BLE_v2_0\Library\gccCyBLEStack_BLE_SOC_PERIPHERAL.a(smp_pl.o)
                0x00010a50                smp_check_pairing_security_pl

i.smp_get_oob_tk_pl
                0x00010a64       0x58
 i.smp_get_oob_tk_pl
                0x00010a64       0x58 C:\9047software\PSoC Creator\3.3\PSoC Creator\psoc\content\cycomponentlibrary\CyComponentLibrary.cylib\BLE_v2_0\Library\gccCyBLEStack_BLE_SOC_PERIPHERAL.a(smp_pl.o)
                0x00010a64                smp_get_oob_tk_pl

i.smp_get_peer_oob_availability_pl
                0x00010abc       0x3c
 i.smp_get_peer_oob_availability_pl
                0x00010abc       0x3c C:\9047software\PSoC Creator\3.3\PSoC Creator\psoc\content\cycomponentlibrary\CyComponentLibrary.cylib\BLE_v2_0\Library\gccCyBLEStack_BLE_SOC_PERIPHERAL.a(smp_pl.o)
                0x00010abc                smp_get_peer_oob_availability_pl

i.smp_init_pl   0x00010af8       0x14
 i.smp_init_pl  0x00010af8       0x14 C:\9047software\PSoC Creator\3.3\PSoC Creator\psoc\content\cycomponentlibrary\CyComponentLibrary.cylib\BLE_v2_0\Library\gccCyBLEStack_BLE_SOC_PERIPHERAL.a(smp_pl.o)
                0x00010af8                smp_init_pl

i.smp_purge_device_list_pl
                0x00010b0c       0x64
 i.smp_purge_device_list_pl
                0x00010b0c       0x64 C:\9047software\PSoC Creator\3.3\PSoC Creator\psoc\content\cycomponentlibrary\CyComponentLibrary.cylib\BLE_v2_0\Library\gccCyBLEStack_BLE_SOC_PERIPHERAL.a(smp_pl.o)
                0x00010b0c                smp_purge_device_list_pl

i.smp_resolve_connection_address_pl
                0x00010b70        0x8
 i.smp_resolve_connection_address_pl
                0x00010b70        0x8 C:\9047software\PSoC Creator\3.3\PSoC Creator\psoc\content\cycomponentlibrary\CyComponentLibrary.cylib\BLE_v2_0\Library\gccCyBLEStack_BLE_SOC_PERIPHERAL.a(smp_pl.o)
                0x00010b70                smp_resolve_connection_address_pl

i.smp_update_device_attr_pl
                0x00010b78       0xa4
 i.smp_update_device_attr_pl
                0x00010b78       0xa4 C:\9047software\PSoC Creator\3.3\PSoC Creator\psoc\content\cycomponentlibrary\CyComponentLibrary.cylib\BLE_v2_0\Library\gccCyBLEStack_BLE_SOC_PERIPHERAL.a(smp_pl.o)
                0x00010b78                smp_update_device_attr_pl

i.l2cap_get_payload_buffer
                0x00010c1c       0x1c
 i.l2cap_get_payload_buffer
                0x00010c1c       0x1c C:\9047software\PSoC Creator\3.3\PSoC Creator\psoc\content\cycomponentlibrary\CyComponentLibrary.cylib\BLE_v2_0\Library\gccCyBLEStack_BLE_SOC_PERIPHERAL.a(l2cap_data_recv.o)
                0x00010c1c                l2cap_get_payload_buffer

i.l2cap_lp_data_read
                0x00010c38      0x29c
 i.l2cap_lp_data_read
                0x00010c38      0x29c C:\9047software\PSoC Creator\3.3\PSoC Creator\psoc\content\cycomponentlibrary\CyComponentLibrary.cylib\BLE_v2_0\Library\gccCyBLEStack_BLE_SOC_PERIPHERAL.a(l2cap_data_recv.o)
                0x00010c38                l2cap_lp_data_read

i.l2cap_mtu_check
                0x00010ed4       0x94
 i.l2cap_mtu_check
                0x00010ed4       0x94 C:\9047software\PSoC Creator\3.3\PSoC Creator\psoc\content\cycomponentlibrary\CyComponentLibrary.cylib\BLE_v2_0\Library\gccCyBLEStack_BLE_SOC_PERIPHERAL.a(l2cap_data_recv.o)
                0x00010ed4                l2cap_mtu_check

i.l2cap_reset_recombination_variables
                0x00010f68       0x28
 i.l2cap_reset_recombination_variables
                0x00010f68       0x28 C:\9047software\PSoC Creator\3.3\PSoC Creator\psoc\content\cycomponentlibrary\CyComponentLibrary.cylib\BLE_v2_0\Library\gccCyBLEStack_BLE_SOC_PERIPHERAL.a(l2cap_data_recv.o)
                0x00010f68                l2cap_reset_recombination_variables

i.CyBle_GattDbCheckPermission
                0x00010f90       0xec
 i.CyBle_GattDbCheckPermission
                0x00010f90       0xec C:\9047software\PSoC Creator\3.3\PSoC Creator\psoc\content\cycomponentlibrary\CyComponentLibrary.cylib\BLE_v2_0\Library\gccCyBLEStack_BLE_SOC_PERIPHERAL.a(gattDbInternal.o)
                0x00010f90                CyBle_GattDbCheckPermission

i.CyBle_GattDbCompareCharValue
                0x0001107c       0x44
 i.CyBle_GattDbCompareCharValue
                0x0001107c       0x44 C:\9047software\PSoC Creator\3.3\PSoC Creator\psoc\content\cycomponentlibrary\CyComponentLibrary.cylib\BLE_v2_0\Library\gccCyBLEStack_BLE_SOC_PERIPHERAL.a(gattDbInternal.o)
                0x0001107c                CyBle_GattDbCompareCharValue

i.CyBle_GattDbFetchAttrType
                0x000110c0      0x108
 i.CyBle_GattDbFetchAttrType
                0x000110c0      0x108 C:\9047software\PSoC Creator\3.3\PSoC Creator\psoc\content\cycomponentlibrary\CyComponentLibrary.cylib\BLE_v2_0\Library\gccCyBLEStack_BLE_SOC_PERIPHERAL.a(gattDbInternal.o)
                0x000110c0                CyBle_GattDbFetchAttrType

i.CyBle_GattDbFetchAttrValue
                0x000111c8       0xbc
 i.CyBle_GattDbFetchAttrValue
                0x000111c8       0xbc C:\9047software\PSoC Creator\3.3\PSoC Creator\psoc\content\cycomponentlibrary\CyComponentLibrary.cylib\BLE_v2_0\Library\gccCyBLEStack_BLE_SOC_PERIPHERAL.a(gattDbInternal.o)
                0x000111c8                CyBle_GattDbFetchAttrValue

i.CyBle_GattDbFindCharHandle
                0x00011284       0x90
 i.CyBle_GattDbFindCharHandle
                0x00011284       0x90 C:\9047software\PSoC Creator\3.3\PSoC Creator\psoc\content\cycomponentlibrary\CyComponentLibrary.cylib\BLE_v2_0\Library\gccCyBLEStack_BLE_SOC_PERIPHERAL.a(gattDbInternal.o)
                0x00011284                CyBle_GattDbFindCharHandle

i.CyBle_GattDbFindLastGrpEntryInService
                0x00011314       0x5c
 i.CyBle_GattDbFindLastGrpEntryInService
                0x00011314       0x5c C:\9047software\PSoC Creator\3.3\PSoC Creator\psoc\content\cycomponentlibrary\CyComponentLibrary.cylib\BLE_v2_0\Library\gccCyBLEStack_BLE_SOC_PERIPHERAL.a(gattDbInternal.o)
                0x00011314                CyBle_GattDbFindLastGrpEntryInService

i.CyBle_GattDbFindNearestServiceHandle
                0x00011370       0x50
 i.CyBle_GattDbFindNearestServiceHandle
                0x00011370       0x50 C:\9047software\PSoC Creator\3.3\PSoC Creator\psoc\content\cycomponentlibrary\CyComponentLibrary.cylib\BLE_v2_0\Library\gccCyBLEStack_BLE_SOC_PERIPHERAL.a(gattDbInternal.o)
                0x00011370                CyBle_GattDbFindNearestServiceHandle

i.CyBle_GattDbIsCharHandleValid
                0x000113c0       0x30
 i.CyBle_GattDbIsCharHandleValid
                0x000113c0       0x30 C:\9047software\PSoC Creator\3.3\PSoC Creator\psoc\content\cycomponentlibrary\CyComponentLibrary.cylib\BLE_v2_0\Library\gccCyBLEStack_BLE_SOC_PERIPHERAL.a(gattDbInternal.o)
                0x000113c0                CyBle_GattDbIsCharHandleValid

i.CyBle_GattDbPackAttrUuidValue
                0x000113f0       0x98
 i.CyBle_GattDbPackAttrUuidValue
                0x000113f0       0x98 C:\9047software\PSoC Creator\3.3\PSoC Creator\psoc\content\cycomponentlibrary\CyComponentLibrary.cylib\BLE_v2_0\Library\gccCyBLEStack_BLE_SOC_PERIPHERAL.a(gattDbInternal.o)

i.CyBle_GattDbPackSerAttrUuidValue
                0x00011488       0xdc
 i.CyBle_GattDbPackSerAttrUuidValue
                0x00011488       0xdc C:\9047software\PSoC Creator\3.3\PSoC Creator\psoc\content\cycomponentlibrary\CyComponentLibrary.cylib\BLE_v2_0\Library\gccCyBLEStack_BLE_SOC_PERIPHERAL.a(gattDbInternal.o)

i.CyBle_IsAttrEnabled
                0x00011564       0x84
 i.CyBle_IsAttrEnabled
                0x00011564       0x84 C:\9047software\PSoC Creator\3.3\PSoC Creator\psoc\content\cycomponentlibrary\CyComponentLibrary.cylib\BLE_v2_0\Library\gccCyBLEStack_BLE_SOC_PERIPHERAL.a(gattDbInternal.o)
                0x00011564                CyBle_IsAttrEnabled

i.hci_command_tx_bh
                0x000115e8      0x174
 i.hci_command_tx_bh
                0x000115e8      0x174 C:\9047software\PSoC Creator\3.3\PSoC Creator\psoc\content\cycomponentlibrary\CyComponentLibrary.cylib\BLE_v2_0\Library\gccCyBLEStack_BLE_SOC_PERIPHERAL.a(hci_command_queue.o)
                0x000115e8                hci_command_tx_bh

i.hci_common_api_bh
                0x0001175c       0x70
 i.hci_common_api_bh
                0x0001175c       0x70 C:\9047software\PSoC Creator\3.3\PSoC Creator\psoc\content\cycomponentlibrary\CyComponentLibrary.cylib\BLE_v2_0\Library\gccCyBLEStack_BLE_SOC_PERIPHERAL.a(hci_command_queue.o)
                0x0001175c                hci_common_api_bh

i.hci_trigger_command_tx
                0x000117cc       0x2c
 i.hci_trigger_command_tx
                0x000117cc       0x2c C:\9047software\PSoC Creator\3.3\PSoC Creator\psoc\content\cycomponentlibrary\CyComponentLibrary.cylib\BLE_v2_0\Library\gccCyBLEStack_BLE_SOC_PERIPHERAL.a(hci_command_queue.o)
                0x000117cc                hci_trigger_command_tx

i.hci_handle_connection_command_status
                0x000117f8       0x48
 i.hci_handle_connection_command_status
                0x000117f8       0x48 C:\9047software\PSoC Creator\3.3\PSoC Creator\psoc\content\cycomponentlibrary\CyComponentLibrary.cylib\BLE_v2_0\Library\gccCyBLEStack_BLE_SOC_PERIPHERAL.a(hci_connect.o)
                0x000117f8                hci_handle_connection_command_status

i.hci_le_conn_resolution_complete
                0x00011840       0x38
 i.hci_le_conn_resolution_complete
                0x00011840       0x38 C:\9047software\PSoC Creator\3.3\PSoC Creator\psoc\content\cycomponentlibrary\CyComponentLibrary.cylib\BLE_v2_0\Library\gccCyBLEStack_BLE_SOC_PERIPHERAL.a(hci_connect.o)
                0x00011840                hci_le_conn_resolution_complete

i.hci_le_connection_complete_event
                0x00011878       0xfc
 i.hci_le_connection_complete_event
                0x00011878       0xfc C:\9047software\PSoC Creator\3.3\PSoC Creator\psoc\content\cycomponentlibrary\CyComponentLibrary.cylib\BLE_v2_0\Library\gccCyBLEStack_BLE_SOC_PERIPHERAL.a(hci_connect.o)
                0x00011878                hci_le_connection_complete_event

i.hci_disconnection_complete_event
                0x00011974       0x68
 i.hci_disconnection_complete_event
                0x00011974       0x68 C:\9047software\PSoC Creator\3.3\PSoC Creator\psoc\content\cycomponentlibrary\CyComponentLibrary.cylib\BLE_v2_0\Library\gccCyBLEStack_BLE_SOC_PERIPHERAL.a(hci_disconnect.o)
                0x00011974                hci_disconnection_complete_event

i.se_smp_dummy_handler
                0x000119dc        0x8
 i.se_smp_dummy_handler
                0x000119dc        0x8 C:\9047software\PSoC Creator\3.3\PSoC Creator\psoc\content\cycomponentlibrary\CyComponentLibrary.cylib\BLE_v2_0\Library\gccCyBLEStack_BLE_SOC_PERIPHERAL.a(smp_fsm_handlers.o)
                0x000119dc                se_smp_dummy_handler

i.se_smp_encryption_complete_for_pairing_handler
                0x000119e4       0x88
 i.se_smp_encryption_complete_for_pairing_handler
                0x000119e4       0x88 C:\9047software\PSoC Creator\3.3\PSoC Creator\psoc\content\cycomponentlibrary\CyComponentLibrary.cylib\BLE_v2_0\Library\gccCyBLEStack_BLE_SOC_PERIPHERAL.a(smp_fsm_handlers.o)
                0x000119e4                se_smp_encryption_complete_for_pairing_handler

i.se_smp_gen_passkey_handler
                0x00011a6c       0x10
 i.se_smp_gen_passkey_handler
                0x00011a6c       0x10 C:\9047software\PSoC Creator\3.3\PSoC Creator\psoc\content\cycomponentlibrary\CyComponentLibrary.cylib\BLE_v2_0\Library\gccCyBLEStack_BLE_SOC_PERIPHERAL.a(smp_fsm_handlers.o)
                0x00011a6c                se_smp_gen_passkey_handler

i.se_smp_local_key_exchange_info_handler
                0x00011a7c       0x98
 i.se_smp_local_key_exchange_info_handler
                0x00011a7c       0x98 C:\9047software\PSoC Creator\3.3\PSoC Creator\psoc\content\cycomponentlibrary\CyComponentLibrary.cylib\BLE_v2_0\Library\gccCyBLEStack_BLE_SOC_PERIPHERAL.a(smp_fsm_handlers.o)
                0x00011a7c                se_smp_local_key_exchange_info_handler

i.se_smp_lr_pairing_confirming_handler
                0x00011b14       0x60
 i.se_smp_lr_pairing_confirming_handler
                0x00011b14       0x60 C:\9047software\PSoC Creator\3.3\PSoC Creator\psoc\content\cycomponentlibrary\CyComponentLibrary.cylib\BLE_v2_0\Library\gccCyBLEStack_BLE_SOC_PERIPHERAL.a(smp_fsm_handlers.o)
                0x00011b14                se_smp_lr_pairing_confirming_handler

i.se_smp_ltk_req_for_pairing_handler
                0x00011b74       0x10
 i.se_smp_ltk_req_for_pairing_handler
                0x00011b74       0x10 C:\9047software\PSoC Creator\3.3\PSoC Creator\psoc\content\cycomponentlibrary\CyComponentLibrary.cylib\BLE_v2_0\Library\gccCyBLEStack_BLE_SOC_PERIPHERAL.a(smp_fsm_handlers.o)
                0x00011b74                se_smp_ltk_req_for_pairing_handler

i.se_smp_ltk_req_handler
                0x00011b84       0x2a
 i.se_smp_ltk_req_handler
                0x00011b84       0x2a C:\9047software\PSoC Creator\3.3\PSoC Creator\psoc\content\cycomponentlibrary\CyComponentLibrary.cylib\BLE_v2_0\Library\gccCyBLEStack_BLE_SOC_PERIPHERAL.a(smp_fsm_handlers.o)
                0x00011b84                se_smp_ltk_req_handler

i.se_smp_pairing_confirm_handler
                0x00011bb0       0x54
 i.se_smp_pairing_confirm_handler
                0x00011bb0       0x54 C:\9047software\PSoC Creator\3.3\PSoC Creator\psoc\content\cycomponentlibrary\CyComponentLibrary.cylib\BLE_v2_0\Library\gccCyBLEStack_BLE_SOC_PERIPHERAL.a(smp_fsm_handlers.o)
                0x00011bb0                se_smp_pairing_confirm_handler

i.se_smp_pairing_event_bad_state_handler
                0x00011c04        0x8
 i.se_smp_pairing_event_bad_state_handler
                0x00011c04        0x8 C:\9047software\PSoC Creator\3.3\PSoC Creator\psoc\content\cycomponentlibrary\CyComponentLibrary.cylib\BLE_v2_0\Library\gccCyBLEStack_BLE_SOC_PERIPHERAL.a(smp_fsm_handlers.o)
                0x00011c04                se_smp_pairing_event_bad_state_handler

i.se_smp_pairing_failure_handler
                0x00011c0c       0x14
 i.se_smp_pairing_failure_handler
                0x00011c0c       0x14 C:\9047software\PSoC Creator\3.3\PSoC Creator\psoc\content\cycomponentlibrary\CyComponentLibrary.cylib\BLE_v2_0\Library\gccCyBLEStack_BLE_SOC_PERIPHERAL.a(smp_fsm_handlers.o)
                0x00011c0c                se_smp_pairing_failure_handler

i.se_smp_pairing_rand_handler
                0x00011c20       0xf0
 i.se_smp_pairing_rand_handler
                0x00011c20       0xf0 C:\9047software\PSoC Creator\3.3\PSoC Creator\psoc\content\cycomponentlibrary\CyComponentLibrary.cylib\BLE_v2_0\Library\gccCyBLEStack_BLE_SOC_PERIPHERAL.a(smp_fsm_handlers.o)
                0x00011c20                se_smp_pairing_rand_handler

i.se_smp_pairing_req_handler
                0x00011d10       0xb8
 i.se_smp_pairing_req_handler
                0x00011d10       0xb8 C:\9047software\PSoC Creator\3.3\PSoC Creator\psoc\content\cycomponentlibrary\CyComponentLibrary.cylib\BLE_v2_0\Library\gccCyBLEStack_BLE_SOC_PERIPHERAL.a(smp_fsm_handlers.o)
                0x00011d10                se_smp_pairing_req_handler

i.se_smp_pairing_rsp_handler
                0x00011dc8      0x10c
 i.se_smp_pairing_rsp_handler
                0x00011dc8      0x10c C:\9047software\PSoC Creator\3.3\PSoC Creator\psoc\content\cycomponentlibrary\CyComponentLibrary.cylib\BLE_v2_0\Library\gccCyBLEStack_BLE_SOC_PERIPHERAL.a(smp_fsm_handlers.o)
                0x00011dc8                se_smp_pairing_rsp_handler

i.se_smp_pairing_stk_handler
                0x00011ed4       0x3c
 i.se_smp_pairing_stk_handler
                0x00011ed4       0x3c C:\9047software\PSoC Creator\3.3\PSoC Creator\psoc\content\cycomponentlibrary\CyComponentLibrary.cylib\BLE_v2_0\Library\gccCyBLEStack_BLE_SOC_PERIPHERAL.a(smp_fsm_handlers.o)
                0x00011ed4                se_smp_pairing_stk_handler

i.se_smp_remote_key_exchange_info_handler
                0x00011f10       0x9c
 i.se_smp_remote_key_exchange_info_handler
                0x00011f10       0x9c C:\9047software\PSoC Creator\3.3\PSoC Creator\psoc\content\cycomponentlibrary\CyComponentLibrary.cylib\BLE_v2_0\Library\gccCyBLEStack_BLE_SOC_PERIPHERAL.a(smp_fsm_handlers.o)
                0x00011f10                se_smp_remote_key_exchange_info_handler

i.se_smp_user_passkey_handler
                0x00011fac       0x3c
 i.se_smp_user_passkey_handler
                0x00011fac       0x3c C:\9047software\PSoC Creator\3.3\PSoC Creator\psoc\content\cycomponentlibrary\CyComponentLibrary.cylib\BLE_v2_0\Library\gccCyBLEStack_BLE_SOC_PERIPHERAL.a(smp_fsm_handlers.o)
                0x00011fac                se_smp_user_passkey_handler

i.smp_passkey_handler
                0x00011fe8       0x64
 i.smp_passkey_handler
                0x00011fe8       0x64 C:\9047software\PSoC Creator\3.3\PSoC Creator\psoc\content\cycomponentlibrary\CyComponentLibrary.cylib\BLE_v2_0\Library\gccCyBLEStack_BLE_SOC_PERIPHERAL.a(smp_fsm_handlers.o)
                0x00011fe8                smp_passkey_handler

i.smp_remote_pairing_confirm_handler
                0x0001204c       0x44
 i.smp_remote_pairing_confirm_handler
                0x0001204c       0x44 C:\9047software\PSoC Creator\3.3\PSoC Creator\psoc\content\cycomponentlibrary\CyComponentLibrary.cylib\BLE_v2_0\Library\gccCyBLEStack_BLE_SOC_PERIPHERAL.a(smp_fsm_handlers.o)
                0x0001204c                smp_remote_pairing_confirm_handler

i.se_error_handler
                0x00012090       0x18
 i.se_error_handler
                0x00012090       0x18 C:\9047software\PSoC Creator\3.3\PSoC Creator\psoc\content\cycomponentlibrary\CyComponentLibrary.cylib\BLE_v2_0\Library\gccCyBLEStack_BLE_SOC_PERIPHERAL.a(att_fsm_handlers.o)
                0x00012090                se_error_handler

i.se_error_rsp_handler
                0x000120a8       0x50
 i.se_error_rsp_handler
                0x000120a8       0x50 C:\9047software\PSoC Creator\3.3\PSoC Creator\psoc\content\cycomponentlibrary\CyComponentLibrary.cylib\BLE_v2_0\Library\gccCyBLEStack_BLE_SOC_PERIPHERAL.a(att_fsm_handlers.o)
                0x000120a8                se_error_rsp_handler

i.se_exchange_mtu_req_handler
                0x000120f8       0x44
 i.se_exchange_mtu_req_handler
                0x000120f8       0x44 C:\9047software\PSoC Creator\3.3\PSoC Creator\psoc\content\cycomponentlibrary\CyComponentLibrary.cylib\BLE_v2_0\Library\gccCyBLEStack_BLE_SOC_PERIPHERAL.a(att_fsm_handlers.o)
                0x000120f8                se_exchange_mtu_req_handler

i.se_exchange_mtu_rsp_handler
                0x0001213c       0x84
 i.se_exchange_mtu_rsp_handler
                0x0001213c       0x84 C:\9047software\PSoC Creator\3.3\PSoC Creator\psoc\content\cycomponentlibrary\CyComponentLibrary.cylib\BLE_v2_0\Library\gccCyBLEStack_BLE_SOC_PERIPHERAL.a(att_fsm_handlers.o)
                0x0001213c                se_exchange_mtu_rsp_handler

i.se_req_handler
                0x000121c0       0x40
 i.se_req_handler
                0x000121c0       0x40 C:\9047software\PSoC Creator\3.3\PSoC Creator\psoc\content\cycomponentlibrary\CyComponentLibrary.cylib\BLE_v2_0\Library\gccCyBLEStack_BLE_SOC_PERIPHERAL.a(att_fsm_handlers.o)
                0x000121c0                se_req_handler

i.se_rsp_handler
                0x00012200       0x1c
 i.se_rsp_handler
                0x00012200       0x1c C:\9047software\PSoC Creator\3.3\PSoC Creator\psoc\content\cycomponentlibrary\CyComponentLibrary.cylib\BLE_v2_0\Library\gccCyBLEStack_BLE_SOC_PERIPHERAL.a(att_fsm_handlers.o)
                0x00012200                se_rsp_handler

i.se_unknown_pdu_ind_handler
                0x0001221c       0x1c
 i.se_unknown_pdu_ind_handler
                0x0001221c       0x1c C:\9047software\PSoC Creator\3.3\PSoC Creator\psoc\content\cycomponentlibrary\CyComponentLibrary.cylib\BLE_v2_0\Library\gccCyBLEStack_BLE_SOC_PERIPHERAL.a(att_fsm_handlers.o)
                0x0001221c                se_unknown_pdu_ind_handler

i.l2cap_lp_connect_ind
                0x00012238       0x70
 i.l2cap_lp_connect_ind
                0x00012238       0x70 C:\9047software\PSoC Creator\3.3\PSoC Creator\psoc\content\cycomponentlibrary\CyComponentLibrary.cylib\BLE_v2_0\Library\gccCyBLEStack_BLE_SOC_PERIPHERAL.a(l2cap_connect.o)
                0x00012238                l2cap_lp_connect_ind

i.CyBle_BleSSInterruptHandler
                0x000122a8       0x28
 i.CyBle_BleSSInterruptHandler
                0x000122a8       0x28 C:\9047software\PSoC Creator\3.3\PSoC Creator\psoc\content\cycomponentlibrary\CyComponentLibrary.cylib\BLE_v2_0\Library\gccCyBLEStack_BLE_SOC_PERIPHERAL.a(ll_isr.o)
                0x000122a8                CyBle_BleSSInterruptHandler

.eh_frame_hdr
 *(.eh_frame_hdr)

.eh_frame       0x000122d0        0x4
 *(.eh_frame)
 .eh_frame      0x000122d0        0x0 c:/9047software/psoc creator/3.3/psoc creator/import/gnu/arm/4.9.3/bin/../lib/gcc/arm-none-eabi/4.9.3/armv6-m/crtbegin.o
 .eh_frame      0x000122d0        0x4 c:/9047software/psoc creator/3.3/psoc creator/import/gnu/arm/4.9.3/bin/../lib/gcc/arm-none-eabi/4.9.3/armv6-m/crtend.o
                0x000122d4                PROVIDE (__exidx_start, .)

.ARM.exidx
 *(.ARM.exidx* .gnu.linkonce.armexidx.*)
                0x000122d4                __exidx_end = .

.rodata         0x00012300      0x6b0
 *(.rodata .rodata.* .gnu.linkonce.r.*)
 .rodata        0x00012300       0x28 .\CortexM0\ARM_GCC_493\Debug\BLE Lab 3.a(cyfitter_cfg.o)
 .rodata        0x00012328        0xc .\CortexM0\ARM_GCC_493\Debug\BLE Lab 3.a(BLE_hrs.o)
                0x00012328                cyBle_hrss
 .rodata        0x00012334       0x18 .\CortexM0\ARM_GCC_493\Debug\BLE Lab 3.a(BLE.o)
 *fill*         0x0001234c       0x34 
 .rodata        0x00012380      0x400 .\CortexM0\ARM_GCC_493\Debug\BLE Lab 3.a(BLE_gatt.o)
                0x00012380                cyBle_gatts
                0x00012400                cyBle_attValuesCCCDFlashMemory
                0x00012414                cyBle_gattDB
 .rodata        0x00012780      0x1c8 .\CortexM0\ARM_GCC_493\Debug\BLE Lab 3.a(BLE_eventHandler.o)
 .rodata        0x00012948       0x30 .\CortexM0\ARM_GCC_493\Debug\BLE Lab 3.a(CyLib.o)
                0x00012948                cyImoFreqMhz2Reg
                0x00012978                . = ALIGN (0x4)
 *(.init)
 .init          0x00012978        0x4 c:/9047software/psoc creator/3.3/psoc creator/import/gnu/arm/4.9.3/bin/../lib/gcc/arm-none-eabi/4.9.3/armv6-m/crti.o
                0x00012978                _init
 .init          0x0001297c        0x8 c:/9047software/psoc creator/3.3/psoc creator/import/gnu/arm/4.9.3/bin/../lib/gcc/arm-none-eabi/4.9.3/armv6-m/crtn.o
                0x00012984                . = ALIGN (0x4)
                0x00012984                __preinit_array_start = .
 *(.preinit_array)
                0x00012984                __preinit_array_end = .
                0x00012984                . = ALIGN (0x4)
                0x00012984                __init_array_start = .
 *(SORT(.init_array.*))
 *(.init_array)
 .init_array    0x00012984        0x4 c:/9047software/psoc creator/3.3/psoc creator/import/gnu/arm/4.9.3/bin/../lib/gcc/arm-none-eabi/4.9.3/armv6-m/crtbegin.o
 .init_array    0x00012988        0x4 .\CortexM0\ARM_GCC_493\Debug\Cm0Start.o
                0x0001298c                __init_array_end = .
                0x0001298c                . = ALIGN (0x4)
 *(.fini)
 .fini          0x0001298c        0x4 c:/9047software/psoc creator/3.3/psoc creator/import/gnu/arm/4.9.3/bin/../lib/gcc/arm-none-eabi/4.9.3/armv6-m/crti.o
                0x0001298c                _fini
 .fini          0x00012990        0x8 c:/9047software/psoc creator/3.3/psoc creator/import/gnu/arm/4.9.3/bin/../lib/gcc/arm-none-eabi/4.9.3/armv6-m/crtn.o
                0x00012998                . = ALIGN (0x4)
                0x00012998                __fini_array_start = .
 *(.fini_array)
 .fini_array    0x00012998        0x4 c:/9047software/psoc creator/3.3/psoc creator/import/gnu/arm/4.9.3/bin/../lib/gcc/arm-none-eabi/4.9.3/armv6-m/crtbegin.o
 *(SORT(.fini_array.*))
                0x0001299c                __fini_array_end = .
                0x0001299c                . = ALIGN (0x4)
 *crtbegin.o(.ctors)
 *(EXCLUDE_FILE(*crtend.o) .ctors)
 *(SORT(.ctors.*))
 *crtend.o(.ctors)
                0x0001299c                . = ALIGN (0x4)
 *crtbegin.o(.dtors)
 *(EXCLUDE_FILE(*crtend.o) .dtors)
 *(SORT(.dtors.*))
 *crtend.o(.dtors)
                0x0001299c                . = ALIGN (0x4)
                0x0001299c                __cy_regions = .
                0x0001299c        0x4 LONG 0x13240 __cy_region_init_ram
                0x000129a0        0x4 LONG 0x200000c8 __cy_region_start_data
                0x000129a4        0x4 LONG 0x398 __cy_region_init_size_ram
                0x000129a8        0x4 LONG 0x1980 __cy_region_zero_size_ram
                0x000129ac                __cy_regions_end = .
                0x000129b0                . = ALIGN (0x8)
 *fill*         0x000129ac        0x4 
                0x000129b0                _etext = .

.constdata      0x00012a00      0x7a8
 .constdata     0x00012a00       0x18 C:\9047software\PSoC Creator\3.3\PSoC Creator\psoc\content\cycomponentlibrary\CyComponentLibrary.cylib\BLE_v2_0\Library\gccCyBLEStack_BLE_SOC_PERIPHERAL.a(BT_os.o)
                0x00012a00                cyBleStackMemoryConfig
 .constdata     0x00012a18       0x58 C:\9047software\PSoC Creator\3.3\PSoC Creator\psoc\content\cycomponentlibrary\CyComponentLibrary.cylib\BLE_v2_0\Library\gccCyBLEStack_BLE_SOC_PERIPHERAL.a(config_bin.o)
                0x00012a18                bt_cfg_pdata
 .constdata     0x00012a70       0x10 C:\9047software\PSoC Creator\3.3\PSoC Creator\psoc\content\cycomponentlibrary\CyComponentLibrary.cylib\BLE_v2_0\Library\gccCyBLEStack_BLE_SOC_PERIPHERAL.a(ll_connection.o)
                0x00012a70                g_slave_clock_accuracy
 .constdata     0x00012a80       0xa0 C:\9047software\PSoC Creator\3.3\PSoC Creator\psoc\content\cycomponentlibrary\CyComponentLibrary.cylib\BLE_v2_0\Library\gccCyBLEStack_BLE_SOC_PERIPHERAL.a(ll_pdu.o)
                0x00012a80                fp_ll_pdu_handlers
                0x00012ad0                fp_ll_pdu_ack_handlers
 .constdata     0x00012b20      0x193 C:\9047software\PSoC Creator\3.3\PSoC Creator\psoc\content\cycomponentlibrary\CyComponentLibrary.cylib\BLE_v2_0\Library\gccCyBLEStack_BLE_SOC_PERIPHERAL.a(lec_hci_le_commands.o)
                0x00012b20                fp_lec_cmd_handlers
                0x00012b9c                fp_lec_convert_cmd_param_handlers
                0x00012c18                fp_lec_validate_cmd_param_handlers
                0x00012c94                le_command_param_len
 .constdata     0x00012cb3       0x21 C:\9047software\PSoC Creator\3.3\PSoC Creator\psoc\content\cycomponentlibrary\CyComponentLibrary.cylib\BLE_v2_0\Library\gccCyBLEStack_BLE_SOC_PERIPHERAL.a(lec_hci_le_common_commands.o)
                0x00012cb3                Cu8_hci_le_supported_commands_array
 .constdata     0x00012cd4       0x58 C:\9047software\PSoC Creator\3.3\PSoC Creator\psoc\content\cycomponentlibrary\CyComponentLibrary.cylib\BLE_v2_0\Library\gccCyBLEStack_BLE_SOC_PERIPHERAL.a(l2cap_init.o)
                0x00012cd4                l2cap_le_sig_handler
 .constdata     0x00012d2c       0x3c C:\9047software\PSoC Creator\3.3\PSoC Creator\psoc\content\cycomponentlibrary\CyComponentLibrary.cylib\BLE_v2_0\Library\gccCyBLEStack_BLE_SOC_PERIPHERAL.a(fsm_engine_pl.o)
                0x00012d2c                fsm_module_table
 .constdata     0x00012d68       0x19 C:\9047software\PSoC Creator\3.3\PSoC Creator\psoc\content\cycomponentlibrary\CyComponentLibrary.cylib\BLE_v2_0\Library\gccCyBLEStack_BLE_SOC_PERIPHERAL.a(smp_core.o)
                0x00012d68                smp_iocap_assoc_map
 *fill*         0x00012d81        0x3 
 .constdata     0x00012d84        0xc C:\9047software\PSoC Creator\3.3\PSoC Creator\psoc\content\cycomponentlibrary\CyComponentLibrary.cylib\BLE_v2_0\Library\gccCyBLEStack_BLE_SOC_PERIPHERAL.a(smp_interface.o)
                0x00012d84                smp_event_fp
 .constdata     0x00012d90       0x1c C:\9047software\PSoC Creator\3.3\PSoC Creator\psoc\content\cycomponentlibrary\CyComponentLibrary.cylib\BLE_v2_0\Library\gccCyBLEStack_BLE_SOC_PERIPHERAL.a(smp_utils.o)
                0x00012d90                smp_event_map
 .constdata     0x00012dac       0x84 C:\9047software\PSoC Creator\3.3\PSoC Creator\psoc\content\cycomponentlibrary\CyComponentLibrary.cylib\BLE_v2_0\Library\gccCyBLEStack_BLE_SOC_PERIPHERAL.a(smp_fsm_table.o)
                0x00012dac                smp_state_event_table
 .constdata     0x00012e30       0xc8 C:\9047software\PSoC Creator\3.3\PSoC Creator\psoc\content\cycomponentlibrary\CyComponentLibrary.cylib\BLE_v2_0\Library\gccCyBLEStack_BLE_SOC_PERIPHERAL.a(smp_fsm_table.o)
                0x00012e30                smp_event_handler_table
 .constdata     0x00012ef8       0x20 C:\9047software\PSoC Creator\3.3\PSoC Creator\psoc\content\cycomponentlibrary\CyComponentLibrary.cylib\BLE_v2_0\Library\gccCyBLEStack_BLE_SOC_PERIPHERAL.a(aes_cmac.o)
                0x00012ef8                cmac_zero_data
                0x00012f08                cmac_rb_data
 *fill*         0x00012f18       0x68 
 .constdata     0x00012f80      0x16d C:\9047software\PSoC Creator\3.3\PSoC Creator\psoc\content\cycomponentlibrary\CyComponentLibrary.cylib\BLE_v2_0\Library\gccCyBLEStack_BLE_SOC_PERIPHERAL.a(storage_pl.o)
 *fill*         0x000130ed        0x3 
 .constdata     0x000130f0       0x60 C:\9047software\PSoC Creator\3.3\PSoC Creator\psoc\content\cycomponentlibrary\CyComponentLibrary.cylib\BLE_v2_0\Library\gccCyBLEStack_BLE_SOC_PERIPHERAL.a(att_fsm_table.o)
                0x000130f0                att_state_event_table
 .constdata     0x00013150       0x58 C:\9047software\PSoC Creator\3.3\PSoC Creator\psoc\content\cycomponentlibrary\CyComponentLibrary.cylib\BLE_v2_0\Library\gccCyBLEStack_BLE_SOC_PERIPHERAL.a(att_fsm_table.o)
                0x00013150                att_event_handler_table

.conststring    0x000131a8       0x91
 .conststring   0x000131a8        0xa C:\9047software\PSoC Creator\3.3\PSoC Creator\psoc\content\cycomponentlibrary\CyComponentLibrary.cylib\BLE_v2_0\Library\gccCyBLEStack_BLE_SOC_PERIPHERAL.a(storage_pl.o)
 .conststring   0x000131b2       0x87 C:\9047software\PSoC Creator\3.3\PSoC Creator\psoc\content\cycomponentlibrary\CyComponentLibrary.cylib\BLE_v2_0\Library\gccCyBLEStack_BLE_SOC_PERIPHERAL.a(drbg.o)

.ramvectors     0x20000000       0xc0
                0x20000000                __cy_region_start_ram = .
 *(.ramvectors)
 .ramvectors    0x20000000       0xc0 .\CortexM0\ARM_GCC_493\Debug\Cm0Start.o
                0x20000000                CyRamVectors

.noinit         0x200000c0        0x4
 *(.noinit)
 .noinit        0x200000c0        0x4 .\CortexM0\ARM_GCC_493\Debug\Cm0Start.o

.data           0x200000c8      0x398 load address 0x00013240
                0x200000c8                __cy_region_start_data = .
 *(.jcr)
 .jcr           0x200000c8        0x0 c:/9047software/psoc creator/3.3/psoc creator/import/gnu/arm/4.9.3/bin/../lib/gcc/arm-none-eabi/4.9.3/armv6-m/crtbegin.o
 .jcr           0x200000c8        0x4 c:/9047software/psoc creator/3.3/psoc creator/import/gnu/arm/4.9.3/bin/../lib/gcc/arm-none-eabi/4.9.3/armv6-m/crtend.o
 *(.got.plt)
 *(.got)
 *(.shdata)
 *(.data .data.* .gnu.linkonce.d.*)
 .data          0x200000cc        0x2 .\CortexM0\ARM_GCC_493\Debug\HeartRateProcessing.o
 *fill*         0x200000ce        0x2 
 .data          0x200000d0       0x70 .\CortexM0\ARM_GCC_493\Debug\BLE Lab 3.a(BLE.o)
                0x200000d0                cyBle_discoveryParam
                0x200000e0                cyBle_discoveryData
                0x20000100                cyBle_scanRspData
                0x20000120                cyBle_discoveryModeInfo
                0x20000134                cyBle_deviceAddress
                0x2000013c                cyBle_sflashDeviceAddress
 .data          0x20000140       0xec .\CortexM0\ARM_GCC_493\Debug\BLE Lab 3.a(BLE_gatt.o)
                0x2000019c                cyBle_attValuesLen
 .data          0x2000022c        0x4 .\CortexM0\ARM_GCC_493\Debug\BLE Lab 3.a(BLE_eventHandler.o)
                0x2000022c                cyBle_authInfo
 .data          0x20000230       0x10 .\CortexM0\ARM_GCC_493\Debug\BLE Lab 3.a(CyLib.o)
                0x20000230                cydelayFreqHz
                0x20000234                cydelayFreqKhz
                0x20000238                cydelayFreqMhz
                0x2000023c                cydelay32kMs
 .data          0x20000240        0x8 C:\9047software\PSoC Creator\3.3\PSoC Creator\psoc\content\cycomponentlibrary\CyComponentLibrary.cylib\BLE_v2_0\Library\gccCyBLEStack_BLE_SOC_PERIPHERAL.a(CyBle.o)
                0x20000240                CyBle_StackState
                0x20000241                gDataBufferPools
 .data          0x20000248        0x1 C:\9047software\PSoC Creator\3.3\PSoC Creator\psoc\content\cycomponentlibrary\CyComponentLibrary.cylib\BLE_v2_0\Library\gccCyBLEStack_BLE_SOC_PERIPHERAL.a(CyBleStackMgrIP_Interface.o)
                0x20000248                cyBleStackMgr_State
 *fill*         0x20000249        0x3 
 .data          0x2000024c        0x8 C:\9047software\PSoC Creator\3.3\PSoC Creator\psoc\content\cycomponentlibrary\CyComponentLibrary.cylib\BLE_v2_0\Library\gccCyBLEStack_BLE_SOC_PERIPHERAL.a(BT_os.o)
                0x2000024c                bleBufferPoolInfo
                0x20000250                BtOSMemPoolList
 .data          0x20000254        0x4 C:\9047software\PSoC Creator\3.3\PSoC Creator\psoc\content\cycomponentlibrary\CyComponentLibrary.cylib\BLE_v2_0\Library\gccCyBLEStack_BLE_SOC_PERIPHERAL.a(CyBleStackMgr_StackTaskHandler.o)
                0x20000254                BLE_STACK_TASK_EVT
 .data          0x20000258       0x10 C:\9047software\PSoC Creator\3.3\PSoC Creator\psoc\content\cycomponentlibrary\CyComponentLibrary.cylib\BLE_v2_0\Library\gccCyBLEStack_BLE_SOC_PERIPHERAL.a(transport_sf.o)
                0x20000260                hci_soft_transport_pkt_recd_cb
                0x20000264                hci_soft_transport_tx_completed_cb
 .data          0x20000268        0xa C:\9047software\PSoC Creator\3.3\PSoC Creator\psoc\content\cycomponentlibrary\CyComponentLibrary.cylib\BLE_v2_0\Library\gccCyBLEStack_BLE_SOC_PERIPHERAL.a(CyBleStackMgr_BleSSDriver.o)
                0x20000268                gConfigEnableDsm
                0x20000269                eventClose
                0x2000026b                cyBleLowPowerMode
                0x2000026e                cyBleSsClockConfiguration
 *fill*         0x20000272        0x2 
 .data          0x20000274        0xc C:\9047software\PSoC Creator\3.3\PSoC Creator\psoc\content\cycomponentlibrary\CyComponentLibrary.cylib\BLE_v2_0\Library\gccCyBLEStack_BLE_SOC_PERIPHERAL.a(mint_os.o)
                0x20000274                mintos_heap_pointer
                0x20000278                mintos_heap_memory
                0x2000027c                OS_MAX_HEAP_MEMORY
 .data          0x20000280        0xc C:\9047software\PSoC Creator\3.3\PSoC Creator\psoc\content\cycomponentlibrary\CyComponentLibrary.cylib\BLE_v2_0\Library\gccCyBLEStack_BLE_SOC_PERIPHERAL.a(mint_os_queue.o)
                0x20000280                OS_TOTAL_QUEUES
                0x20000284                queue_mgr
 .data          0x2000028c       0x14 C:\9047software\PSoC Creator\3.3\PSoC Creator\psoc\content\cycomponentlibrary\CyComponentLibrary.cylib\BLE_v2_0\Library\gccCyBLEStack_BLE_SOC_PERIPHERAL.a(mint_os_task.o)
                0x2000028c                os_errno
                0x20000290                OS_TOTAL_TASKS
                0x20000294                current_task_handle
                0x20000298                task_mgr
 .data          0x200002a0        0x4 C:\9047software\PSoC Creator\3.3\PSoC Creator\psoc\content\cycomponentlibrary\CyComponentLibrary.cylib\BLE_v2_0\Library\gccCyBLEStack_BLE_SOC_PERIPHERAL.a(mint_os_task.o)
                0x200002a0                idle_func_handler
 .data          0x200002a4        0x4 C:\9047software\PSoC Creator\3.3\PSoC Creator\psoc\content\cycomponentlibrary\CyComponentLibrary.cylib\BLE_v2_0\Library\gccCyBLEStack_BLE_SOC_PERIPHERAL.a(mint_os_task.o)
                0x200002a4                start_schedule_func_handler
 .data          0x200002a8       0x14 C:\9047software\PSoC Creator\3.3\PSoC Creator\psoc\content\cycomponentlibrary\CyComponentLibrary.cylib\BLE_v2_0\Library\gccCyBLEStack_BLE_SOC_PERIPHERAL.a(mint_buf_mgmt.o)
                0x200002a8                MINT_BUF_MGMT_MAX_POOLS
                0x200002aa                MINT_BUF_MGMT_MAX_HEAP_MEMORY
                0x200002ac                mint_buf_mgmt_heap_pointer
                0x200002b0                mint_buf_mgmt_heap_memory
                0x200002b4                mint_buf_mgmt_mgr
 .data          0x200002bc        0x1 C:\9047software\PSoC Creator\3.3\PSoC Creator\psoc\content\cycomponentlibrary\CyComponentLibrary.cylib\BLE_v2_0\Library\gccCyBLEStack_BLE_SOC_PERIPHERAL.a(CyBleControllerIP_Interface.o)
                0x200002bc                gPingState
 .data          0x200002bd        0x1 C:\9047software\PSoC Creator\3.3\PSoC Creator\psoc\content\cycomponentlibrary\CyComponentLibrary.cylib\BLE_v2_0\Library\gccCyBLEStack_BLE_SOC_PERIPHERAL.a(ll.o)
                0x200002bd                dsmEnteringState
 .data          0x200002be        0x4 C:\9047software\PSoC Creator\3.3\PSoC Creator\psoc\content\cycomponentlibrary\CyComponentLibrary.cylib\BLE_v2_0\Library\gccCyBLEStack_BLE_SOC_PERIPHERAL.a(ll_advertiser.o)
                0x200002be                gAdvParam
 .data          0x200002c2        0x4 C:\9047software\PSoC Creator\3.3\PSoC Creator\psoc\content\cycomponentlibrary\CyComponentLibrary.cylib\BLE_v2_0\Library\gccCyBLEStack_BLE_SOC_PERIPHERAL.a(ll_connection.o)
                0x200002c2                bleSlDsmFix
 .data          0x200002c6        0xe C:\9047software\PSoC Creator\3.3\PSoC Creator\psoc\content\cycomponentlibrary\CyComponentLibrary.cylib\BLE_v2_0\Library\gccCyBLEStack_BLE_SOC_PERIPHERAL.a(llh_api.o)
                0x200002c6                g_ll_current_interrupt_mask
                0x200002c8                g_bb_intr_en_mask
                0x200002ca                g_tx_pkt_opcode
                0x200002cf                g_tx_pkt_llid
 .data          0x200002d4        0x2 C:\9047software\PSoC Creator\3.3\PSoC Creator\psoc\content\cycomponentlibrary\CyComponentLibrary.cylib\BLE_v2_0\Library\gccCyBLEStack_BLE_SOC_PERIPHERAL.a(ll_tasks.o)
                0x200002d4                lastDsmExitSlot
 *fill*         0x200002d6        0x2 
 .data          0x200002d8        0x8 C:\9047software\PSoC Creator\3.3\PSoC Creator\psoc\content\cycomponentlibrary\CyComponentLibrary.cylib\BLE_v2_0\Library\gccCyBLEStack_BLE_SOC_PERIPHERAL.a(llf_task.o)
                0x200002d8                llft_state
 .data          0x200002e0        0xc C:\9047software\PSoC Creator\3.3\PSoC Creator\psoc\content\cycomponentlibrary\CyComponentLibrary.cylib\BLE_v2_0\Library\gccCyBLEStack_BLE_SOC_PERIPHERAL.a(host_main.o)
                0x200002e4                att_app
                0x200002e8                app_ev_cb
 .data          0x200002ec        0x4 C:\9047software\PSoC Creator\3.3\PSoC Creator\psoc\content\cycomponentlibrary\CyComponentLibrary.cylib\BLE_v2_0\Library\gccCyBLEStack_BLE_SOC_PERIPHERAL.a(att_init.o)
                0x200002ec                att_application
 .data          0x200002f0        0x8 C:\9047software\PSoC Creator\3.3\PSoC Creator\psoc\content\cycomponentlibrary\CyComponentLibrary.cylib\BLE_v2_0\Library\gccCyBLEStack_BLE_SOC_PERIPHERAL.a(BT_common.o)
                0x200002f0                stack_init_state
 .data          0x200002f8        0x8 C:\9047software\PSoC Creator\3.3\PSoC Creator\psoc\content\cycomponentlibrary\CyComponentLibrary.cylib\BLE_v2_0\Library\gccCyBLEStack_BLE_SOC_PERIPHERAL.a(device_queue.o)
                0x200002f8                queue_current_count
                0x200002f9                current_local_addr
 .data          0x20000300        0x4 C:\9047software\PSoC Creator\3.3\PSoC Creator\psoc\content\cycomponentlibrary\CyComponentLibrary.cylib\BLE_v2_0\Library\gccCyBLEStack_BLE_SOC_PERIPHERAL.a(l2cap.o)
                0x20000300                isL2capCbfcConfigSet
                0x20000301                L2CAP_MAX_CHANNELS
                0x20000302                L2CAP_MAX_CBFC_PSM
                0x20000303                L2CAP_RESPONSE_TIMEOUT
 .data          0x20000304       0x30 C:\9047software\PSoC Creator\3.3\PSoC Creator\psoc\content\cycomponentlibrary\CyComponentLibrary.cylib\BLE_v2_0\Library\gccCyBLEStack_BLE_SOC_PERIPHERAL.a(l2cap_init.o)
                0x20000304                l2cap_tx_queue_flow_state
                0x20000305                l2cap_schedule_tx
                0x20000306                l2cap_sig_id_counter
                0x20000308                l2cap_lp_max_le_packets
                0x2000030a                l2cap_lp_max_le_packet_size
                0x2000030c                l2cap_fixed_channel_more_param
                0x20000310                l2cap_psm_cbfc
                0x20000314                l2cap_channels
                0x20000318                l2cap_buffer_num_available
                0x2000031c                l2cap_tx_queue_lwm
                0x20000320                l2cap_tx_queue_hwm
                0x20000324                l2cap_tx_queue_flow_cb
                0x20000328                l2cap_tx_q_start
                0x2000032c                l2cap_tx_q_end
                0x20000330                l2cap_le_event_cb
 .data          0x20000334        0x4 C:\9047software\PSoC Creator\3.3\PSoC Creator\psoc\content\cycomponentlibrary\CyComponentLibrary.cylib\BLE_v2_0\Library\gccCyBLEStack_BLE_SOC_PERIPHERAL.a(l2cap_init.o)
                0x20000334                l2cap_more_channel_param
 .data          0x20000338        0x2 C:\9047software\PSoC Creator\3.3\PSoC Creator\psoc\content\cycomponentlibrary\CyComponentLibrary.cylib\BLE_v2_0\Library\gccCyBLEStack_BLE_SOC_PERIPHERAL.a(l2cap_init.o)
                0x20000338                l2cap_lp_num_le_packets
 .data          0x2000033a        0x4 C:\9047software\PSoC Creator\3.3\PSoC Creator\psoc\content\cycomponentlibrary\CyComponentLibrary.cylib\BLE_v2_0\Library\gccCyBLEStack_BLE_SOC_PERIPHERAL.a(gap.o)
                0x2000033a                gap_device_connected
 *fill*         0x2000033e        0x2 
 .data          0x20000340        0x4 C:\9047software\PSoC Creator\3.3\PSoC Creator\psoc\content\cycomponentlibrary\CyComponentLibrary.cylib\BLE_v2_0\Library\gccCyBLEStack_BLE_SOC_PERIPHERAL.a(gatt.o)
                0x20000340                gSignData
 .data          0x20000344        0xe C:\9047software\PSoC Creator\3.3\PSoC Creator\psoc\content\cycomponentlibrary\CyComponentLibrary.cylib\BLE_v2_0\Library\gccCyBLEStack_BLE_SOC_PERIPHERAL.a(gatt.o)
                0x20000344                gAppMtuSize
                0x20000346                gMaxAttMtuSize
                0x20000348                gConnHandleSignedWrite
                0x2000034a                gSignMac
 *fill*         0x20000352        0x2 
 .data          0x20000354        0x4 C:\9047software\PSoC Creator\3.3\PSoC Creator\psoc\content\cycomponentlibrary\CyComponentLibrary.cylib\BLE_v2_0\Library\gccCyBLEStack_BLE_SOC_PERIPHERAL.a(gatt.o)
                0x20000354                gSignCreateCounter
 .data          0x20000358        0x4 C:\9047software\PSoC Creator\3.3\PSoC Creator\psoc\content\cycomponentlibrary\CyComponentLibrary.cylib\BLE_v2_0\Library\gccCyBLEStack_BLE_SOC_PERIPHERAL.a(gatt.o)
                0x20000358                gSignVerifyCounter
 .data          0x2000035c       0x18 C:\9047software\PSoC Creator\3.3\PSoC Creator\psoc\content\cycomponentlibrary\CyComponentLibrary.cylib\BLE_v2_0\Library\gccCyBLEStack_BLE_SOC_PERIPHERAL.a(gattClient.o)
 .data          0x20000374       0x10 C:\9047software\PSoC Creator\3.3\PSoC Creator\psoc\content\cycomponentlibrary\CyComponentLibrary.cylib\BLE_v2_0\Library\gccCyBLEStack_BLE_SOC_PERIPHERAL.a(gattServer.o)
                0x20000380                cyBleAttBuffer
 .data          0x20000384        0x8 C:\9047software\PSoC Creator\3.3\PSoC Creator\psoc\content\cycomponentlibrary\CyComponentLibrary.cylib\BLE_v2_0\Library\gccCyBLEStack_BLE_SOC_PERIPHERAL.a(gattDbHandler.o)
                0x20000384                CyBle_GattDbTotalEntries
                0x20000386                CyBle_GattDbMaxValLength
                0x20000388                CyBle_GattDbInternal
 .data          0x2000038c        0x1 C:\9047software\PSoC Creator\3.3\PSoC Creator\psoc\content\cycomponentlibrary\CyComponentLibrary.cylib\BLE_v2_0\Library\gccCyBLEStack_BLE_SOC_PERIPHERAL.a(hci_events.o)
 *fill*         0x2000038d        0x3 
 .data          0x20000390       0x20 C:\9047software\PSoC Creator\3.3\PSoC Creator\psoc\content\cycomponentlibrary\CyComponentLibrary.cylib\BLE_v2_0\Library\gccCyBLEStack_BLE_SOC_PERIPHERAL.a(hci_init.o)
                0x20000390                hci_num_hci_command_packets
                0x20000391                hci_flow_control
                0x20000392                hci_schedule_command_tx
                0x20000393                hci_call_event_ind_callback
                0x20000394                hci_bt_init_complete_call_cb
                0x20000395                hci_encrypt_cmd_counter
                0x20000396                hci_encrypt_cmd_cmplt_counter
                0x20000398                hci_command_queue_start
                0x2000039a                hci_command_queue_end
                0x2000039c                hci_resolution_conn_handle
                0x200003a0                hci_event_ind_cb
                0x200003a4                hci_local_bd_addr
                0x200003aa                hci_remote_devices
 .data          0x200003b0        0x1 C:\9047software\PSoC Creator\3.3\PSoC Creator\psoc\content\cycomponentlibrary\CyComponentLibrary.cylib\BLE_v2_0\Library\gccCyBLEStack_BLE_SOC_PERIPHERAL.a(hci_init.o)
                0x200003b0                hci_le_device_role
 .data          0x200003b1        0x6 C:\9047software\PSoC Creator\3.3\PSoC Creator\psoc\content\cycomponentlibrary\CyComponentLibrary.cylib\BLE_v2_0\Library\gccCyBLEStack_BLE_SOC_PERIPHERAL.a(hci_init.o)
                0x200003b1                hci_random_address
 .data          0x200003b7        0x6 C:\9047software\PSoC Creator\3.3\PSoC Creator\psoc\content\cycomponentlibrary\CyComponentLibrary.cylib\BLE_v2_0\Library\gccCyBLEStack_BLE_SOC_PERIPHERAL.a(hci_init.o)
                0x200003b7                hci_config_random_address
 .data          0x200003bd        0x1 C:\9047software\PSoC Creator\3.3\PSoC Creator\psoc\content\cycomponentlibrary\CyComponentLibrary.cylib\BLE_v2_0\Library\gccCyBLEStack_BLE_SOC_PERIPHERAL.a(hci_init.o)
                0x200003bd                hci_adv_addr_type
 .data          0x200003be        0x1 C:\9047software\PSoC Creator\3.3\PSoC Creator\psoc\content\cycomponentlibrary\CyComponentLibrary.cylib\BLE_v2_0\Library\gccCyBLEStack_BLE_SOC_PERIPHERAL.a(hci_init.o)
                0x200003be                hci_config_adv_addr_type
 *fill*         0x200003bf        0x1 
 .data          0x200003c0        0x4 C:\9047software\PSoC Creator\3.3\PSoC Creator\psoc\content\cycomponentlibrary\CyComponentLibrary.cylib\BLE_v2_0\Library\gccCyBLEStack_BLE_SOC_PERIPHERAL.a(smp_api.o)
 .data          0x200003c4        0x8 C:\9047software\PSoC Creator\3.3\PSoC Creator\psoc\content\cycomponentlibrary\CyComponentLibrary.cylib\BLE_v2_0\Library\gccCyBLEStack_BLE_SOC_PERIPHERAL.a(smp_init.o)
                0x200003c4                tbx_context
                0x200003c5                smp_resolution_index
                0x200003c8                smp_ui_notify
 .data          0x200003cc        0x6 C:\9047software\PSoC Creator\3.3\PSoC Creator\psoc\content\cycomponentlibrary\CyComponentLibrary.cylib\BLE_v2_0\Library\gccCyBLEStack_BLE_SOC_PERIPHERAL.a(smp_init.o)
                0x200003cc                smp_resolution_addr
 *fill*         0x200003d2        0x2 
 .data          0x200003d4        0x8 C:\9047software\PSoC Creator\3.3\PSoC Creator\psoc\content\cycomponentlibrary\CyComponentLibrary.cylib\BLE_v2_0\Library\gccCyBLEStack_BLE_SOC_PERIPHERAL.a(write_task.o)
                0x200003d4                wt_state
 .data          0x200003dc        0x8 C:\9047software\PSoC Creator\3.3\PSoC Creator\psoc\content\cycomponentlibrary\CyComponentLibrary.cylib\BLE_v2_0\Library\gccCyBLEStack_BLE_SOC_PERIPHERAL.a(aes_cmac.o)
 .data          0x200003e4        0x4 C:\9047software\PSoC Creator\3.3\PSoC Creator\psoc\content\cycomponentlibrary\CyComponentLibrary.cylib\BLE_v2_0\Library\gccCyBLEStack_BLE_SOC_PERIPHERAL.a(status.o)
 .data          0x200003e8        0xc C:\9047software\PSoC Creator\3.3\PSoC Creator\psoc\content\cycomponentlibrary\CyComponentLibrary.cylib\BLE_v2_0\Library\gccCyBLEStack_BLE_SOC_PERIPHERAL.a(storage_pl.o)
                0x200003ec                g_sp_storage_wr_offset
                0x200003f0                g_sp_storage_rd_offset
 .data          0x200003f4        0x4 C:\9047software\PSoC Creator\3.3\PSoC Creator\psoc\content\cycomponentlibrary\CyComponentLibrary.cylib\BLE_v2_0\Library\gccCyBLEStack_BLE_SOC_PERIPHERAL.a(drbg.o)
                0x200003f4                input_entropy
 .data          0x200003f8       0x20 C:\9047software\PSoC Creator\3.3\PSoC Creator\psoc\content\cycomponentlibrary\CyComponentLibrary.cylib\BLE_v2_0\Library\gccCyBLEStack_BLE_SOC_PERIPHERAL.a(bt_fw_os_al.o)
                0x200003f8                le_acl_tx_data_pool_handle
                0x200003fc                le_acl_rx_data_pool_handle
                0x20000400                ll_pdu_tx_buffer_pool_handle
                0x20000404                ll_pdu_rx_buffer_pool_handle
                0x20000408                hci_le_cmd_buffer_pool_handle
                0x2000040c                hci_le_event_buffer_pool_type1_handle
                0x20000410                hci_le_event_buffer_pool_type2_handle
                0x20000414                ll_txn_buffer_pool_handle
 .data          0x20000418       0x45 C:\9047software\PSoC Creator\3.3\PSoC Creator\psoc\content\cycomponentlibrary\CyComponentLibrary.cylib\BLE_v2_0\Library\gccCyBLEStack_BLE_SOC_PERIPHERAL.a(smp_pl.o)
                0x20000418                smp_io_capability_pl
                0x2000041b                smp_rank_count_pl
 .data          0x2000045d        0x1 C:\9047software\PSoC Creator\3.3\PSoC Creator\psoc\content\cycomponentlibrary\CyComponentLibrary.cylib\BLE_v2_0\Library\gccCyBLEStack_BLE_SOC_PERIPHERAL.a(gattDbInternal.o)
                0x2000045d                gAuthorize
                0x20000460                . = ALIGN (0x8)
 *fill*         0x2000045e        0x2 
 *(.ram)
                0x20000460                _edata = .

.igot.plt       0x20000460        0x0 load address 0x000135d8
 .igot.plt      0x00000000        0x0 c:/9047software/psoc creator/3.3/psoc creator/import/gnu/arm/4.9.3/bin/../lib/gcc/arm-none-eabi/4.9.3/armv6-m/crtbegin.o

.bss            0x20000460     0x1980 load address 0x000135d8
                0x20000460                PROVIDE (__bss_start__, .)
 *(.shbss)
 *(.bss .bss.* .gnu.linkonce.b.*)
 .bss           0x20000460       0x1c c:/9047software/psoc creator/3.3/psoc creator/import/gnu/arm/4.9.3/bin/../lib/gcc/arm-none-eabi/4.9.3/armv6-m/crtbegin.o
 .bss           0x2000047c        0x8 .\CortexM0\ARM_GCC_493\Debug\main.o
 .bss           0x20000484        0xc .\CortexM0\ARM_GCC_493\Debug\HeartRateProcessing.o
                0x20000484                heartRate
 .bss           0x20000490        0xc .\CortexM0\ARM_GCC_493\Debug\BleProcessing.o
                0x20000491                enterHibernateFlag
                0x20000494                timestampWhenConnected
                0x20000498                connParamRequestState
 .bss           0x2000049c        0x4 .\CortexM0\ARM_GCC_493\Debug\WatchdogTimer.o
 .bss           0x200004a0        0x4 .\CortexM0\ARM_GCC_493\Debug\BLE Lab 3.a(BLE_hrs.o)
 .bss           0x200004a4        0x1 .\CortexM0\ARM_GCC_493\Debug\BLE Lab 3.a(BLE.o)
                0x200004a4                cyBle_initVar
 *fill*         0x200004a5        0x3 
 .bss           0x200004a8        0x8 .\CortexM0\ARM_GCC_493\Debug\BLE Lab 3.a(Opamp.o)
                0x200004a8                Opamp_initVar
 .bss           0x200004b0        0x1 .\CortexM0\ARM_GCC_493\Debug\BLE Lab 3.a(ADC.o)
                0x200004b0                ADC_initVar
 *fill*         0x200004b1        0x3 
 .bss           0x200004b4        0x4 .\CortexM0\ARM_GCC_493\Debug\BLE Lab 3.a(ADC_PM.o)
 .bss           0x200004b8        0xc C:\9047software\PSoC Creator\3.3\PSoC Creator\psoc\content\cycomponentlibrary\CyComponentLibrary.cylib\BLE_v2_0\Library\gccCyBLEStack_BLE_SOC_PERIPHERAL.a(CyBleStackMgrIP_Interface.o)
                0x200004b8                cyBleStackHeap
 .bss           0x200004c4        0xc C:\9047software\PSoC Creator\3.3\PSoC Creator\psoc\content\cycomponentlibrary\CyComponentLibrary.cylib\BLE_v2_0\Library\gccCyBLEStack_BLE_SOC_PERIPHERAL.a(transport_sf.o)
 .bss           0x200004d0       0x10 C:\9047software\PSoC Creator\3.3\PSoC Creator\psoc\content\cycomponentlibrary\CyComponentLibrary.cylib\BLE_v2_0\Library\gccCyBLEStack_BLE_SOC_PERIPHERAL.a(CyBleStackMgr_PSoCHal.o)
                0x200004d0                cyBleStackTimer
 .bss           0x200004e0      0x130 C:\9047software\PSoC Creator\3.3\PSoC Creator\psoc\content\cycomponentlibrary\CyComponentLibrary.cylib\BLE_v2_0\Library\gccCyBLEStack_BLE_SOC_PERIPHERAL.a(mint_os.o)
                0x200005e0                g_queue_array
                0x200005f4                g_task_array
 .bss           0x20000610       0x54 C:\9047software\PSoC Creator\3.3\PSoC Creator\psoc\content\cycomponentlibrary\CyComponentLibrary.cylib\BLE_v2_0\Library\gccCyBLEStack_BLE_SOC_PERIPHERAL.a(CyBleControllerIP_Interface.o)
                0x20000610                bt_config
 .bss           0x20000664       0xbc C:\9047software\PSoC Creator\3.3\PSoC Creator\psoc\content\cycomponentlibrary\CyComponentLibrary.cylib\BLE_v2_0\Library\gccCyBLEStack_BLE_SOC_PERIPHERAL.a(ll.o)
                0x20000664                ll_self_device_data
                0x20000714                lec_self_device_data
 .bss           0x20000720       0x30 C:\9047software\PSoC Creator\3.3\PSoC Creator\psoc\content\cycomponentlibrary\CyComponentLibrary.cylib\BLE_v2_0\Library\gccCyBLEStack_BLE_SOC_PERIPHERAL.a(ll_utils.o)
                0x20000720                g_lec_event_buffer
 .bss           0x20000750      0x168 C:\9047software\PSoC Creator\3.3\PSoC Creator\psoc\content\cycomponentlibrary\CyComponentLibrary.cylib\BLE_v2_0\Library\gccCyBLEStack_BLE_SOC_PERIPHERAL.a(llf_task.o)
 .bss           0x200008b8       0x24 C:\9047software\PSoC Creator\3.3\PSoC Creator\psoc\content\cycomponentlibrary\CyComponentLibrary.cylib\BLE_v2_0\Library\gccCyBLEStack_BLE_SOC_PERIPHERAL.a(lec_hci_le.o)
                0x200008b8                g_lec_command_array
 .bss           0x200008dc       0x38 C:\9047software\PSoC Creator\3.3\PSoC Creator\psoc\content\cycomponentlibrary\CyComponentLibrary.cylib\BLE_v2_0\Library\gccCyBLEStack_BLE_SOC_PERIPHERAL.a(lec_hci_le_utils.o)
                0x200008dc                hci_received_data_Q
 .bss           0x20000914       0x64 C:\9047software\PSoC Creator\3.3\PSoC Creator\psoc\content\cycomponentlibrary\CyComponentLibrary.cylib\BLE_v2_0\Library\gccCyBLEStack_BLE_SOC_PERIPHERAL.a(hci_td_api.o)
                0x20000914                hci_td_struct
 .bss           0x20000978        0xc C:\9047software\PSoC Creator\3.3\PSoC Creator\psoc\content\cycomponentlibrary\CyComponentLibrary.cylib\BLE_v2_0\Library\gccCyBLEStack_BLE_SOC_PERIPHERAL.a(att_init.o)
                0x20000978                att_connections
 .bss           0x20000984       0x46 C:\9047software\PSoC Creator\3.3\PSoC Creator\psoc\content\cycomponentlibrary\CyComponentLibrary.cylib\BLE_v2_0\Library\gccCyBLEStack_BLE_SOC_PERIPHERAL.a(device_queue.o)
                0x20000984                device_queue
 *fill*         0x200009ca        0x2 
 .bss           0x200009cc      0x14c C:\9047software\PSoC Creator\3.3\PSoC Creator\psoc\content\cycomponentlibrary\CyComponentLibrary.cylib\BLE_v2_0\Library\gccCyBLEStack_BLE_SOC_PERIPHERAL.a(l2cap_init.o)
                0x200009cc                l2cap_sigch_list
                0x200009e4                l2cap_buffer_list
                0x20000aac                l2cap_tx_pdu
                0x20000abc                l2cap_fixed_channel
                0x20000ad4                l2cap_command_list
 .bss           0x20000b18       0x91 C:\9047software\PSoC Creator\3.3\PSoC Creator\psoc\content\cycomponentlibrary\CyComponentLibrary.cylib\BLE_v2_0\Library\gccCyBLEStack_BLE_SOC_PERIPHERAL.a(gap.o)
                0x20000b99                gLocalCsrk
 *fill*         0x20000ba9        0x3 
 .bss           0x20000bac       0x18 C:\9047software\PSoC Creator\3.3\PSoC Creator\psoc\content\cycomponentlibrary\CyComponentLibrary.cylib\BLE_v2_0\Library\gccCyBLEStack_BLE_SOC_PERIPHERAL.a(gatt.o)
                0x20000bac                gSignedWriteWithoutRspParam
 .bss           0x20000bc4        0xc C:\9047software\PSoC Creator\3.3\PSoC Creator\psoc\content\cycomponentlibrary\CyComponentLibrary.cylib\BLE_v2_0\Library\gccCyBLEStack_BLE_SOC_PERIPHERAL.a(gatt.o)
                0x20000bc4                gSignature
 .bss           0x20000bd0       0x5c C:\9047software\PSoC Creator\3.3\PSoC Creator\psoc\content\cycomponentlibrary\CyComponentLibrary.cylib\BLE_v2_0\Library\gccCyBLEStack_BLE_SOC_PERIPHERAL.a(gattClient.o)
 .bss           0x20000c2c       0xa0 C:\9047software\PSoC Creator\3.3\PSoC Creator\psoc\content\cycomponentlibrary\CyComponentLibrary.cylib\BLE_v2_0\Library\gccCyBLEStack_BLE_SOC_PERIPHERAL.a(gattServer.o)
 .bss           0x20000ccc       0x40 C:\9047software\PSoC Creator\3.3\PSoC Creator\psoc\content\cycomponentlibrary\CyComponentLibrary.cylib\BLE_v2_0\Library\gccCyBLEStack_BLE_SOC_PERIPHERAL.a(gattDbHandler.o)
                0x20000ccc                GattDbAttrStatusBitMask
 .bss           0x20000d0c       0x40 C:\9047software\PSoC Creator\3.3\PSoC Creator\psoc\content\cycomponentlibrary\CyComponentLibrary.cylib\BLE_v2_0\Library\gccCyBLEStack_BLE_SOC_PERIPHERAL.a(hci_events.o)
 .bss           0x20000d4c       0x10 C:\9047software\PSoC Creator\3.3\PSoC Creator\psoc\content\cycomponentlibrary\CyComponentLibrary.cylib\BLE_v2_0\Library\gccCyBLEStack_BLE_SOC_PERIPHERAL.a(hci_init.o)
                0x20000d4c                hci_command_queue
 .bss           0x20000d5c      0x248 C:\9047software\PSoC Creator\3.3\PSoC Creator\psoc\content\cycomponentlibrary\CyComponentLibrary.cylib\BLE_v2_0\Library\gccCyBLEStack_BLE_SOC_PERIPHERAL.a(smp_init.o)
                0x20000d5c                smp_devices
                0x20000f50                smp_pvt_addr
                0x20000f64                smp_cmac_context
 .bss           0x20000fa4       0x6c C:\9047software\PSoC Creator\3.3\PSoC Creator\psoc\content\cycomponentlibrary\CyComponentLibrary.cylib\BLE_v2_0\Library\gccCyBLEStack_BLE_SOC_PERIPHERAL.a(smp_init.o)
                0x20000fa4                smp_context
 .bss           0x20001010       0x58 C:\9047software\PSoC Creator\3.3\PSoC Creator\psoc\content\cycomponentlibrary\CyComponentLibrary.cylib\BLE_v2_0\Library\gccCyBLEStack_BLE_SOC_PERIPHERAL.a(write_task.o)
 .bss           0x20001068       0x10 C:\9047software\PSoC Creator\3.3\PSoC Creator\psoc\content\cycomponentlibrary\CyComponentLibrary.cylib\BLE_v2_0\Library\gccCyBLEStack_BLE_SOC_PERIPHERAL.a(storage.o)
 .bss           0x20001078       0x30 C:\9047software\PSoC Creator\3.3\PSoC Creator\psoc\content\cycomponentlibrary\CyComponentLibrary.cylib\BLE_v2_0\Library\gccCyBLEStack_BLE_SOC_PERIPHERAL.a(BT_timer.o)
                0x20001078                timer_entity
 .bss           0x200010a8      0x1a0 C:\9047software\PSoC Creator\3.3\PSoC Creator\psoc\content\cycomponentlibrary\CyComponentLibrary.cylib\BLE_v2_0\Library\gccCyBLEStack_BLE_SOC_PERIPHERAL.a(storage_pl.o)
                0x200010a8                p_sp_ram_storage
                0x20001218                flashBlocks
 .bss           0x20001248       0xbc C:\9047software\PSoC Creator\3.3\PSoC Creator\psoc\content\cycomponentlibrary\CyComponentLibrary.cylib\BLE_v2_0\Library\gccCyBLEStack_BLE_SOC_PERIPHERAL.a(drbg.o)
                0x20001248                gbuffin
                0x20001264                gbuffout
                0x200012a4                g_buffer3
                0x200012e4                g_buffer4
 .bss           0x20001304       0x4b C:\9047software\PSoC Creator\3.3\PSoC Creator\psoc\content\cycomponentlibrary\CyComponentLibrary.cylib\BLE_v2_0\Library\gccCyBLEStack_BLE_SOC_PERIPHERAL.a(smp_pl.o)
 *(COMMON)
 *fill*         0x2000134f        0x1 
 COMMON         0x20001350      0xa74 .\CortexM0\ARM_GCC_493\Debug\BLE Lab 3.a(BLE.o)
                0x20001350                CyBle_ApplCallback
                0x20001358                cyBle_stackMemoryRam
 COMMON         0x20001dc4        0x5 .\CortexM0\ARM_GCC_493\Debug\BLE Lab 3.a(BLE_gatt.o)
                0x20001dc4                cyBle_attValuesCCCD
                0x20001dc8                cyBle_state
 *fill*         0x20001dc9        0x3 
 COMMON         0x20001dcc        0x8 .\CortexM0\ARM_GCC_493\Debug\BLE Lab 3.a(BLE_eventHandler.o)
                0x20001dcc                cyBle_busyStatus
                0x20001dd0                cyBle_connHandle
                0x20001dd2                cyBle_advertisingIntervalType
                0x20001dd3                cyBle_eventHandlerFlag
 COMMON         0x20001dd4        0x6 .\CortexM0\ARM_GCC_493\Debug\BLE Lab 3.a(ADC.o)
                0x20001dd4                ADC_countsPer10Volt
                0x20001dd8                ADC_offset
                0x20001de0                . = ALIGN (0x8)
 *fill*         0x20001dda        0x6 
 *(.ram.b)
                0x20001de0                _end = .
                0x20001de0                __end = .
                0x20001de0                PROVIDE (end, .)
                0x20001de0                PROVIDE (__bss_end__, .)
                0x00013240                __cy_region_init_ram = LOADADDR (.data)
                0x00000398                __cy_region_init_size_ram = (_edata - ADDR (.data))
                0x00001980                __cy_region_zero_size_ram = (_end - _edata)

.heap           0x20001de0       0x80 load address 0x000135d8
                0x20001de0                . = _end
                0x20001e60                . = (. + 0x80)
 *fill*         0x20001de0       0x80 
                0x20001e60                __cy_heap_limit = .

.stack          0x20003c00      0x400
                0x20003c00                __cy_stack_limit = .
                0x20004000                . = (. + 0x400)
 *fill*         0x20003c00      0x400 
                0x00000001                ASSERT ((__cy_stack_limit >= __cy_heap_limit), region RAM overflowed with stack)

.cyloadermeta
 *(.cyloadermeta)

.cyloadablemeta
 *(.cyloadablemeta)

.cyflashprotect
                0x90400000       0x80
 *(.cyflashprotect)
 .cyflashprotect
                0x90400000       0x80 .\CortexM0\ARM_GCC_493\Debug\cymetadata.o
                0x90400000                cy_meta_flashprotect

.cymeta         0x90500000        0xc
 *(.cymeta)
 .cymeta        0x90500000        0xc .\CortexM0\ARM_GCC_493\Debug\cymetadata.o
                0x90500000                cy_metadata

.cychipprotect  0x90600000        0x4
 *(.cychipprotect)
 .cychipprotect
                0x90600000        0x4 .\CortexM0\ARM_GCC_493\Debug\cymetadata.o
                0x90600000                cy_meta_chipprotect

.rel.dyn        0x000135d8        0x0 load address 0x90600004
 .rel.iplt      0x00000000        0x0 c:/9047software/psoc creator/3.3/psoc creator/import/gnu/arm/4.9.3/bin/../lib/gcc/arm-none-eabi/4.9.3/armv6-m/crtbegin.o

.stab
 *(.stab)

.stabstr
 *(.stabstr)

.debug
 *(.debug)

.line
 *(.line)

.debug_srcinfo
 *(.debug_srcinfo)

.debug_sfnames
 *(.debug_sfnames)

.debug_aranges  0x00000000      0xa40
 *(.debug_aranges)
 .debug_aranges
                0x00000000       0x28 .\CortexM0\ARM_GCC_493\Debug\main.o
 .debug_aranges
                0x00000028       0x20 .\CortexM0\ARM_GCC_493\Debug\HeartRateProcessing.o
 .debug_aranges
                0x00000048       0x30 .\CortexM0\ARM_GCC_493\Debug\BleProcessing.o
 .debug_aranges
                0x00000078       0x30 .\CortexM0\ARM_GCC_493\Debug\WatchdogTimer.o
 .debug_aranges
                0x000000a8       0x18 .\CortexM0\ARM_GCC_493\Debug\cymetadata.o
 .debug_aranges
                0x000000c0       0x48 .\CortexM0\ARM_GCC_493\Debug\Cm0Start.o
 .debug_aranges
                0x00000108       0x58 .\CortexM0\ARM_GCC_493\Debug\BLE Lab 3.a(cyfitter_cfg.o)
 .debug_aranges
                0x00000160       0x40 .\CortexM0\ARM_GCC_493\Debug\BLE Lab 3.a(SW2_Switch.o)
 .debug_aranges
                0x000001a0       0x80 .\CortexM0\ARM_GCC_493\Debug\BLE Lab 3.a(Wakeup_ISR.o)
 .debug_aranges
                0x00000220       0x40 .\CortexM0\ARM_GCC_493\Debug\BLE Lab 3.a(Led_Advertising_Green.o)
 .debug_aranges
                0x00000260       0x40 .\CortexM0\ARM_GCC_493\Debug\BLE Lab 3.a(Led_Connected_Blue.o)
 .debug_aranges
                0x000002a0       0x50 .\CortexM0\ARM_GCC_493\Debug\BLE Lab 3.a(BLE_hrs.o)
 .debug_aranges
                0x000002f0       0x78 .\CortexM0\ARM_GCC_493\Debug\BLE Lab 3.a(BLE.o)
 .debug_aranges
                0x00000368       0x28 .\CortexM0\ARM_GCC_493\Debug\BLE Lab 3.a(BLE_gatt.o)
 .debug_aranges
                0x00000390       0x60 .\CortexM0\ARM_GCC_493\Debug\BLE Lab 3.a(BLE_eventHandler.o)
 .debug_aranges
                0x000003f0       0x38 .\CortexM0\ARM_GCC_493\Debug\BLE Lab 3.a(BLE_dis.o)
 .debug_aranges
                0x00000428       0x48 .\CortexM0\ARM_GCC_493\Debug\BLE Lab 3.a(Opamp.o)
 .debug_aranges
                0x00000470       0xa8 .\CortexM0\ARM_GCC_493\Debug\BLE Lab 3.a(ADC.o)
 .debug_aranges
                0x00000518       0x38 .\CortexM0\ARM_GCC_493\Debug\BLE Lab 3.a(ADC_PM.o)
 .debug_aranges
                0x00000550       0x20 .\CortexM0\ARM_GCC_493\Debug\BLE Lab 3.a(ADC_INT.o)
 .debug_aranges
                0x00000570       0x20 .\CortexM0\ARM_GCC_493\Debug\BLE Lab 3.a(CyBootAsmGnu.o)
 .debug_aranges
                0x00000590      0x198 .\CortexM0\ARM_GCC_493\Debug\BLE Lab 3.a(CyLib.o)
 .debug_aranges
                0x00000728       0x58 .\CortexM0\ARM_GCC_493\Debug\BLE Lab 3.a(cyPm.o)
 .debug_aranges
                0x00000780      0x160 .\CortexM0\ARM_GCC_493\Debug\BLE Lab 3.a(CyLFClk.o)
 .debug_aranges
                0x000008e0       0x80 .\CortexM0\ARM_GCC_493\Debug\BLE Lab 3.a(BLE_HAL_PVT.o)
 .debug_aranges
                0x00000960       0x80 .\CortexM0\ARM_GCC_493\Debug\BLE Lab 3.a(BLE_bless_isr.o)
 .debug_aranges
                0x000009e0       0x40 .\CortexM0\ARM_GCC_493\Debug\BLE Lab 3.a(CyFlash.o)
 .debug_aranges
                0x00000a20       0x20 .\CortexM0\ARM_GCC_493\Debug\BLE Lab 3.a(BLE_HAL_INT.o)

.debug_pubnames
 *(.debug_pubnames)

.debug_info     0x00000000     0x8026
 *(.debug_info .gnu.linkonce.wi.*)
 .debug_info    0x00000000      0x189 .\CortexM0\ARM_GCC_493\Debug\main.o
 .debug_info    0x00000189      0x322 .\CortexM0\ARM_GCC_493\Debug\HeartRateProcessing.o
 .debug_info    0x000004ab      0xb13 .\CortexM0\ARM_GCC_493\Debug\BleProcessing.o
 .debug_info    0x00000fbe      0x2c6 .\CortexM0\ARM_GCC_493\Debug\WatchdogTimer.o
 .debug_info    0x00001284       0xfd .\CortexM0\ARM_GCC_493\Debug\cymetadata.o
 .debug_info    0x00001381      0x2fe .\CortexM0\ARM_GCC_493\Debug\Cm0Start.o
 .debug_info    0x0000167f      0x388 .\CortexM0\ARM_GCC_493\Debug\BLE Lab 3.a(cyfitter_cfg.o)
 .debug_info    0x00001a07      0x14c .\CortexM0\ARM_GCC_493\Debug\BLE Lab 3.a(SW2_Switch.o)
 .debug_info    0x00001b53      0x244 .\CortexM0\ARM_GCC_493\Debug\BLE Lab 3.a(Wakeup_ISR.o)
 .debug_info    0x00001d97      0x14c .\CortexM0\ARM_GCC_493\Debug\BLE Lab 3.a(Led_Advertising_Green.o)
 .debug_info    0x00001ee3      0x14c .\CortexM0\ARM_GCC_493\Debug\BLE Lab 3.a(Led_Connected_Blue.o)
 .debug_info    0x0000202f     0x108f .\CortexM0\ARM_GCC_493\Debug\BLE Lab 3.a(BLE_hrs.o)
 .debug_info    0x000030be      0xaa5 .\CortexM0\ARM_GCC_493\Debug\BLE Lab 3.a(BLE.o)
 .debug_info    0x00003b63      0xec3 .\CortexM0\ARM_GCC_493\Debug\BLE Lab 3.a(BLE_gatt.o)
 .debug_info    0x00004a26      0xad6 .\CortexM0\ARM_GCC_493\Debug\BLE Lab 3.a(BLE_eventHandler.o)
 .debug_info    0x000054fc      0x623 .\CortexM0\ARM_GCC_493\Debug\BLE Lab 3.a(BLE_dis.o)
 .debug_info    0x00005b1f      0x164 .\CortexM0\ARM_GCC_493\Debug\BLE Lab 3.a(Opamp.o)
 .debug_info    0x00005c83      0x474 .\CortexM0\ARM_GCC_493\Debug\BLE Lab 3.a(ADC.o)
 .debug_info    0x000060f7      0x124 .\CortexM0\ARM_GCC_493\Debug\BLE Lab 3.a(ADC_PM.o)
 .debug_info    0x0000621b       0xc4 .\CortexM0\ARM_GCC_493\Debug\BLE Lab 3.a(ADC_INT.o)
 .debug_info    0x000062df       0x8d .\CortexM0\ARM_GCC_493\Debug\BLE Lab 3.a(CyBootAsmGnu.o)
 .debug_info    0x0000636c      0x926 .\CortexM0\ARM_GCC_493\Debug\BLE Lab 3.a(CyLib.o)
 .debug_info    0x00006c92      0x1fd .\CortexM0\ARM_GCC_493\Debug\BLE Lab 3.a(cyPm.o)
 .debug_info    0x00006e8f      0x84a .\CortexM0\ARM_GCC_493\Debug\BLE Lab 3.a(CyLFClk.o)
 .debug_info    0x000076d9      0x3e0 .\CortexM0\ARM_GCC_493\Debug\BLE Lab 3.a(BLE_HAL_PVT.o)
 .debug_info    0x00007ab9      0x244 .\CortexM0\ARM_GCC_493\Debug\BLE Lab 3.a(BLE_bless_isr.o)
 .debug_info    0x00007cfd      0x290 .\CortexM0\ARM_GCC_493\Debug\BLE Lab 3.a(CyFlash.o)
 .debug_info    0x00007f8d       0x99 .\CortexM0\ARM_GCC_493\Debug\BLE Lab 3.a(BLE_HAL_INT.o)

.debug_abbrev   0x00000000     0x1ef4
 *(.debug_abbrev)
 .debug_abbrev  0x00000000       0xaa .\CortexM0\ARM_GCC_493\Debug\main.o
 .debug_abbrev  0x000000aa       0x87 .\CortexM0\ARM_GCC_493\Debug\HeartRateProcessing.o
 .debug_abbrev  0x00000131      0x121 .\CortexM0\ARM_GCC_493\Debug\BleProcessing.o
 .debug_abbrev  0x00000252       0x8e .\CortexM0\ARM_GCC_493\Debug\WatchdogTimer.o
 .debug_abbrev  0x000002e0       0x5d .\CortexM0\ARM_GCC_493\Debug\cymetadata.o
 .debug_abbrev  0x0000033d      0x1a5 .\CortexM0\ARM_GCC_493\Debug\Cm0Start.o
 .debug_abbrev  0x000004e2      0x19d .\CortexM0\ARM_GCC_493\Debug\BLE Lab 3.a(cyfitter_cfg.o)
 .debug_abbrev  0x0000067f       0xb7 .\CortexM0\ARM_GCC_493\Debug\BLE Lab 3.a(SW2_Switch.o)
 .debug_abbrev  0x00000736      0x177 .\CortexM0\ARM_GCC_493\Debug\BLE Lab 3.a(Wakeup_ISR.o)
 .debug_abbrev  0x000008ad       0xb7 .\CortexM0\ARM_GCC_493\Debug\BLE Lab 3.a(Led_Advertising_Green.o)
 .debug_abbrev  0x00000964       0xb7 .\CortexM0\ARM_GCC_493\Debug\BLE Lab 3.a(Led_Connected_Blue.o)
 .debug_abbrev  0x00000a1b      0x1e1 .\CortexM0\ARM_GCC_493\Debug\BLE Lab 3.a(BLE_hrs.o)
 .debug_abbrev  0x00000bfc      0x214 .\CortexM0\ARM_GCC_493\Debug\BLE Lab 3.a(BLE.o)
 .debug_abbrev  0x00000e10      0x164 .\CortexM0\ARM_GCC_493\Debug\BLE Lab 3.a(BLE_gatt.o)
 .debug_abbrev  0x00000f74      0x1fa .\CortexM0\ARM_GCC_493\Debug\BLE Lab 3.a(BLE_eventHandler.o)
 .debug_abbrev  0x0000116e      0x164 .\CortexM0\ARM_GCC_493\Debug\BLE Lab 3.a(BLE_dis.o)
 .debug_abbrev  0x000012d2       0xd3 .\CortexM0\ARM_GCC_493\Debug\BLE Lab 3.a(Opamp.o)
 .debug_abbrev  0x000013a5      0x170 .\CortexM0\ARM_GCC_493\Debug\BLE Lab 3.a(ADC.o)
 .debug_abbrev  0x00001515       0xa6 .\CortexM0\ARM_GCC_493\Debug\BLE Lab 3.a(ADC_PM.o)
 .debug_abbrev  0x000015bb       0x72 .\CortexM0\ARM_GCC_493\Debug\BLE Lab 3.a(ADC_INT.o)
 .debug_abbrev  0x0000162d       0x14 .\CortexM0\ARM_GCC_493\Debug\BLE Lab 3.a(CyBootAsmGnu.o)
 .debug_abbrev  0x00001641      0x1a7 .\CortexM0\ARM_GCC_493\Debug\BLE Lab 3.a(CyLib.o)
 .debug_abbrev  0x000017e8       0xf8 .\CortexM0\ARM_GCC_493\Debug\BLE Lab 3.a(cyPm.o)
 .debug_abbrev  0x000018e0      0x224 .\CortexM0\ARM_GCC_493\Debug\BLE Lab 3.a(CyLFClk.o)
 .debug_abbrev  0x00001b04      0x12f .\CortexM0\ARM_GCC_493\Debug\BLE Lab 3.a(BLE_HAL_PVT.o)
 .debug_abbrev  0x00001c33      0x177 .\CortexM0\ARM_GCC_493\Debug\BLE Lab 3.a(BLE_bless_isr.o)
 .debug_abbrev  0x00001daa      0x108 .\CortexM0\ARM_GCC_493\Debug\BLE Lab 3.a(CyFlash.o)
 .debug_abbrev  0x00001eb2       0x42 .\CortexM0\ARM_GCC_493\Debug\BLE Lab 3.a(BLE_HAL_INT.o)

.debug_line     0x00000000     0x2875
 *(.debug_line)
 .debug_line    0x00000000       0xcf .\CortexM0\ARM_GCC_493\Debug\main.o
 .debug_line    0x000000cf       0xa8 .\CortexM0\ARM_GCC_493\Debug\HeartRateProcessing.o
 .debug_line    0x00000177      0x139 .\CortexM0\ARM_GCC_493\Debug\BleProcessing.o
 .debug_line    0x000002b0       0xbf .\CortexM0\ARM_GCC_493\Debug\WatchdogTimer.o
 .debug_line    0x0000036f       0x53 .\CortexM0\ARM_GCC_493\Debug\cymetadata.o
 .debug_line    0x000003c2      0x1b9 .\CortexM0\ARM_GCC_493\Debug\Cm0Start.o
 .debug_line    0x0000057b      0x1af .\CortexM0\ARM_GCC_493\Debug\BLE Lab 3.a(cyfitter_cfg.o)
 .debug_line    0x0000072a       0xb0 .\CortexM0\ARM_GCC_493\Debug\BLE Lab 3.a(SW2_Switch.o)
 .debug_line    0x000007da      0x172 .\CortexM0\ARM_GCC_493\Debug\BLE Lab 3.a(Wakeup_ISR.o)
 .debug_line    0x0000094c       0xbb .\CortexM0\ARM_GCC_493\Debug\BLE Lab 3.a(Led_Advertising_Green.o)
 .debug_line    0x00000a07       0xb8 .\CortexM0\ARM_GCC_493\Debug\BLE Lab 3.a(Led_Connected_Blue.o)
 .debug_line    0x00000abf      0x1c0 .\CortexM0\ARM_GCC_493\Debug\BLE Lab 3.a(BLE_hrs.o)
 .debug_line    0x00000c7f      0x26c .\CortexM0\ARM_GCC_493\Debug\BLE Lab 3.a(BLE.o)
 .debug_line    0x00000eeb      0x117 .\CortexM0\ARM_GCC_493\Debug\BLE Lab 3.a(BLE_gatt.o)
 .debug_line    0x00001002      0x233 .\CortexM0\ARM_GCC_493\Debug\BLE Lab 3.a(BLE_eventHandler.o)
 .debug_line    0x00001235       0xf0 .\CortexM0\ARM_GCC_493\Debug\BLE Lab 3.a(BLE_dis.o)
 .debug_line    0x00001325       0xc3 .\CortexM0\ARM_GCC_493\Debug\BLE Lab 3.a(Opamp.o)
 .debug_line    0x000013e8      0x29c .\CortexM0\ARM_GCC_493\Debug\BLE Lab 3.a(ADC.o)
 .debug_line    0x00001684       0xad .\CortexM0\ARM_GCC_493\Debug\BLE Lab 3.a(ADC_PM.o)
 .debug_line    0x00001731       0x64 .\CortexM0\ARM_GCC_493\Debug\BLE Lab 3.a(ADC_INT.o)
 .debug_line    0x00001795       0x68 .\CortexM0\ARM_GCC_493\Debug\BLE Lab 3.a(CyBootAsmGnu.o)
 .debug_line    0x000017fd      0x491 .\CortexM0\ARM_GCC_493\Debug\BLE Lab 3.a(CyLib.o)
 .debug_line    0x00001c8e      0x124 .\CortexM0\ARM_GCC_493\Debug\BLE Lab 3.a(cyPm.o)
 .debug_line    0x00001db2      0x5ad .\CortexM0\ARM_GCC_493\Debug\BLE Lab 3.a(CyLFClk.o)
 .debug_line    0x0000235f      0x1c4 .\CortexM0\ARM_GCC_493\Debug\BLE Lab 3.a(BLE_HAL_PVT.o)
 .debug_line    0x00002523      0x175 .\CortexM0\ARM_GCC_493\Debug\BLE Lab 3.a(BLE_bless_isr.o)
 .debug_line    0x00002698      0x185 .\CortexM0\ARM_GCC_493\Debug\BLE Lab 3.a(CyFlash.o)
 .debug_line    0x0000281d       0x58 .\CortexM0\ARM_GCC_493\Debug\BLE Lab 3.a(BLE_HAL_INT.o)

.debug_frame    0x00000000    0x158e0
 *(.debug_frame)
 .debug_frame   0x00000000       0x50 .\CortexM0\ARM_GCC_493\Debug\main.o
 .debug_frame   0x00000050       0x34 .\CortexM0\ARM_GCC_493\Debug\HeartRateProcessing.o
 .debug_frame   0x00000084       0x74 .\CortexM0\ARM_GCC_493\Debug\BleProcessing.o
 .debug_frame   0x000000f8       0x64 .\CortexM0\ARM_GCC_493\Debug\WatchdogTimer.o
 .debug_frame   0x0000015c       0xc8 .\CortexM0\ARM_GCC_493\Debug\Cm0Start.o
 .debug_frame   0x00000224      0x108 .\CortexM0\ARM_GCC_493\Debug\BLE Lab 3.a(cyfitter_cfg.o)
 .debug_frame   0x0000032c       0xa8 .\CortexM0\ARM_GCC_493\Debug\BLE Lab 3.a(SW2_Switch.o)
 .debug_frame   0x000003d4      0x190 .\CortexM0\ARM_GCC_493\Debug\BLE Lab 3.a(Wakeup_ISR.o)
 .debug_frame   0x00000564       0xa8 .\CortexM0\ARM_GCC_493\Debug\BLE Lab 3.a(Led_Advertising_Green.o)
 .debug_frame   0x0000060c       0xa8 .\CortexM0\ARM_GCC_493\Debug\BLE Lab 3.a(Led_Connected_Blue.o)
 .debug_frame   0x000006b4       0xf8 .\CortexM0\ARM_GCC_493\Debug\BLE Lab 3.a(BLE_hrs.o)
 .debug_frame   0x000007ac      0x190 .\CortexM0\ARM_GCC_493\Debug\BLE Lab 3.a(BLE.o)
 .debug_frame   0x0000093c       0x58 .\CortexM0\ARM_GCC_493\Debug\BLE Lab 3.a(BLE_gatt.o)
 .debug_frame   0x00000994      0x12c .\CortexM0\ARM_GCC_493\Debug\BLE Lab 3.a(BLE_eventHandler.o)
 .debug_frame   0x00000ac0       0x8c .\CortexM0\ARM_GCC_493\Debug\BLE Lab 3.a(BLE_dis.o)
 .debug_frame   0x00000b4c       0xc0 .\CortexM0\ARM_GCC_493\Debug\BLE Lab 3.a(Opamp.o)
 .debug_frame   0x00000c0c      0x248 .\CortexM0\ARM_GCC_493\Debug\BLE Lab 3.a(ADC.o)
 .debug_frame   0x00000e54       0x80 .\CortexM0\ARM_GCC_493\Debug\BLE Lab 3.a(ADC_PM.o)
 .debug_frame   0x00000ed4       0x30 .\CortexM0\ARM_GCC_493\Debug\BLE Lab 3.a(ADC_INT.o)
 .debug_frame   0x00000f04      0x5e0 .\CortexM0\ARM_GCC_493\Debug\BLE Lab 3.a(CyLib.o)
 .debug_frame   0x000014e4      0x124 .\CortexM0\ARM_GCC_493\Debug\BLE Lab 3.a(cyPm.o)
 .debug_frame   0x00001608      0x51c .\CortexM0\ARM_GCC_493\Debug\BLE Lab 3.a(CyLFClk.o)
 .debug_frame   0x00001b24       0x44 C:\9047software\PSoC Creator\3.3\PSoC Creator\psoc\content\cycomponentlibrary\CyComponentLibrary.cylib\BLE_v2_0\Library\gccCyBLEStack_BLE_SOC_PERIPHERAL.a(CyBle.o)
 .debug_frame   0x00001b68       0x54 C:\9047software\PSoC Creator\3.3\PSoC Creator\psoc\content\cycomponentlibrary\CyComponentLibrary.cylib\BLE_v2_0\Library\gccCyBLEStack_BLE_SOC_PERIPHERAL.a(CyBle.o)
 .debug_frame   0x00001bbc       0x44 C:\9047software\PSoC Creator\3.3\PSoC Creator\psoc\content\cycomponentlibrary\CyComponentLibrary.cylib\BLE_v2_0\Library\gccCyBLEStack_BLE_SOC_PERIPHERAL.a(CyBle.o)
 .debug_frame   0x00001c00       0x44 C:\9047software\PSoC Creator\3.3\PSoC Creator\psoc\content\cycomponentlibrary\CyComponentLibrary.cylib\BLE_v2_0\Library\gccCyBLEStack_BLE_SOC_PERIPHERAL.a(CyBle.o)
 .debug_frame   0x00001c44       0x44 C:\9047software\PSoC Creator\3.3\PSoC Creator\psoc\content\cycomponentlibrary\CyComponentLibrary.cylib\BLE_v2_0\Library\gccCyBLEStack_BLE_SOC_PERIPHERAL.a(CyBle.o)
 .debug_frame   0x00001c88       0x44 C:\9047software\PSoC Creator\3.3\PSoC Creator\psoc\content\cycomponentlibrary\CyComponentLibrary.cylib\BLE_v2_0\Library\gccCyBLEStack_BLE_SOC_PERIPHERAL.a(CyBle.o)
 .debug_frame   0x00001ccc       0x44 C:\9047software\PSoC Creator\3.3\PSoC Creator\psoc\content\cycomponentlibrary\CyComponentLibrary.cylib\BLE_v2_0\Library\gccCyBLEStack_BLE_SOC_PERIPHERAL.a(CyBle.o)
 .debug_frame   0x00001d10       0x44 C:\9047software\PSoC Creator\3.3\PSoC Creator\psoc\content\cycomponentlibrary\CyComponentLibrary.cylib\BLE_v2_0\Library\gccCyBLEStack_BLE_SOC_PERIPHERAL.a(CyBle.o)
 .debug_frame   0x00001d54       0x3c C:\9047software\PSoC Creator\3.3\PSoC Creator\psoc\content\cycomponentlibrary\CyComponentLibrary.cylib\BLE_v2_0\Library\gccCyBLEStack_BLE_SOC_PERIPHERAL.a(CyBle.o)
 .debug_frame   0x00001d90       0x3c C:\9047software\PSoC Creator\3.3\PSoC Creator\psoc\content\cycomponentlibrary\CyComponentLibrary.cylib\BLE_v2_0\Library\gccCyBLEStack_BLE_SOC_PERIPHERAL.a(CyBleStackMgrIP_Interface.o)
 .debug_frame   0x00001dcc       0x44 C:\9047software\PSoC Creator\3.3\PSoC Creator\psoc\content\cycomponentlibrary\CyComponentLibrary.cylib\BLE_v2_0\Library\gccCyBLEStack_BLE_SOC_PERIPHERAL.a(CyBleStackMgrIP_Interface.o)
 .debug_frame   0x00001e10       0x48 C:\9047software\PSoC Creator\3.3\PSoC Creator\psoc\content\cycomponentlibrary\CyComponentLibrary.cylib\BLE_v2_0\Library\gccCyBLEStack_BLE_SOC_PERIPHERAL.a(CyBleStackMgrIP_Interface.o)
 .debug_frame   0x00001e58       0x3c C:\9047software\PSoC Creator\3.3\PSoC Creator\psoc\content\cycomponentlibrary\CyComponentLibrary.cylib\BLE_v2_0\Library\gccCyBLEStack_BLE_SOC_PERIPHERAL.a(CyBleStackMgrIP_Interface.o)
 .debug_frame   0x00001e94       0x48 C:\9047software\PSoC Creator\3.3\PSoC Creator\psoc\content\cycomponentlibrary\CyComponentLibrary.cylib\BLE_v2_0\Library\gccCyBLEStack_BLE_SOC_PERIPHERAL.a(CyBleStackMgrIP_Interface.o)
 .debug_frame   0x00001edc       0x50 C:\9047software\PSoC Creator\3.3\PSoC Creator\psoc\content\cycomponentlibrary\CyComponentLibrary.cylib\BLE_v2_0\Library\gccCyBLEStack_BLE_SOC_PERIPHERAL.a(CyBleStackMgrIP_Interface.o)
 .debug_frame   0x00001f2c       0x44 C:\9047software\PSoC Creator\3.3\PSoC Creator\psoc\content\cycomponentlibrary\CyComponentLibrary.cylib\BLE_v2_0\Library\gccCyBLEStack_BLE_SOC_PERIPHERAL.a(CyBleStackMgrIP_Interface.o)
 .debug_frame   0x00001f70       0x44 C:\9047software\PSoC Creator\3.3\PSoC Creator\psoc\content\cycomponentlibrary\CyComponentLibrary.cylib\BLE_v2_0\Library\gccCyBLEStack_BLE_SOC_PERIPHERAL.a(CyBleStackMgrIP_Interface.o)
 .debug_frame   0x00001fb4       0x50 C:\9047software\PSoC Creator\3.3\PSoC Creator\psoc\content\cycomponentlibrary\CyComponentLibrary.cylib\BLE_v2_0\Library\gccCyBLEStack_BLE_SOC_PERIPHERAL.a(CyBleStackMgrIP_Interface.o)
 .debug_frame   0x00002004       0x4c C:\9047software\PSoC Creator\3.3\PSoC Creator\psoc\content\cycomponentlibrary\CyComponentLibrary.cylib\BLE_v2_0\Library\gccCyBLEStack_BLE_SOC_PERIPHERAL.a(BT_os.o)
 .debug_frame   0x00002050       0x48 C:\9047software\PSoC Creator\3.3\PSoC Creator\psoc\content\cycomponentlibrary\CyComponentLibrary.cylib\BLE_v2_0\Library\gccCyBLEStack_BLE_SOC_PERIPHERAL.a(BT_os.o)
 .debug_frame   0x00002098       0x4c C:\9047software\PSoC Creator\3.3\PSoC Creator\psoc\content\cycomponentlibrary\CyComponentLibrary.cylib\BLE_v2_0\Library\gccCyBLEStack_BLE_SOC_PERIPHERAL.a(BT_os.o)
 .debug_frame   0x000020e4       0x44 C:\9047software\PSoC Creator\3.3\PSoC Creator\psoc\content\cycomponentlibrary\CyComponentLibrary.cylib\BLE_v2_0\Library\gccCyBLEStack_BLE_SOC_PERIPHERAL.a(BT_os.o)
 .debug_frame   0x00002128       0x44 C:\9047software\PSoC Creator\3.3\PSoC Creator\psoc\content\cycomponentlibrary\CyComponentLibrary.cylib\BLE_v2_0\Library\gccCyBLEStack_BLE_SOC_PERIPHERAL.a(BT_os.o)
 .debug_frame   0x0000216c       0x4c C:\9047software\PSoC Creator\3.3\PSoC Creator\psoc\content\cycomponentlibrary\CyComponentLibrary.cylib\BLE_v2_0\Library\gccCyBLEStack_BLE_SOC_PERIPHERAL.a(BT_os.o)
 .debug_frame   0x000021b8       0x44 C:\9047software\PSoC Creator\3.3\PSoC Creator\psoc\content\cycomponentlibrary\CyComponentLibrary.cylib\BLE_v2_0\Library\gccCyBLEStack_BLE_SOC_PERIPHERAL.a(BT_os.o)
 .debug_frame   0x000021fc       0x44 C:\9047software\PSoC Creator\3.3\PSoC Creator\psoc\content\cycomponentlibrary\CyComponentLibrary.cylib\BLE_v2_0\Library\gccCyBLEStack_BLE_SOC_PERIPHERAL.a(BT_os.o)
 .debug_frame   0x00002240       0x3c C:\9047software\PSoC Creator\3.3\PSoC Creator\psoc\content\cycomponentlibrary\CyComponentLibrary.cylib\BLE_v2_0\Library\gccCyBLEStack_BLE_SOC_PERIPHERAL.a(CyBleStackMgr_StackTaskHandler.o)
 .debug_frame   0x0000227c       0x48 C:\9047software\PSoC Creator\3.3\PSoC Creator\psoc\content\cycomponentlibrary\CyComponentLibrary.cylib\BLE_v2_0\Library\gccCyBLEStack_BLE_SOC_PERIPHERAL.a(CyBleStackMgr_StackTaskHandler.o)
 .debug_frame   0x000022c4       0x44 C:\9047software\PSoC Creator\3.3\PSoC Creator\psoc\content\cycomponentlibrary\CyComponentLibrary.cylib\BLE_v2_0\Library\gccCyBLEStack_BLE_SOC_PERIPHERAL.a(CyBleStackMgr_StackTaskHandler.o)
 .debug_frame   0x00002308       0x3c C:\9047software\PSoC Creator\3.3\PSoC Creator\psoc\content\cycomponentlibrary\CyComponentLibrary.cylib\BLE_v2_0\Library\gccCyBLEStack_BLE_SOC_PERIPHERAL.a(CyBleStackMgr_StackTaskHandler.o)
 .debug_frame   0x00002344       0x48 C:\9047software\PSoC Creator\3.3\PSoC Creator\psoc\content\cycomponentlibrary\CyComponentLibrary.cylib\BLE_v2_0\Library\gccCyBLEStack_BLE_SOC_PERIPHERAL.a(CyBleStackMgr_StackTaskHandler.o)
 .debug_frame   0x0000238c       0x48 C:\9047software\PSoC Creator\3.3\PSoC Creator\psoc\content\cycomponentlibrary\CyComponentLibrary.cylib\BLE_v2_0\Library\gccCyBLEStack_BLE_SOC_PERIPHERAL.a(CyBleStackMgr_StackTaskHandler.o)
                0x0000238c                __ARM_grp_.debug_frame$__ARM_common_switch8
 .debug_frame   0x000023d4       0x3c C:\9047software\PSoC Creator\3.3\PSoC Creator\psoc\content\cycomponentlibrary\CyComponentLibrary.cylib\BLE_v2_0\Library\gccCyBLEStack_BLE_SOC_PERIPHERAL.a(transport_sf.o)
 .debug_frame   0x00002410       0x48 C:\9047software\PSoC Creator\3.3\PSoC Creator\psoc\content\cycomponentlibrary\CyComponentLibrary.cylib\BLE_v2_0\Library\gccCyBLEStack_BLE_SOC_PERIPHERAL.a(transport_sf.o)
 .debug_frame   0x00002458       0x3c C:\9047software\PSoC Creator\3.3\PSoC Creator\psoc\content\cycomponentlibrary\CyComponentLibrary.cylib\BLE_v2_0\Library\gccCyBLEStack_BLE_SOC_PERIPHERAL.a(transport_sf.o)
 .debug_frame   0x00002494       0x3c C:\9047software\PSoC Creator\3.3\PSoC Creator\psoc\content\cycomponentlibrary\CyComponentLibrary.cylib\BLE_v2_0\Library\gccCyBLEStack_BLE_SOC_PERIPHERAL.a(transport_sf.o)
 .debug_frame   0x000024d0       0x3c C:\9047software\PSoC Creator\3.3\PSoC Creator\psoc\content\cycomponentlibrary\CyComponentLibrary.cylib\BLE_v2_0\Library\gccCyBLEStack_BLE_SOC_PERIPHERAL.a(transport_sf.o)
 .debug_frame   0x0000250c       0x3c C:\9047software\PSoC Creator\3.3\PSoC Creator\psoc\content\cycomponentlibrary\CyComponentLibrary.cylib\BLE_v2_0\Library\gccCyBLEStack_BLE_SOC_PERIPHERAL.a(transport_sf.o)
 .debug_frame   0x00002548       0x3c C:\9047software\PSoC Creator\3.3\PSoC Creator\psoc\content\cycomponentlibrary\CyComponentLibrary.cylib\BLE_v2_0\Library\gccCyBLEStack_BLE_SOC_PERIPHERAL.a(transport_sf.o)
 .debug_frame   0x00002584       0x3c C:\9047software\PSoC Creator\3.3\PSoC Creator\psoc\content\cycomponentlibrary\CyComponentLibrary.cylib\BLE_v2_0\Library\gccCyBLEStack_BLE_SOC_PERIPHERAL.a(transport_sf.o)
 .debug_frame   0x000025c0       0x48 C:\9047software\PSoC Creator\3.3\PSoC Creator\psoc\content\cycomponentlibrary\CyComponentLibrary.cylib\BLE_v2_0\Library\gccCyBLEStack_BLE_SOC_PERIPHERAL.a(transport_sf.o)
 .debug_frame   0x00002608       0x50 C:\9047software\PSoC Creator\3.3\PSoC Creator\psoc\content\cycomponentlibrary\CyComponentLibrary.cylib\BLE_v2_0\Library\gccCyBLEStack_BLE_SOC_PERIPHERAL.a(transport_sf.o)
 .debug_frame   0x00002658       0x3c C:\9047software\PSoC Creator\3.3\PSoC Creator\psoc\content\cycomponentlibrary\CyComponentLibrary.cylib\BLE_v2_0\Library\gccCyBLEStack_BLE_SOC_PERIPHERAL.a(CyBleStackMgr_PSoCHal.o)
 .debug_frame   0x00002694       0x48 C:\9047software\PSoC Creator\3.3\PSoC Creator\psoc\content\cycomponentlibrary\CyComponentLibrary.cylib\BLE_v2_0\Library\gccCyBLEStack_BLE_SOC_PERIPHERAL.a(CyBleStackMgr_PSoCHal.o)
 .debug_frame   0x000026dc       0x44 C:\9047software\PSoC Creator\3.3\PSoC Creator\psoc\content\cycomponentlibrary\CyComponentLibrary.cylib\BLE_v2_0\Library\gccCyBLEStack_BLE_SOC_PERIPHERAL.a(CyBleStackMgr_PSoCHal.o)
 .debug_frame   0x00002720       0x3c C:\9047software\PSoC Creator\3.3\PSoC Creator\psoc\content\cycomponentlibrary\CyComponentLibrary.cylib\BLE_v2_0\Library\gccCyBLEStack_BLE_SOC_PERIPHERAL.a(CyBleStackMgr_PSoCHal.o)
 .debug_frame   0x0000275c       0x3c C:\9047software\PSoC Creator\3.3\PSoC Creator\psoc\content\cycomponentlibrary\CyComponentLibrary.cylib\BLE_v2_0\Library\gccCyBLEStack_BLE_SOC_PERIPHERAL.a(CyBleStackMgr_PSoCHal.o)
 .debug_frame   0x00002798       0x44 C:\9047software\PSoC Creator\3.3\PSoC Creator\psoc\content\cycomponentlibrary\CyComponentLibrary.cylib\BLE_v2_0\Library\gccCyBLEStack_BLE_SOC_PERIPHERAL.a(CyBleStackMgr_PSoCHal.o)
 .debug_frame   0x000027dc       0x44 C:\9047software\PSoC Creator\3.3\PSoC Creator\psoc\content\cycomponentlibrary\CyComponentLibrary.cylib\BLE_v2_0\Library\gccCyBLEStack_BLE_SOC_PERIPHERAL.a(CyBleStackMgr_PSoCHal.o)
 .debug_frame   0x00002820       0x44 C:\9047software\PSoC Creator\3.3\PSoC Creator\psoc\content\cycomponentlibrary\CyComponentLibrary.cylib\BLE_v2_0\Library\gccCyBLEStack_BLE_SOC_PERIPHERAL.a(CyBleStackMgr_PSoCHal.o)
 .debug_frame   0x00002864       0x3c C:\9047software\PSoC Creator\3.3\PSoC Creator\psoc\content\cycomponentlibrary\CyComponentLibrary.cylib\BLE_v2_0\Library\gccCyBLEStack_BLE_SOC_PERIPHERAL.a(CyBleStackMgr_PSoCHal.o)
 .debug_frame   0x000028a0       0x44 C:\9047software\PSoC Creator\3.3\PSoC Creator\psoc\content\cycomponentlibrary\CyComponentLibrary.cylib\BLE_v2_0\Library\gccCyBLEStack_BLE_SOC_PERIPHERAL.a(CyBleStackMgr_PSoCHal.o)
 .debug_frame   0x000028e4       0x44 C:\9047software\PSoC Creator\3.3\PSoC Creator\psoc\content\cycomponentlibrary\CyComponentLibrary.cylib\BLE_v2_0\Library\gccCyBLEStack_BLE_SOC_PERIPHERAL.a(CyBleStackMgr_PSoCHal.o)
 .debug_frame   0x00002928       0x3c C:\9047software\PSoC Creator\3.3\PSoC Creator\psoc\content\cycomponentlibrary\CyComponentLibrary.cylib\BLE_v2_0\Library\gccCyBLEStack_BLE_SOC_PERIPHERAL.a(CyBleStackMgr_PSoCHal.o)
 .debug_frame   0x00002964       0x3c C:\9047software\PSoC Creator\3.3\PSoC Creator\psoc\content\cycomponentlibrary\CyComponentLibrary.cylib\BLE_v2_0\Library\gccCyBLEStack_BLE_SOC_PERIPHERAL.a(CyBleStackMgr_PSoCHal.o)
 .debug_frame   0x000029a0       0x44 C:\9047software\PSoC Creator\3.3\PSoC Creator\psoc\content\cycomponentlibrary\CyComponentLibrary.cylib\BLE_v2_0\Library\gccCyBLEStack_BLE_SOC_PERIPHERAL.a(CyBleStackMgr_PSoCHal.o)
 .debug_frame   0x000029e4       0x3c C:\9047software\PSoC Creator\3.3\PSoC Creator\psoc\content\cycomponentlibrary\CyComponentLibrary.cylib\BLE_v2_0\Library\gccCyBLEStack_BLE_SOC_PERIPHERAL.a(CyBleStackMgr_BleSSDriver.o)
 .debug_frame   0x00002a20       0x4c C:\9047software\PSoC Creator\3.3\PSoC Creator\psoc\content\cycomponentlibrary\CyComponentLibrary.cylib\BLE_v2_0\Library\gccCyBLEStack_BLE_SOC_PERIPHERAL.a(CyBleStackMgr_BleSSDriver.o)
 .debug_frame   0x00002a6c       0x44 C:\9047software\PSoC Creator\3.3\PSoC Creator\psoc\content\cycomponentlibrary\CyComponentLibrary.cylib\BLE_v2_0\Library\gccCyBLEStack_BLE_SOC_PERIPHERAL.a(CyBleStackMgr_BleSSDriver.o)
 .debug_frame   0x00002ab0       0x44 C:\9047software\PSoC Creator\3.3\PSoC Creator\psoc\content\cycomponentlibrary\CyComponentLibrary.cylib\BLE_v2_0\Library\gccCyBLEStack_BLE_SOC_PERIPHERAL.a(CyBleStackMgr_BleSSDriver.o)
 .debug_frame   0x00002af4       0x48 C:\9047software\PSoC Creator\3.3\PSoC Creator\psoc\content\cycomponentlibrary\CyComponentLibrary.cylib\BLE_v2_0\Library\gccCyBLEStack_BLE_SOC_PERIPHERAL.a(CyBleStackMgr_BleSSDriver.o)
 .debug_frame   0x00002b3c       0x3c C:\9047software\PSoC Creator\3.3\PSoC Creator\psoc\content\cycomponentlibrary\CyComponentLibrary.cylib\BLE_v2_0\Library\gccCyBLEStack_BLE_SOC_PERIPHERAL.a(CyBleStackMgr_BleSSDriver.o)
 .debug_frame   0x00002b78       0x44 C:\9047software\PSoC Creator\3.3\PSoC Creator\psoc\content\cycomponentlibrary\CyComponentLibrary.cylib\BLE_v2_0\Library\gccCyBLEStack_BLE_SOC_PERIPHERAL.a(CyBleStackMgr_BleSSDriver.o)
 .debug_frame   0x00002bbc       0x44 C:\9047software\PSoC Creator\3.3\PSoC Creator\psoc\content\cycomponentlibrary\CyComponentLibrary.cylib\BLE_v2_0\Library\gccCyBLEStack_BLE_SOC_PERIPHERAL.a(CyBleStackMgr_BleSSDriver.o)
 .debug_frame   0x00002c00       0x44 C:\9047software\PSoC Creator\3.3\PSoC Creator\psoc\content\cycomponentlibrary\CyComponentLibrary.cylib\BLE_v2_0\Library\gccCyBLEStack_BLE_SOC_PERIPHERAL.a(CyBleStackMgr_BleSSDriver.o)
 .debug_frame   0x00002c44       0x44 C:\9047software\PSoC Creator\3.3\PSoC Creator\psoc\content\cycomponentlibrary\CyComponentLibrary.cylib\BLE_v2_0\Library\gccCyBLEStack_BLE_SOC_PERIPHERAL.a(CyBleStackMgr_BleSSDriver.o)
 .debug_frame   0x00002c88       0x3c C:\9047software\PSoC Creator\3.3\PSoC Creator\psoc\content\cycomponentlibrary\CyComponentLibrary.cylib\BLE_v2_0\Library\gccCyBLEStack_BLE_SOC_PERIPHERAL.a(CyBleStackMgr_BleSSDriver.o)
 .debug_frame   0x00002cc4       0x44 C:\9047software\PSoC Creator\3.3\PSoC Creator\psoc\content\cycomponentlibrary\CyComponentLibrary.cylib\BLE_v2_0\Library\gccCyBLEStack_BLE_SOC_PERIPHERAL.a(CyBleStackMgr_BleSSDriver.o)
 .debug_frame   0x00002d08       0x3c C:\9047software\PSoC Creator\3.3\PSoC Creator\psoc\content\cycomponentlibrary\CyComponentLibrary.cylib\BLE_v2_0\Library\gccCyBLEStack_BLE_SOC_PERIPHERAL.a(CyBleStackMgr_BleSSDriver.o)
 .debug_frame   0x00002d44       0x3c C:\9047software\PSoC Creator\3.3\PSoC Creator\psoc\content\cycomponentlibrary\CyComponentLibrary.cylib\BLE_v2_0\Library\gccCyBLEStack_BLE_SOC_PERIPHERAL.a(CyBleStackMgr_BleSSDriver.o)
 .debug_frame   0x00002d80       0x44 C:\9047software\PSoC Creator\3.3\PSoC Creator\psoc\content\cycomponentlibrary\CyComponentLibrary.cylib\BLE_v2_0\Library\gccCyBLEStack_BLE_SOC_PERIPHERAL.a(CyBleStackMgr_BleSSDriver.o)
 .debug_frame   0x00002dc4       0x3c C:\9047software\PSoC Creator\3.3\PSoC Creator\psoc\content\cycomponentlibrary\CyComponentLibrary.cylib\BLE_v2_0\Library\gccCyBLEStack_BLE_SOC_PERIPHERAL.a(CyBleStackMgr_BleSSDriver.o)
 .debug_frame   0x00002e00       0x3c C:\9047software\PSoC Creator\3.3\PSoC Creator\psoc\content\cycomponentlibrary\CyComponentLibrary.cylib\BLE_v2_0\Library\gccCyBLEStack_BLE_SOC_PERIPHERAL.a(CyBleStackMgr_BleSSDriver.o)
 .debug_frame   0x00002e3c       0x3c C:\9047software\PSoC Creator\3.3\PSoC Creator\psoc\content\cycomponentlibrary\CyComponentLibrary.cylib\BLE_v2_0\Library\gccCyBLEStack_BLE_SOC_PERIPHERAL.a(CyBleStackMgr_BleSSDriver.o)
 .debug_frame   0x00002e78       0x3c C:\9047software\PSoC Creator\3.3\PSoC Creator\psoc\content\cycomponentlibrary\CyComponentLibrary.cylib\BLE_v2_0\Library\gccCyBLEStack_BLE_SOC_PERIPHERAL.a(CyBleStackMgr_BleSSDriver.o)
 .debug_frame   0x00002eb4       0x48 C:\9047software\PSoC Creator\3.3\PSoC Creator\psoc\content\cycomponentlibrary\CyComponentLibrary.cylib\BLE_v2_0\Library\gccCyBLEStack_BLE_SOC_PERIPHERAL.a(CyBleStackMgr_BleSSDriver.o)
 .debug_frame   0x00002efc       0x48 C:\9047software\PSoC Creator\3.3\PSoC Creator\psoc\content\cycomponentlibrary\CyComponentLibrary.cylib\BLE_v2_0\Library\gccCyBLEStack_BLE_SOC_PERIPHERAL.a(CyBleStackMgr_BleSSDriver.o)
 .debug_frame   0x00002f44       0x48 C:\9047software\PSoC Creator\3.3\PSoC Creator\psoc\content\cycomponentlibrary\CyComponentLibrary.cylib\BLE_v2_0\Library\gccCyBLEStack_BLE_SOC_PERIPHERAL.a(CyBleStackMgr_BleSSDriver.o)
 .debug_frame   0x00002f8c       0x48 C:\9047software\PSoC Creator\3.3\PSoC Creator\psoc\content\cycomponentlibrary\CyComponentLibrary.cylib\BLE_v2_0\Library\gccCyBLEStack_BLE_SOC_PERIPHERAL.a(CyBleStackMgr_BleSSDriver.o)
 .debug_frame   0x00002fd4       0x3c C:\9047software\PSoC Creator\3.3\PSoC Creator\psoc\content\cycomponentlibrary\CyComponentLibrary.cylib\BLE_v2_0\Library\gccCyBLEStack_BLE_SOC_PERIPHERAL.a(CyBleStackMgr_BleSSDriver.o)
 .debug_frame   0x00003010       0x3c C:\9047software\PSoC Creator\3.3\PSoC Creator\psoc\content\cycomponentlibrary\CyComponentLibrary.cylib\BLE_v2_0\Library\gccCyBLEStack_BLE_SOC_PERIPHERAL.a(CyBleStackMgr_BleSSDriver.o)
 .debug_frame   0x0000304c       0x44 C:\9047software\PSoC Creator\3.3\PSoC Creator\psoc\content\cycomponentlibrary\CyComponentLibrary.cylib\BLE_v2_0\Library\gccCyBLEStack_BLE_SOC_PERIPHERAL.a(CyBleStackMgr_BleSSDriver.o)
 .debug_frame   0x00003090       0x4c C:\9047software\PSoC Creator\3.3\PSoC Creator\psoc\content\cycomponentlibrary\CyComponentLibrary.cylib\BLE_v2_0\Library\gccCyBLEStack_BLE_SOC_PERIPHERAL.a(CyBleStackMgr_BleSSDriver.o)
 .debug_frame   0x000030dc       0x3c C:\9047software\PSoC Creator\3.3\PSoC Creator\psoc\content\cycomponentlibrary\CyComponentLibrary.cylib\BLE_v2_0\Library\gccCyBLEStack_BLE_SOC_PERIPHERAL.a(CyBleStackMgr_BleSSDriver.o)
 .debug_frame   0x00003118       0x44 C:\9047software\PSoC Creator\3.3\PSoC Creator\psoc\content\cycomponentlibrary\CyComponentLibrary.cylib\BLE_v2_0\Library\gccCyBLEStack_BLE_SOC_PERIPHERAL.a(CyBleStackMgr_BleSSDriver.o)
 .debug_frame   0x0000315c       0x3c C:\9047software\PSoC Creator\3.3\PSoC Creator\psoc\content\cycomponentlibrary\CyComponentLibrary.cylib\BLE_v2_0\Library\gccCyBLEStack_BLE_SOC_PERIPHERAL.a(CyBleStackMgr_BleSSDriver.o)
 .debug_frame   0x00003198       0x48 C:\9047software\PSoC Creator\3.3\PSoC Creator\psoc\content\cycomponentlibrary\CyComponentLibrary.cylib\BLE_v2_0\Library\gccCyBLEStack_BLE_SOC_PERIPHERAL.a(CyBleStackMgr_BleSSDriver.o)
 .debug_frame   0x000031e0       0x3c C:\9047software\PSoC Creator\3.3\PSoC Creator\psoc\content\cycomponentlibrary\CyComponentLibrary.cylib\BLE_v2_0\Library\gccCyBLEStack_BLE_SOC_PERIPHERAL.a(CyBleStackMgr_BleSSDriver.o)
 .debug_frame   0x0000321c       0x44 C:\9047software\PSoC Creator\3.3\PSoC Creator\psoc\content\cycomponentlibrary\CyComponentLibrary.cylib\BLE_v2_0\Library\gccCyBLEStack_BLE_SOC_PERIPHERAL.a(mint_os.o)
 .debug_frame   0x00003260       0x3c C:\9047software\PSoC Creator\3.3\PSoC Creator\psoc\content\cycomponentlibrary\CyComponentLibrary.cylib\BLE_v2_0\Library\gccCyBLEStack_BLE_SOC_PERIPHERAL.a(mint_os.o)
 .debug_frame   0x0000329c       0x44 C:\9047software\PSoC Creator\3.3\PSoC Creator\psoc\content\cycomponentlibrary\CyComponentLibrary.cylib\BLE_v2_0\Library\gccCyBLEStack_BLE_SOC_PERIPHERAL.a(mint_os.o)
 .debug_frame   0x000032e0       0x3c C:\9047software\PSoC Creator\3.3\PSoC Creator\psoc\content\cycomponentlibrary\CyComponentLibrary.cylib\BLE_v2_0\Library\gccCyBLEStack_BLE_SOC_PERIPHERAL.a(mint_os.o)
 .debug_frame   0x0000331c       0x3c C:\9047software\PSoC Creator\3.3\PSoC Creator\psoc\content\cycomponentlibrary\CyComponentLibrary.cylib\BLE_v2_0\Library\gccCyBLEStack_BLE_SOC_PERIPHERAL.a(mint_os.o)
 .debug_frame   0x00003358       0x4c C:\9047software\PSoC Creator\3.3\PSoC Creator\psoc\content\cycomponentlibrary\CyComponentLibrary.cylib\BLE_v2_0\Library\gccCyBLEStack_BLE_SOC_PERIPHERAL.a(mint_os_queue.o)
 .debug_frame   0x000033a4       0x3c C:\9047software\PSoC Creator\3.3\PSoC Creator\psoc\content\cycomponentlibrary\CyComponentLibrary.cylib\BLE_v2_0\Library\gccCyBLEStack_BLE_SOC_PERIPHERAL.a(mint_os_queue.o)
 .debug_frame   0x000033e0       0x4c C:\9047software\PSoC Creator\3.3\PSoC Creator\psoc\content\cycomponentlibrary\CyComponentLibrary.cylib\BLE_v2_0\Library\gccCyBLEStack_BLE_SOC_PERIPHERAL.a(mint_os_queue.o)
 .debug_frame   0x0000342c       0x4c C:\9047software\PSoC Creator\3.3\PSoC Creator\psoc\content\cycomponentlibrary\CyComponentLibrary.cylib\BLE_v2_0\Library\gccCyBLEStack_BLE_SOC_PERIPHERAL.a(mint_os_queue.o)
 .debug_frame   0x00003478       0x4c C:\9047software\PSoC Creator\3.3\PSoC Creator\psoc\content\cycomponentlibrary\CyComponentLibrary.cylib\BLE_v2_0\Library\gccCyBLEStack_BLE_SOC_PERIPHERAL.a(mint_os_queue.o)
 .debug_frame   0x000034c4       0x3c C:\9047software\PSoC Creator\3.3\PSoC Creator\psoc\content\cycomponentlibrary\CyComponentLibrary.cylib\BLE_v2_0\Library\gccCyBLEStack_BLE_SOC_PERIPHERAL.a(mint_os_queue.o)
 .debug_frame   0x00003500       0x4c C:\9047software\PSoC Creator\3.3\PSoC Creator\psoc\content\cycomponentlibrary\CyComponentLibrary.cylib\BLE_v2_0\Library\gccCyBLEStack_BLE_SOC_PERIPHERAL.a(mint_os_task.o)
 .debug_frame   0x0000354c       0x4c C:\9047software\PSoC Creator\3.3\PSoC Creator\psoc\content\cycomponentlibrary\CyComponentLibrary.cylib\BLE_v2_0\Library\gccCyBLEStack_BLE_SOC_PERIPHERAL.a(mint_os_task.o)
 .debug_frame   0x00003598       0x48 C:\9047software\PSoC Creator\3.3\PSoC Creator\psoc\content\cycomponentlibrary\CyComponentLibrary.cylib\BLE_v2_0\Library\gccCyBLEStack_BLE_SOC_PERIPHERAL.a(mint_os_task.o)
 .debug_frame   0x000035e0       0x4c C:\9047software\PSoC Creator\3.3\PSoC Creator\psoc\content\cycomponentlibrary\CyComponentLibrary.cylib\BLE_v2_0\Library\gccCyBLEStack_BLE_SOC_PERIPHERAL.a(mint_os_task.o)
 .debug_frame   0x0000362c       0x48 C:\9047software\PSoC Creator\3.3\PSoC Creator\psoc\content\cycomponentlibrary\CyComponentLibrary.cylib\BLE_v2_0\Library\gccCyBLEStack_BLE_SOC_PERIPHERAL.a(mint_os_task.o)
 .debug_frame   0x00003674       0x3c C:\9047software\PSoC Creator\3.3\PSoC Creator\psoc\content\cycomponentlibrary\CyComponentLibrary.cylib\BLE_v2_0\Library\gccCyBLEStack_BLE_SOC_PERIPHERAL.a(mint_os_task.o)
 .debug_frame   0x000036b0       0x4c C:\9047software\PSoC Creator\3.3\PSoC Creator\psoc\content\cycomponentlibrary\CyComponentLibrary.cylib\BLE_v2_0\Library\gccCyBLEStack_BLE_SOC_PERIPHERAL.a(mint_os_task.o)
 .debug_frame   0x000036fc       0x4c C:\9047software\PSoC Creator\3.3\PSoC Creator\psoc\content\cycomponentlibrary\CyComponentLibrary.cylib\BLE_v2_0\Library\gccCyBLEStack_BLE_SOC_PERIPHERAL.a(mint_buf_mgmt.o)
 .debug_frame   0x00003748       0x4c C:\9047software\PSoC Creator\3.3\PSoC Creator\psoc\content\cycomponentlibrary\CyComponentLibrary.cylib\BLE_v2_0\Library\gccCyBLEStack_BLE_SOC_PERIPHERAL.a(mint_buf_mgmt.o)
 .debug_frame   0x00003794       0x48 C:\9047software\PSoC Creator\3.3\PSoC Creator\psoc\content\cycomponentlibrary\CyComponentLibrary.cylib\BLE_v2_0\Library\gccCyBLEStack_BLE_SOC_PERIPHERAL.a(mint_buf_mgmt.o)
 .debug_frame   0x000037dc       0x44 C:\9047software\PSoC Creator\3.3\PSoC Creator\psoc\content\cycomponentlibrary\CyComponentLibrary.cylib\BLE_v2_0\Library\gccCyBLEStack_BLE_SOC_PERIPHERAL.a(mint_buf_mgmt.o)
 .debug_frame   0x00003820       0x48 C:\9047software\PSoC Creator\3.3\PSoC Creator\psoc\content\cycomponentlibrary\CyComponentLibrary.cylib\BLE_v2_0\Library\gccCyBLEStack_BLE_SOC_PERIPHERAL.a(mint_buf_mgmt.o)
 .debug_frame   0x00003868       0x50 C:\9047software\PSoC Creator\3.3\PSoC Creator\psoc\content\cycomponentlibrary\CyComponentLibrary.cylib\BLE_v2_0\Library\gccCyBLEStack_BLE_SOC_PERIPHERAL.a(mint_buf_mgmt.o)
 .debug_frame   0x000038b8       0x44 C:\9047software\PSoC Creator\3.3\PSoC Creator\psoc\content\cycomponentlibrary\CyComponentLibrary.cylib\BLE_v2_0\Library\gccCyBLEStack_BLE_SOC_PERIPHERAL.a(mint_buf_mgmt.o)
 .debug_frame   0x000038fc       0x4c C:\9047software\PSoC Creator\3.3\PSoC Creator\psoc\content\cycomponentlibrary\CyComponentLibrary.cylib\BLE_v2_0\Library\gccCyBLEStack_BLE_SOC_PERIPHERAL.a(mint_buf_mgmt.o)
 .debug_frame   0x00003948       0x48 C:\9047software\PSoC Creator\3.3\PSoC Creator\psoc\content\cycomponentlibrary\CyComponentLibrary.cylib\BLE_v2_0\Library\gccCyBLEStack_BLE_SOC_PERIPHERAL.a(mint_buf_mgmt.o)
 .debug_frame   0x00003990       0x48 C:\9047software\PSoC Creator\3.3\PSoC Creator\psoc\content\cycomponentlibrary\CyComponentLibrary.cylib\BLE_v2_0\Library\gccCyBLEStack_BLE_SOC_PERIPHERAL.a(mint_buf_mgmt.o)
 .debug_frame   0x000039d8       0x4c C:\9047software\PSoC Creator\3.3\PSoC Creator\psoc\content\cycomponentlibrary\CyComponentLibrary.cylib\BLE_v2_0\Library\gccCyBLEStack_BLE_SOC_PERIPHERAL.a(mint_buf_mgmt.o)
 .debug_frame   0x00003a24       0x4c C:\9047software\PSoC Creator\3.3\PSoC Creator\psoc\content\cycomponentlibrary\CyComponentLibrary.cylib\BLE_v2_0\Library\gccCyBLEStack_BLE_SOC_PERIPHERAL.a(mint_buf_mgmt.o)
 .debug_frame   0x00003a70       0x3c C:\9047software\PSoC Creator\3.3\PSoC Creator\psoc\content\cycomponentlibrary\CyComponentLibrary.cylib\BLE_v2_0\Library\gccCyBLEStack_BLE_SOC_PERIPHERAL.a(mint_buf_mgmt.o)
 .debug_frame   0x00003aac       0x3c C:\9047software\PSoC Creator\3.3\PSoC Creator\psoc\content\cycomponentlibrary\CyComponentLibrary.cylib\BLE_v2_0\Library\gccCyBLEStack_BLE_SOC_PERIPHERAL.a(mint_buf_mgmt.o)
 .debug_frame   0x00003ae8       0x44 C:\9047software\PSoC Creator\3.3\PSoC Creator\psoc\content\cycomponentlibrary\CyComponentLibrary.cylib\BLE_v2_0\Library\gccCyBLEStack_BLE_SOC_PERIPHERAL.a(CyBleControllerIP_Interface.o)
 .debug_frame   0x00003b2c       0x3c C:\9047software\PSoC Creator\3.3\PSoC Creator\psoc\content\cycomponentlibrary\CyComponentLibrary.cylib\BLE_v2_0\Library\gccCyBLEStack_BLE_SOC_PERIPHERAL.a(CyBleControllerIP_Interface.o)
 .debug_frame   0x00003b68       0x44 C:\9047software\PSoC Creator\3.3\PSoC Creator\psoc\content\cycomponentlibrary\CyComponentLibrary.cylib\BLE_v2_0\Library\gccCyBLEStack_BLE_SOC_PERIPHERAL.a(CyBleControllerIP_Interface.o)
 .debug_frame   0x00003bac       0x44 C:\9047software\PSoC Creator\3.3\PSoC Creator\psoc\content\cycomponentlibrary\CyComponentLibrary.cylib\BLE_v2_0\Library\gccCyBLEStack_BLE_SOC_PERIPHERAL.a(CyBleControllerIP_Interface.o)
 .debug_frame   0x00003bf0       0x44 C:\9047software\PSoC Creator\3.3\PSoC Creator\psoc\content\cycomponentlibrary\CyComponentLibrary.cylib\BLE_v2_0\Library\gccCyBLEStack_BLE_SOC_PERIPHERAL.a(CyBleControllerIP_Interface.o)
 .debug_frame   0x00003c34       0x44 C:\9047software\PSoC Creator\3.3\PSoC Creator\psoc\content\cycomponentlibrary\CyComponentLibrary.cylib\BLE_v2_0\Library\gccCyBLEStack_BLE_SOC_PERIPHERAL.a(CyBleControllerIP_Interface.o)
 .debug_frame   0x00003c78       0x48 C:\9047software\PSoC Creator\3.3\PSoC Creator\psoc\content\cycomponentlibrary\CyComponentLibrary.cylib\BLE_v2_0\Library\gccCyBLEStack_BLE_SOC_PERIPHERAL.a(CyBleControllerIP_Interface.o)
 .debug_frame   0x00003cc0       0x48 C:\9047software\PSoC Creator\3.3\PSoC Creator\psoc\content\cycomponentlibrary\CyComponentLibrary.cylib\BLE_v2_0\Library\gccCyBLEStack_BLE_SOC_PERIPHERAL.a(CyBleControllerIP_Interface.o)
 .debug_frame   0x00003d08       0x48 C:\9047software\PSoC Creator\3.3\PSoC Creator\psoc\content\cycomponentlibrary\CyComponentLibrary.cylib\BLE_v2_0\Library\gccCyBLEStack_BLE_SOC_PERIPHERAL.a(CyBleControllerIP_Interface.o)
 .debug_frame   0x00003d50       0x50 C:\9047software\PSoC Creator\3.3\PSoC Creator\psoc\content\cycomponentlibrary\CyComponentLibrary.cylib\BLE_v2_0\Library\gccCyBLEStack_BLE_SOC_PERIPHERAL.a(CyBleControllerIP_Interface.o)
 .debug_frame   0x00003da0       0x3c C:\9047software\PSoC Creator\3.3\PSoC Creator\psoc\content\cycomponentlibrary\CyComponentLibrary.cylib\BLE_v2_0\Library\gccCyBLEStack_BLE_SOC_PERIPHERAL.a(CyBleControllerIP_Interface.o)
 .debug_frame   0x00003ddc       0x4c C:\9047software\PSoC Creator\3.3\PSoC Creator\psoc\content\cycomponentlibrary\CyComponentLibrary.cylib\BLE_v2_0\Library\gccCyBLEStack_BLE_SOC_PERIPHERAL.a(CyBleControllerIP_Interface.o)
 .debug_frame   0x00003e28       0x3c C:\9047software\PSoC Creator\3.3\PSoC Creator\psoc\content\cycomponentlibrary\CyComponentLibrary.cylib\BLE_v2_0\Library\gccCyBLEStack_BLE_SOC_PERIPHERAL.a(CyBleControllerIP_Interface.o)
 .debug_frame   0x00003e64       0x4c C:\9047software\PSoC Creator\3.3\PSoC Creator\psoc\content\cycomponentlibrary\CyComponentLibrary.cylib\BLE_v2_0\Library\gccCyBLEStack_BLE_SOC_PERIPHERAL.a(CyBleControllerIP_Interface.o)
 .debug_frame   0x00003eb0       0x48 C:\9047software\PSoC Creator\3.3\PSoC Creator\psoc\content\cycomponentlibrary\CyComponentLibrary.cylib\BLE_v2_0\Library\gccCyBLEStack_BLE_SOC_PERIPHERAL.a(CyBleControllerIP_Interface.o)
 .debug_frame   0x00003ef8       0x48 C:\9047software\PSoC Creator\3.3\PSoC Creator\psoc\content\cycomponentlibrary\CyComponentLibrary.cylib\BLE_v2_0\Library\gccCyBLEStack_BLE_SOC_PERIPHERAL.a(CyBleControllerIP_Interface.o)
 .debug_frame   0x00003f40       0x50 C:\9047software\PSoC Creator\3.3\PSoC Creator\psoc\content\cycomponentlibrary\CyComponentLibrary.cylib\BLE_v2_0\Library\gccCyBLEStack_BLE_SOC_PERIPHERAL.a(CyBleControllerIP_Interface.o)
 .debug_frame   0x00003f90       0x54 C:\9047software\PSoC Creator\3.3\PSoC Creator\psoc\content\cycomponentlibrary\CyComponentLibrary.cylib\BLE_v2_0\Library\gccCyBLEStack_BLE_SOC_PERIPHERAL.a(CyBleControllerIP_Interface.o)
 .debug_frame   0x00003fe4       0x48 C:\9047software\PSoC Creator\3.3\PSoC Creator\psoc\content\cycomponentlibrary\CyComponentLibrary.cylib\BLE_v2_0\Library\gccCyBLEStack_BLE_SOC_PERIPHERAL.a(CyBleControllerIP_Interface.o)
 .debug_frame   0x0000402c       0x48 C:\9047software\PSoC Creator\3.3\PSoC Creator\psoc\content\cycomponentlibrary\CyComponentLibrary.cylib\BLE_v2_0\Library\gccCyBLEStack_BLE_SOC_PERIPHERAL.a(CyBleControllerIP_Interface.o)
 .debug_frame   0x00004074       0x44 C:\9047software\PSoC Creator\3.3\PSoC Creator\psoc\content\cycomponentlibrary\CyComponentLibrary.cylib\BLE_v2_0\Library\gccCyBLEStack_BLE_SOC_PERIPHERAL.a(CyBleControllerIP_Interface.o)
 .debug_frame   0x000040b8       0x48 C:\9047software\PSoC Creator\3.3\PSoC Creator\psoc\content\cycomponentlibrary\CyComponentLibrary.cylib\BLE_v2_0\Library\gccCyBLEStack_BLE_SOC_PERIPHERAL.a(CyBleControllerIP_Interface.o)
 .debug_frame   0x00004100       0x48 C:\9047software\PSoC Creator\3.3\PSoC Creator\psoc\content\cycomponentlibrary\CyComponentLibrary.cylib\BLE_v2_0\Library\gccCyBLEStack_BLE_SOC_PERIPHERAL.a(CyBleControllerIP_Interface.o)
 .debug_frame   0x00004148       0x50 C:\9047software\PSoC Creator\3.3\PSoC Creator\psoc\content\cycomponentlibrary\CyComponentLibrary.cylib\BLE_v2_0\Library\gccCyBLEStack_BLE_SOC_PERIPHERAL.a(CyBleControllerIP_Interface.o)
 .debug_frame   0x00004198       0x44 C:\9047software\PSoC Creator\3.3\PSoC Creator\psoc\content\cycomponentlibrary\CyComponentLibrary.cylib\BLE_v2_0\Library\gccCyBLEStack_BLE_SOC_PERIPHERAL.a(CyBleControllerIP_Interface.o)
 .debug_frame   0x000041dc       0x44 C:\9047software\PSoC Creator\3.3\PSoC Creator\psoc\content\cycomponentlibrary\CyComponentLibrary.cylib\BLE_v2_0\Library\gccCyBLEStack_BLE_SOC_PERIPHERAL.a(CyBleControllerIP_Interface.o)
 .debug_frame   0x00004220       0x4c C:\9047software\PSoC Creator\3.3\PSoC Creator\psoc\content\cycomponentlibrary\CyComponentLibrary.cylib\BLE_v2_0\Library\gccCyBLEStack_BLE_SOC_PERIPHERAL.a(ll.o)
 .debug_frame   0x0000426c       0x4c C:\9047software\PSoC Creator\3.3\PSoC Creator\psoc\content\cycomponentlibrary\CyComponentLibrary.cylib\BLE_v2_0\Library\gccCyBLEStack_BLE_SOC_PERIPHERAL.a(ll.o)
 .debug_frame   0x000042b8       0x44 C:\9047software\PSoC Creator\3.3\PSoC Creator\psoc\content\cycomponentlibrary\CyComponentLibrary.cylib\BLE_v2_0\Library\gccCyBLEStack_BLE_SOC_PERIPHERAL.a(ll.o)
 .debug_frame   0x000042fc       0x44 C:\9047software\PSoC Creator\3.3\PSoC Creator\psoc\content\cycomponentlibrary\CyComponentLibrary.cylib\BLE_v2_0\Library\gccCyBLEStack_BLE_SOC_PERIPHERAL.a(ll.o)
 .debug_frame   0x00004340       0x44 C:\9047software\PSoC Creator\3.3\PSoC Creator\psoc\content\cycomponentlibrary\CyComponentLibrary.cylib\BLE_v2_0\Library\gccCyBLEStack_BLE_SOC_PERIPHERAL.a(ll.o)
 .debug_frame   0x00004384       0x44 C:\9047software\PSoC Creator\3.3\PSoC Creator\psoc\content\cycomponentlibrary\CyComponentLibrary.cylib\BLE_v2_0\Library\gccCyBLEStack_BLE_SOC_PERIPHERAL.a(ll.o)
 .debug_frame   0x000043c8       0x3c C:\9047software\PSoC Creator\3.3\PSoC Creator\psoc\content\cycomponentlibrary\CyComponentLibrary.cylib\BLE_v2_0\Library\gccCyBLEStack_BLE_SOC_PERIPHERAL.a(ll.o)
 .debug_frame   0x00004404       0x44 C:\9047software\PSoC Creator\3.3\PSoC Creator\psoc\content\cycomponentlibrary\CyComponentLibrary.cylib\BLE_v2_0\Library\gccCyBLEStack_BLE_SOC_PERIPHERAL.a(ll.o)
 .debug_frame   0x00004448       0x3c C:\9047software\PSoC Creator\3.3\PSoC Creator\psoc\content\cycomponentlibrary\CyComponentLibrary.cylib\BLE_v2_0\Library\gccCyBLEStack_BLE_SOC_PERIPHERAL.a(ll.o)
 .debug_frame   0x00004484       0x44 C:\9047software\PSoC Creator\3.3\PSoC Creator\psoc\content\cycomponentlibrary\CyComponentLibrary.cylib\BLE_v2_0\Library\gccCyBLEStack_BLE_SOC_PERIPHERAL.a(ll.o)
 .debug_frame   0x000044c8       0x44 C:\9047software\PSoC Creator\3.3\PSoC Creator\psoc\content\cycomponentlibrary\CyComponentLibrary.cylib\BLE_v2_0\Library\gccCyBLEStack_BLE_SOC_PERIPHERAL.a(ll.o)
 .debug_frame   0x0000450c       0x48 C:\9047software\PSoC Creator\3.3\PSoC Creator\psoc\content\cycomponentlibrary\CyComponentLibrary.cylib\BLE_v2_0\Library\gccCyBLEStack_BLE_SOC_PERIPHERAL.a(ll.o)
 .debug_frame   0x00004554       0x48 C:\9047software\PSoC Creator\3.3\PSoC Creator\psoc\content\cycomponentlibrary\CyComponentLibrary.cylib\BLE_v2_0\Library\gccCyBLEStack_BLE_SOC_PERIPHERAL.a(ll.o)
 .debug_frame   0x0000459c       0x3c C:\9047software\PSoC Creator\3.3\PSoC Creator\psoc\content\cycomponentlibrary\CyComponentLibrary.cylib\BLE_v2_0\Library\gccCyBLEStack_BLE_SOC_PERIPHERAL.a(ll.o)
 .debug_frame   0x000045d8       0x48 C:\9047software\PSoC Creator\3.3\PSoC Creator\psoc\content\cycomponentlibrary\CyComponentLibrary.cylib\BLE_v2_0\Library\gccCyBLEStack_BLE_SOC_PERIPHERAL.a(ll.o)
 .debug_frame   0x00004620       0x44 C:\9047software\PSoC Creator\3.3\PSoC Creator\psoc\content\cycomponentlibrary\CyComponentLibrary.cylib\BLE_v2_0\Library\gccCyBLEStack_BLE_SOC_PERIPHERAL.a(ll.o)
 .debug_frame   0x00004664       0x44 C:\9047software\PSoC Creator\3.3\PSoC Creator\psoc\content\cycomponentlibrary\CyComponentLibrary.cylib\BLE_v2_0\Library\gccCyBLEStack_BLE_SOC_PERIPHERAL.a(ll.o)
 .debug_frame   0x000046a8       0x44 C:\9047software\PSoC Creator\3.3\PSoC Creator\psoc\content\cycomponentlibrary\CyComponentLibrary.cylib\BLE_v2_0\Library\gccCyBLEStack_BLE_SOC_PERIPHERAL.a(ll.o)
 .debug_frame   0x000046ec       0x3c C:\9047software\PSoC Creator\3.3\PSoC Creator\psoc\content\cycomponentlibrary\CyComponentLibrary.cylib\BLE_v2_0\Library\gccCyBLEStack_BLE_SOC_PERIPHERAL.a(ll.o)
 .debug_frame   0x00004728       0x48 C:\9047software\PSoC Creator\3.3\PSoC Creator\psoc\content\cycomponentlibrary\CyComponentLibrary.cylib\BLE_v2_0\Library\gccCyBLEStack_BLE_SOC_PERIPHERAL.a(ll.o)
 .debug_frame   0x00004770       0x54 C:\9047software\PSoC Creator\3.3\PSoC Creator\psoc\content\cycomponentlibrary\CyComponentLibrary.cylib\BLE_v2_0\Library\gccCyBLEStack_BLE_SOC_PERIPHERAL.a(ll.o)
 .debug_frame   0x000047c4       0x3c C:\9047software\PSoC Creator\3.3\PSoC Creator\psoc\content\cycomponentlibrary\CyComponentLibrary.cylib\BLE_v2_0\Library\gccCyBLEStack_BLE_SOC_PERIPHERAL.a(ll.o)
 .debug_frame   0x00004800       0x44 C:\9047software\PSoC Creator\3.3\PSoC Creator\psoc\content\cycomponentlibrary\CyComponentLibrary.cylib\BLE_v2_0\Library\gccCyBLEStack_BLE_SOC_PERIPHERAL.a(ll.o)
 .debug_frame   0x00004844       0x48 C:\9047software\PSoC Creator\3.3\PSoC Creator\psoc\content\cycomponentlibrary\CyComponentLibrary.cylib\BLE_v2_0\Library\gccCyBLEStack_BLE_SOC_PERIPHERAL.a(ll.o)
 .debug_frame   0x0000488c       0x48 C:\9047software\PSoC Creator\3.3\PSoC Creator\psoc\content\cycomponentlibrary\CyComponentLibrary.cylib\BLE_v2_0\Library\gccCyBLEStack_BLE_SOC_PERIPHERAL.a(ll.o)
 .debug_frame   0x000048d4       0x3c C:\9047software\PSoC Creator\3.3\PSoC Creator\psoc\content\cycomponentlibrary\CyComponentLibrary.cylib\BLE_v2_0\Library\gccCyBLEStack_BLE_SOC_PERIPHERAL.a(ll.o)
 .debug_frame   0x00004910       0x4c C:\9047software\PSoC Creator\3.3\PSoC Creator\psoc\content\cycomponentlibrary\CyComponentLibrary.cylib\BLE_v2_0\Library\gccCyBLEStack_BLE_SOC_PERIPHERAL.a(ll.o)
 .debug_frame   0x0000495c       0x48 C:\9047software\PSoC Creator\3.3\PSoC Creator\psoc\content\cycomponentlibrary\CyComponentLibrary.cylib\BLE_v2_0\Library\gccCyBLEStack_BLE_SOC_PERIPHERAL.a(ll.o)
 .debug_frame   0x000049a4       0x44 C:\9047software\PSoC Creator\3.3\PSoC Creator\psoc\content\cycomponentlibrary\CyComponentLibrary.cylib\BLE_v2_0\Library\gccCyBLEStack_BLE_SOC_PERIPHERAL.a(ll.o)
 .debug_frame   0x000049e8       0x4c C:\9047software\PSoC Creator\3.3\PSoC Creator\psoc\content\cycomponentlibrary\CyComponentLibrary.cylib\BLE_v2_0\Library\gccCyBLEStack_BLE_SOC_PERIPHERAL.a(ll.o)
 .debug_frame   0x00004a34       0x48 C:\9047software\PSoC Creator\3.3\PSoC Creator\psoc\content\cycomponentlibrary\CyComponentLibrary.cylib\BLE_v2_0\Library\gccCyBLEStack_BLE_SOC_PERIPHERAL.a(ll.o)
 .debug_frame   0x00004a7c       0x44 C:\9047software\PSoC Creator\3.3\PSoC Creator\psoc\content\cycomponentlibrary\CyComponentLibrary.cylib\BLE_v2_0\Library\gccCyBLEStack_BLE_SOC_PERIPHERAL.a(ll.o)
 .debug_frame   0x00004ac0       0x44 C:\9047software\PSoC Creator\3.3\PSoC Creator\psoc\content\cycomponentlibrary\CyComponentLibrary.cylib\BLE_v2_0\Library\gccCyBLEStack_BLE_SOC_PERIPHERAL.a(ll.o)
 .debug_frame   0x00004b04       0x48 C:\9047software\PSoC Creator\3.3\PSoC Creator\psoc\content\cycomponentlibrary\CyComponentLibrary.cylib\BLE_v2_0\Library\gccCyBLEStack_BLE_SOC_PERIPHERAL.a(ll.o)
 .debug_frame   0x00004b4c       0x48 C:\9047software\PSoC Creator\3.3\PSoC Creator\psoc\content\cycomponentlibrary\CyComponentLibrary.cylib\BLE_v2_0\Library\gccCyBLEStack_BLE_SOC_PERIPHERAL.a(ll.o)
 .debug_frame   0x00004b94       0x4c C:\9047software\PSoC Creator\3.3\PSoC Creator\psoc\content\cycomponentlibrary\CyComponentLibrary.cylib\BLE_v2_0\Library\gccCyBLEStack_BLE_SOC_PERIPHERAL.a(ll.o)
 .debug_frame   0x00004be0       0x48 C:\9047software\PSoC Creator\3.3\PSoC Creator\psoc\content\cycomponentlibrary\CyComponentLibrary.cylib\BLE_v2_0\Library\gccCyBLEStack_BLE_SOC_PERIPHERAL.a(ll.o)
 .debug_frame   0x00004c28       0x44 C:\9047software\PSoC Creator\3.3\PSoC Creator\psoc\content\cycomponentlibrary\CyComponentLibrary.cylib\BLE_v2_0\Library\gccCyBLEStack_BLE_SOC_PERIPHERAL.a(ll.o)
 .debug_frame   0x00004c6c       0x48 C:\9047software\PSoC Creator\3.3\PSoC Creator\psoc\content\cycomponentlibrary\CyComponentLibrary.cylib\BLE_v2_0\Library\gccCyBLEStack_BLE_SOC_PERIPHERAL.a(ll.o)
 .debug_frame   0x00004cb4       0x44 C:\9047software\PSoC Creator\3.3\PSoC Creator\psoc\content\cycomponentlibrary\CyComponentLibrary.cylib\BLE_v2_0\Library\gccCyBLEStack_BLE_SOC_PERIPHERAL.a(ll.o)
 .debug_frame   0x00004cf8       0x44 C:\9047software\PSoC Creator\3.3\PSoC Creator\psoc\content\cycomponentlibrary\CyComponentLibrary.cylib\BLE_v2_0\Library\gccCyBLEStack_BLE_SOC_PERIPHERAL.a(ll_advertiser.o)
 .debug_frame   0x00004d3c       0x48 C:\9047software\PSoC Creator\3.3\PSoC Creator\psoc\content\cycomponentlibrary\CyComponentLibrary.cylib\BLE_v2_0\Library\gccCyBLEStack_BLE_SOC_PERIPHERAL.a(ll_advertiser.o)
 .debug_frame   0x00004d84       0x48 C:\9047software\PSoC Creator\3.3\PSoC Creator\psoc\content\cycomponentlibrary\CyComponentLibrary.cylib\BLE_v2_0\Library\gccCyBLEStack_BLE_SOC_PERIPHERAL.a(ll_advertiser.o)
 .debug_frame   0x00004dcc       0x44 C:\9047software\PSoC Creator\3.3\PSoC Creator\psoc\content\cycomponentlibrary\CyComponentLibrary.cylib\BLE_v2_0\Library\gccCyBLEStack_BLE_SOC_PERIPHERAL.a(ll_advertiser.o)
 .debug_frame   0x00004e10       0x44 C:\9047software\PSoC Creator\3.3\PSoC Creator\psoc\content\cycomponentlibrary\CyComponentLibrary.cylib\BLE_v2_0\Library\gccCyBLEStack_BLE_SOC_PERIPHERAL.a(ll_advertiser.o)
 .debug_frame   0x00004e54       0x44 C:\9047software\PSoC Creator\3.3\PSoC Creator\psoc\content\cycomponentlibrary\CyComponentLibrary.cylib\BLE_v2_0\Library\gccCyBLEStack_BLE_SOC_PERIPHERAL.a(ll_advertiser.o)
 .debug_frame   0x00004e98       0x44 C:\9047software\PSoC Creator\3.3\PSoC Creator\psoc\content\cycomponentlibrary\CyComponentLibrary.cylib\BLE_v2_0\Library\gccCyBLEStack_BLE_SOC_PERIPHERAL.a(ll_advertiser.o)
 .debug_frame   0x00004edc       0x44 C:\9047software\PSoC Creator\3.3\PSoC Creator\psoc\content\cycomponentlibrary\CyComponentLibrary.cylib\BLE_v2_0\Library\gccCyBLEStack_BLE_SOC_PERIPHERAL.a(ll_advertiser.o)
 .debug_frame   0x00004f20       0x48 C:\9047software\PSoC Creator\3.3\PSoC Creator\psoc\content\cycomponentlibrary\CyComponentLibrary.cylib\BLE_v2_0\Library\gccCyBLEStack_BLE_SOC_PERIPHERAL.a(ll_advertiser.o)
 .debug_frame   0x00004f68       0x48 C:\9047software\PSoC Creator\3.3\PSoC Creator\psoc\content\cycomponentlibrary\CyComponentLibrary.cylib\BLE_v2_0\Library\gccCyBLEStack_BLE_SOC_PERIPHERAL.a(ll_advertiser.o)
 .debug_frame   0x00004fb0       0x44 C:\9047software\PSoC Creator\3.3\PSoC Creator\psoc\content\cycomponentlibrary\CyComponentLibrary.cylib\BLE_v2_0\Library\gccCyBLEStack_BLE_SOC_PERIPHERAL.a(ll_advertiser.o)
 .debug_frame   0x00004ff4       0x44 C:\9047software\PSoC Creator\3.3\PSoC Creator\psoc\content\cycomponentlibrary\CyComponentLibrary.cylib\BLE_v2_0\Library\gccCyBLEStack_BLE_SOC_PERIPHERAL.a(ll_advertiser.o)
 .debug_frame   0x00005038       0x3c C:\9047software\PSoC Creator\3.3\PSoC Creator\psoc\content\cycomponentlibrary\CyComponentLibrary.cylib\BLE_v2_0\Library\gccCyBLEStack_BLE_SOC_PERIPHERAL.a(ll_connection.o)
 .debug_frame   0x00005074       0x3c C:\9047software\PSoC Creator\3.3\PSoC Creator\psoc\content\cycomponentlibrary\CyComponentLibrary.cylib\BLE_v2_0\Library\gccCyBLEStack_BLE_SOC_PERIPHERAL.a(ll_connection.o)
 .debug_frame   0x000050b0       0x3c C:\9047software\PSoC Creator\3.3\PSoC Creator\psoc\content\cycomponentlibrary\CyComponentLibrary.cylib\BLE_v2_0\Library\gccCyBLEStack_BLE_SOC_PERIPHERAL.a(ll_connection.o)
 .debug_frame   0x000050ec       0x3c C:\9047software\PSoC Creator\3.3\PSoC Creator\psoc\content\cycomponentlibrary\CyComponentLibrary.cylib\BLE_v2_0\Library\gccCyBLEStack_BLE_SOC_PERIPHERAL.a(ll_connection.o)
 .debug_frame   0x00005128       0x3c C:\9047software\PSoC Creator\3.3\PSoC Creator\psoc\content\cycomponentlibrary\CyComponentLibrary.cylib\BLE_v2_0\Library\gccCyBLEStack_BLE_SOC_PERIPHERAL.a(ll_connection.o)
 .debug_frame   0x00005164       0x48 C:\9047software\PSoC Creator\3.3\PSoC Creator\psoc\content\cycomponentlibrary\CyComponentLibrary.cylib\BLE_v2_0\Library\gccCyBLEStack_BLE_SOC_PERIPHERAL.a(ll_connection.o)
 .debug_frame   0x000051ac       0x3c C:\9047software\PSoC Creator\3.3\PSoC Creator\psoc\content\cycomponentlibrary\CyComponentLibrary.cylib\BLE_v2_0\Library\gccCyBLEStack_BLE_SOC_PERIPHERAL.a(ll_connection.o)
 .debug_frame   0x000051e8       0x4c C:\9047software\PSoC Creator\3.3\PSoC Creator\psoc\content\cycomponentlibrary\CyComponentLibrary.cylib\BLE_v2_0\Library\gccCyBLEStack_BLE_SOC_PERIPHERAL.a(ll_connection.o)
 .debug_frame   0x00005234       0x44 C:\9047software\PSoC Creator\3.3\PSoC Creator\psoc\content\cycomponentlibrary\CyComponentLibrary.cylib\BLE_v2_0\Library\gccCyBLEStack_BLE_SOC_PERIPHERAL.a(ll_connection.o)
 .debug_frame   0x00005278       0x3c C:\9047software\PSoC Creator\3.3\PSoC Creator\psoc\content\cycomponentlibrary\CyComponentLibrary.cylib\BLE_v2_0\Library\gccCyBLEStack_BLE_SOC_PERIPHERAL.a(ll_connection.o)
 .debug_frame   0x000052b4       0x44 C:\9047software\PSoC Creator\3.3\PSoC Creator\psoc\content\cycomponentlibrary\CyComponentLibrary.cylib\BLE_v2_0\Library\gccCyBLEStack_BLE_SOC_PERIPHERAL.a(ll_connection.o)
 .debug_frame   0x000052f8       0x3c C:\9047software\PSoC Creator\3.3\PSoC Creator\psoc\content\cycomponentlibrary\CyComponentLibrary.cylib\BLE_v2_0\Library\gccCyBLEStack_BLE_SOC_PERIPHERAL.a(ll_connection.o)
 .debug_frame   0x00005334       0x48 C:\9047software\PSoC Creator\3.3\PSoC Creator\psoc\content\cycomponentlibrary\CyComponentLibrary.cylib\BLE_v2_0\Library\gccCyBLEStack_BLE_SOC_PERIPHERAL.a(ll_connection.o)
 .debug_frame   0x0000537c       0x3c C:\9047software\PSoC Creator\3.3\PSoC Creator\psoc\content\cycomponentlibrary\CyComponentLibrary.cylib\BLE_v2_0\Library\gccCyBLEStack_BLE_SOC_PERIPHERAL.a(ll_connection.o)
 .debug_frame   0x000053b8       0x3c C:\9047software\PSoC Creator\3.3\PSoC Creator\psoc\content\cycomponentlibrary\CyComponentLibrary.cylib\BLE_v2_0\Library\gccCyBLEStack_BLE_SOC_PERIPHERAL.a(ll_connection.o)
 .debug_frame   0x000053f4       0x44 C:\9047software\PSoC Creator\3.3\PSoC Creator\psoc\content\cycomponentlibrary\CyComponentLibrary.cylib\BLE_v2_0\Library\gccCyBLEStack_BLE_SOC_PERIPHERAL.a(ll_connection.o)
 .debug_frame   0x00005438       0x44 C:\9047software\PSoC Creator\3.3\PSoC Creator\psoc\content\cycomponentlibrary\CyComponentLibrary.cylib\BLE_v2_0\Library\gccCyBLEStack_BLE_SOC_PERIPHERAL.a(ll_connection.o)
 .debug_frame   0x0000547c       0x44 C:\9047software\PSoC Creator\3.3\PSoC Creator\psoc\content\cycomponentlibrary\CyComponentLibrary.cylib\BLE_v2_0\Library\gccCyBLEStack_BLE_SOC_PERIPHERAL.a(ll_connection.o)
 .debug_frame   0x000054c0       0x4c C:\9047software\PSoC Creator\3.3\PSoC Creator\psoc\content\cycomponentlibrary\CyComponentLibrary.cylib\BLE_v2_0\Library\gccCyBLEStack_BLE_SOC_PERIPHERAL.a(ll_connection.o)
 .debug_frame   0x0000550c       0x44 C:\9047software\PSoC Creator\3.3\PSoC Creator\psoc\content\cycomponentlibrary\CyComponentLibrary.cylib\BLE_v2_0\Library\gccCyBLEStack_BLE_SOC_PERIPHERAL.a(ll_connection.o)
 .debug_frame   0x00005550       0x44 C:\9047software\PSoC Creator\3.3\PSoC Creator\psoc\content\cycomponentlibrary\CyComponentLibrary.cylib\BLE_v2_0\Library\gccCyBLEStack_BLE_SOC_PERIPHERAL.a(ll_connection.o)
 .debug_frame   0x00005594       0x44 C:\9047software\PSoC Creator\3.3\PSoC Creator\psoc\content\cycomponentlibrary\CyComponentLibrary.cylib\BLE_v2_0\Library\gccCyBLEStack_BLE_SOC_PERIPHERAL.a(ll_connection.o)
 .debug_frame   0x000055d8       0x48 C:\9047software\PSoC Creator\3.3\PSoC Creator\psoc\content\cycomponentlibrary\CyComponentLibrary.cylib\BLE_v2_0\Library\gccCyBLEStack_BLE_SOC_PERIPHERAL.a(ll_connection.o)
 .debug_frame   0x00005620       0x48 C:\9047software\PSoC Creator\3.3\PSoC Creator\psoc\content\cycomponentlibrary\CyComponentLibrary.cylib\BLE_v2_0\Library\gccCyBLEStack_BLE_SOC_PERIPHERAL.a(ll_connection.o)
 .debug_frame   0x00005668       0x4c C:\9047software\PSoC Creator\3.3\PSoC Creator\psoc\content\cycomponentlibrary\CyComponentLibrary.cylib\BLE_v2_0\Library\gccCyBLEStack_BLE_SOC_PERIPHERAL.a(ll_connection.o)
 .debug_frame   0x000056b4       0x3c C:\9047software\PSoC Creator\3.3\PSoC Creator\psoc\content\cycomponentlibrary\CyComponentLibrary.cylib\BLE_v2_0\Library\gccCyBLEStack_BLE_SOC_PERIPHERAL.a(ll_connection.o)
 .debug_frame   0x000056f0       0x44 C:\9047software\PSoC Creator\3.3\PSoC Creator\psoc\content\cycomponentlibrary\CyComponentLibrary.cylib\BLE_v2_0\Library\gccCyBLEStack_BLE_SOC_PERIPHERAL.a(ll_connection.o)
 .debug_frame   0x00005734       0x48 C:\9047software\PSoC Creator\3.3\PSoC Creator\psoc\content\cycomponentlibrary\CyComponentLibrary.cylib\BLE_v2_0\Library\gccCyBLEStack_BLE_SOC_PERIPHERAL.a(ll_connection.o)
 .debug_frame   0x0000577c       0x48 C:\9047software\PSoC Creator\3.3\PSoC Creator\psoc\content\cycomponentlibrary\CyComponentLibrary.cylib\BLE_v2_0\Library\gccCyBLEStack_BLE_SOC_PERIPHERAL.a(ll_connection.o)
 .debug_frame   0x000057c4       0x44 C:\9047software\PSoC Creator\3.3\PSoC Creator\psoc\content\cycomponentlibrary\CyComponentLibrary.cylib\BLE_v2_0\Library\gccCyBLEStack_BLE_SOC_PERIPHERAL.a(ll_connection.o)
 .debug_frame   0x00005808       0x44 C:\9047software\PSoC Creator\3.3\PSoC Creator\psoc\content\cycomponentlibrary\CyComponentLibrary.cylib\BLE_v2_0\Library\gccCyBLEStack_BLE_SOC_PERIPHERAL.a(ll_connection.o)
 .debug_frame   0x0000584c       0x44 C:\9047software\PSoC Creator\3.3\PSoC Creator\psoc\content\cycomponentlibrary\CyComponentLibrary.cylib\BLE_v2_0\Library\gccCyBLEStack_BLE_SOC_PERIPHERAL.a(ll_connection.o)
 .debug_frame   0x00005890       0x44 C:\9047software\PSoC Creator\3.3\PSoC Creator\psoc\content\cycomponentlibrary\CyComponentLibrary.cylib\BLE_v2_0\Library\gccCyBLEStack_BLE_SOC_PERIPHERAL.a(ll_connection.o)
 .debug_frame   0x000058d4       0x4c C:\9047software\PSoC Creator\3.3\PSoC Creator\psoc\content\cycomponentlibrary\CyComponentLibrary.cylib\BLE_v2_0\Library\gccCyBLEStack_BLE_SOC_PERIPHERAL.a(ll_connection.o)
 .debug_frame   0x00005920       0x44 C:\9047software\PSoC Creator\3.3\PSoC Creator\psoc\content\cycomponentlibrary\CyComponentLibrary.cylib\BLE_v2_0\Library\gccCyBLEStack_BLE_SOC_PERIPHERAL.a(ll_connection.o)
 .debug_frame   0x00005964       0x44 C:\9047software\PSoC Creator\3.3\PSoC Creator\psoc\content\cycomponentlibrary\CyComponentLibrary.cylib\BLE_v2_0\Library\gccCyBLEStack_BLE_SOC_PERIPHERAL.a(ll_connection.o)
 .debug_frame   0x000059a8       0x48 C:\9047software\PSoC Creator\3.3\PSoC Creator\psoc\content\cycomponentlibrary\CyComponentLibrary.cylib\BLE_v2_0\Library\gccCyBLEStack_BLE_SOC_PERIPHERAL.a(ll_connection.o)
 .debug_frame   0x000059f0       0x44 C:\9047software\PSoC Creator\3.3\PSoC Creator\psoc\content\cycomponentlibrary\CyComponentLibrary.cylib\BLE_v2_0\Library\gccCyBLEStack_BLE_SOC_PERIPHERAL.a(ll_connection.o)
 .debug_frame   0x00005a34       0x4c C:\9047software\PSoC Creator\3.3\PSoC Creator\psoc\content\cycomponentlibrary\CyComponentLibrary.cylib\BLE_v2_0\Library\gccCyBLEStack_BLE_SOC_PERIPHERAL.a(ll_connection.o)
 .debug_frame   0x00005a80       0x44 C:\9047software\PSoC Creator\3.3\PSoC Creator\psoc\content\cycomponentlibrary\CyComponentLibrary.cylib\BLE_v2_0\Library\gccCyBLEStack_BLE_SOC_PERIPHERAL.a(ll_connection.o)
 .debug_frame   0x00005ac4       0x3c C:\9047software\PSoC Creator\3.3\PSoC Creator\psoc\content\cycomponentlibrary\CyComponentLibrary.cylib\BLE_v2_0\Library\gccCyBLEStack_BLE_SOC_PERIPHERAL.a(ll_connection.o)
 .debug_frame   0x00005b00       0x4c C:\9047software\PSoC Creator\3.3\PSoC Creator\psoc\content\cycomponentlibrary\CyComponentLibrary.cylib\BLE_v2_0\Library\gccCyBLEStack_BLE_SOC_PERIPHERAL.a(ll_connection.o)
 .debug_frame   0x00005b4c       0x44 C:\9047software\PSoC Creator\3.3\PSoC Creator\psoc\content\cycomponentlibrary\CyComponentLibrary.cylib\BLE_v2_0\Library\gccCyBLEStack_BLE_SOC_PERIPHERAL.a(ll_connection.o)
 .debug_frame   0x00005b90       0x3c C:\9047software\PSoC Creator\3.3\PSoC Creator\psoc\content\cycomponentlibrary\CyComponentLibrary.cylib\BLE_v2_0\Library\gccCyBLEStack_BLE_SOC_PERIPHERAL.a(ll_connection.o)
 .debug_frame   0x00005bcc       0x48 C:\9047software\PSoC Creator\3.3\PSoC Creator\psoc\content\cycomponentlibrary\CyComponentLibrary.cylib\BLE_v2_0\Library\gccCyBLEStack_BLE_SOC_PERIPHERAL.a(ll_connection.o)
 .debug_frame   0x00005c14       0x44 C:\9047software\PSoC Creator\3.3\PSoC Creator\psoc\content\cycomponentlibrary\CyComponentLibrary.cylib\BLE_v2_0\Library\gccCyBLEStack_BLE_SOC_PERIPHERAL.a(ll_connection.o)
 .debug_frame   0x00005c58       0x48 C:\9047software\PSoC Creator\3.3\PSoC Creator\psoc\content\cycomponentlibrary\CyComponentLibrary.cylib\BLE_v2_0\Library\gccCyBLEStack_BLE_SOC_PERIPHERAL.a(ll_connection.o)
 .debug_frame   0x00005ca0       0x3c C:\9047software\PSoC Creator\3.3\PSoC Creator\psoc\content\cycomponentlibrary\CyComponentLibrary.cylib\BLE_v2_0\Library\gccCyBLEStack_BLE_SOC_PERIPHERAL.a(ll_connection.o)
 .debug_frame   0x00005cdc       0x44 C:\9047software\PSoC Creator\3.3\PSoC Creator\psoc\content\cycomponentlibrary\CyComponentLibrary.cylib\BLE_v2_0\Library\gccCyBLEStack_BLE_SOC_PERIPHERAL.a(ll_connection.o)
 .debug_frame   0x00005d20       0x3c C:\9047software\PSoC Creator\3.3\PSoC Creator\psoc\content\cycomponentlibrary\CyComponentLibrary.cylib\BLE_v2_0\Library\gccCyBLEStack_BLE_SOC_PERIPHERAL.a(ll_connection.o)
 .debug_frame   0x00005d5c       0x54 C:\9047software\PSoC Creator\3.3\PSoC Creator\psoc\content\cycomponentlibrary\CyComponentLibrary.cylib\BLE_v2_0\Library\gccCyBLEStack_BLE_SOC_PERIPHERAL.a(ll_connection.o)
 .debug_frame   0x00005db0       0x44 C:\9047software\PSoC Creator\3.3\PSoC Creator\psoc\content\cycomponentlibrary\CyComponentLibrary.cylib\BLE_v2_0\Library\gccCyBLEStack_BLE_SOC_PERIPHERAL.a(ll_connection.o)
 .debug_frame   0x00005df4       0x3c C:\9047software\PSoC Creator\3.3\PSoC Creator\psoc\content\cycomponentlibrary\CyComponentLibrary.cylib\BLE_v2_0\Library\gccCyBLEStack_BLE_SOC_PERIPHERAL.a(ll_connection.o)
 .debug_frame   0x00005e30       0x54 C:\9047software\PSoC Creator\3.3\PSoC Creator\psoc\content\cycomponentlibrary\CyComponentLibrary.cylib\BLE_v2_0\Library\gccCyBLEStack_BLE_SOC_PERIPHERAL.a(ll_connection.o)
 .debug_frame   0x00005e84       0x3c C:\9047software\PSoC Creator\3.3\PSoC Creator\psoc\content\cycomponentlibrary\CyComponentLibrary.cylib\BLE_v2_0\Library\gccCyBLEStack_BLE_SOC_PERIPHERAL.a(ll_connection.o)
 .debug_frame   0x00005ec0       0x3c C:\9047software\PSoC Creator\3.3\PSoC Creator\psoc\content\cycomponentlibrary\CyComponentLibrary.cylib\BLE_v2_0\Library\gccCyBLEStack_BLE_SOC_PERIPHERAL.a(ll_connection.o)
 .debug_frame   0x00005efc       0x44 C:\9047software\PSoC Creator\3.3\PSoC Creator\psoc\content\cycomponentlibrary\CyComponentLibrary.cylib\BLE_v2_0\Library\gccCyBLEStack_BLE_SOC_PERIPHERAL.a(ll_connection.o)
 .debug_frame   0x00005f40       0x3c C:\9047software\PSoC Creator\3.3\PSoC Creator\psoc\content\cycomponentlibrary\CyComponentLibrary.cylib\BLE_v2_0\Library\gccCyBLEStack_BLE_SOC_PERIPHERAL.a(ll_connection.o)
 .debug_frame   0x00005f7c       0x50 C:\9047software\PSoC Creator\3.3\PSoC Creator\psoc\content\cycomponentlibrary\CyComponentLibrary.cylib\BLE_v2_0\Library\gccCyBLEStack_BLE_SOC_PERIPHERAL.a(ll_connection.o)
 .debug_frame   0x00005fcc       0x50 C:\9047software\PSoC Creator\3.3\PSoC Creator\psoc\content\cycomponentlibrary\CyComponentLibrary.cylib\BLE_v2_0\Library\gccCyBLEStack_BLE_SOC_PERIPHERAL.a(ll_connection.o)
 .debug_frame   0x0000601c       0x54 C:\9047software\PSoC Creator\3.3\PSoC Creator\psoc\content\cycomponentlibrary\CyComponentLibrary.cylib\BLE_v2_0\Library\gccCyBLEStack_BLE_SOC_PERIPHERAL.a(ll_connection.o)
 .debug_frame   0x00006070       0x4c C:\9047software\PSoC Creator\3.3\PSoC Creator\psoc\content\cycomponentlibrary\CyComponentLibrary.cylib\BLE_v2_0\Library\gccCyBLEStack_BLE_SOC_PERIPHERAL.a(ll_connection.o)
 .debug_frame   0x000060bc       0x44 C:\9047software\PSoC Creator\3.3\PSoC Creator\psoc\content\cycomponentlibrary\CyComponentLibrary.cylib\BLE_v2_0\Library\gccCyBLEStack_BLE_SOC_PERIPHERAL.a(ll_connection.o)
 .debug_frame   0x00006100       0x44 C:\9047software\PSoC Creator\3.3\PSoC Creator\psoc\content\cycomponentlibrary\CyComponentLibrary.cylib\BLE_v2_0\Library\gccCyBLEStack_BLE_SOC_PERIPHERAL.a(ll_connection.o)
 .debug_frame   0x00006144       0x44 C:\9047software\PSoC Creator\3.3\PSoC Creator\psoc\content\cycomponentlibrary\CyComponentLibrary.cylib\BLE_v2_0\Library\gccCyBLEStack_BLE_SOC_PERIPHERAL.a(ll_connection.o)
 .debug_frame   0x00006188       0x48 C:\9047software\PSoC Creator\3.3\PSoC Creator\psoc\content\cycomponentlibrary\CyComponentLibrary.cylib\BLE_v2_0\Library\gccCyBLEStack_BLE_SOC_PERIPHERAL.a(ll_connection.o)
 .debug_frame   0x000061d0       0x48 C:\9047software\PSoC Creator\3.3\PSoC Creator\psoc\content\cycomponentlibrary\CyComponentLibrary.cylib\BLE_v2_0\Library\gccCyBLEStack_BLE_SOC_PERIPHERAL.a(ll_connection.o)
 .debug_frame   0x00006218       0x3c C:\9047software\PSoC Creator\3.3\PSoC Creator\psoc\content\cycomponentlibrary\CyComponentLibrary.cylib\BLE_v2_0\Library\gccCyBLEStack_BLE_SOC_PERIPHERAL.a(ll_connection.o)
 .debug_frame   0x00006254       0x4c C:\9047software\PSoC Creator\3.3\PSoC Creator\psoc\content\cycomponentlibrary\CyComponentLibrary.cylib\BLE_v2_0\Library\gccCyBLEStack_BLE_SOC_PERIPHERAL.a(ll_connection.o)
 .debug_frame   0x000062a0       0x44 C:\9047software\PSoC Creator\3.3\PSoC Creator\psoc\content\cycomponentlibrary\CyComponentLibrary.cylib\BLE_v2_0\Library\gccCyBLEStack_BLE_SOC_PERIPHERAL.a(ll_connection.o)
 .debug_frame   0x000062e4       0x44 C:\9047software\PSoC Creator\3.3\PSoC Creator\psoc\content\cycomponentlibrary\CyComponentLibrary.cylib\BLE_v2_0\Library\gccCyBLEStack_BLE_SOC_PERIPHERAL.a(ll_connection.o)
 .debug_frame   0x00006328       0x3c C:\9047software\PSoC Creator\3.3\PSoC Creator\psoc\content\cycomponentlibrary\CyComponentLibrary.cylib\BLE_v2_0\Library\gccCyBLEStack_BLE_SOC_PERIPHERAL.a(ll_connection.o)
 .debug_frame   0x00006364       0x3c C:\9047software\PSoC Creator\3.3\PSoC Creator\psoc\content\cycomponentlibrary\CyComponentLibrary.cylib\BLE_v2_0\Library\gccCyBLEStack_BLE_SOC_PERIPHERAL.a(ll_connection.o)
 .debug_frame   0x000063a0       0x3c C:\9047software\PSoC Creator\3.3\PSoC Creator\psoc\content\cycomponentlibrary\CyComponentLibrary.cylib\BLE_v2_0\Library\gccCyBLEStack_BLE_SOC_PERIPHERAL.a(ll_connection.o)
 .debug_frame   0x000063dc       0x4c C:\9047software\PSoC Creator\3.3\PSoC Creator\psoc\content\cycomponentlibrary\CyComponentLibrary.cylib\BLE_v2_0\Library\gccCyBLEStack_BLE_SOC_PERIPHERAL.a(ll_connection.o)
 .debug_frame   0x00006428       0x44 C:\9047software\PSoC Creator\3.3\PSoC Creator\psoc\content\cycomponentlibrary\CyComponentLibrary.cylib\BLE_v2_0\Library\gccCyBLEStack_BLE_SOC_PERIPHERAL.a(ll_connection.o)
 .debug_frame   0x0000646c       0x44 C:\9047software\PSoC Creator\3.3\PSoC Creator\psoc\content\cycomponentlibrary\CyComponentLibrary.cylib\BLE_v2_0\Library\gccCyBLEStack_BLE_SOC_PERIPHERAL.a(ll_connection.o)
 .debug_frame   0x000064b0       0x48 C:\9047software\PSoC Creator\3.3\PSoC Creator\psoc\content\cycomponentlibrary\CyComponentLibrary.cylib\BLE_v2_0\Library\gccCyBLEStack_BLE_SOC_PERIPHERAL.a(ll_connection.o)
 .debug_frame   0x000064f8       0x48 C:\9047software\PSoC Creator\3.3\PSoC Creator\psoc\content\cycomponentlibrary\CyComponentLibrary.cylib\BLE_v2_0\Library\gccCyBLEStack_BLE_SOC_PERIPHERAL.a(ll_connection.o)
 .debug_frame   0x00006540       0x48 C:\9047software\PSoC Creator\3.3\PSoC Creator\psoc\content\cycomponentlibrary\CyComponentLibrary.cylib\BLE_v2_0\Library\gccCyBLEStack_BLE_SOC_PERIPHERAL.a(ll_connection.o)
 .debug_frame   0x00006588       0x44 C:\9047software\PSoC Creator\3.3\PSoC Creator\psoc\content\cycomponentlibrary\CyComponentLibrary.cylib\BLE_v2_0\Library\gccCyBLEStack_BLE_SOC_PERIPHERAL.a(ll_connection.o)
 .debug_frame   0x000065cc       0x44 C:\9047software\PSoC Creator\3.3\PSoC Creator\psoc\content\cycomponentlibrary\CyComponentLibrary.cylib\BLE_v2_0\Library\gccCyBLEStack_BLE_SOC_PERIPHERAL.a(ll_connection.o)
 .debug_frame   0x00006610       0x54 C:\9047software\PSoC Creator\3.3\PSoC Creator\psoc\content\cycomponentlibrary\CyComponentLibrary.cylib\BLE_v2_0\Library\gccCyBLEStack_BLE_SOC_PERIPHERAL.a(ll_connection.o)
 .debug_frame   0x00006664       0x44 C:\9047software\PSoC Creator\3.3\PSoC Creator\psoc\content\cycomponentlibrary\CyComponentLibrary.cylib\BLE_v2_0\Library\gccCyBLEStack_BLE_SOC_PERIPHERAL.a(ll_connection.o)
 .debug_frame   0x000066a8       0x54 C:\9047software\PSoC Creator\3.3\PSoC Creator\psoc\content\cycomponentlibrary\CyComponentLibrary.cylib\BLE_v2_0\Library\gccCyBLEStack_BLE_SOC_PERIPHERAL.a(ll_connection.o)
 .debug_frame   0x000066fc       0x48 C:\9047software\PSoC Creator\3.3\PSoC Creator\psoc\content\cycomponentlibrary\CyComponentLibrary.cylib\BLE_v2_0\Library\gccCyBLEStack_BLE_SOC_PERIPHERAL.a(ll_connection.o)
 .debug_frame   0x00006744       0x48 C:\9047software\PSoC Creator\3.3\PSoC Creator\psoc\content\cycomponentlibrary\CyComponentLibrary.cylib\BLE_v2_0\Library\gccCyBLEStack_BLE_SOC_PERIPHERAL.a(ll_connection.o)
 .debug_frame   0x0000678c       0x48 C:\9047software\PSoC Creator\3.3\PSoC Creator\psoc\content\cycomponentlibrary\CyComponentLibrary.cylib\BLE_v2_0\Library\gccCyBLEStack_BLE_SOC_PERIPHERAL.a(ll_connection.o)
 .debug_frame   0x000067d4       0x44 C:\9047software\PSoC Creator\3.3\PSoC Creator\psoc\content\cycomponentlibrary\CyComponentLibrary.cylib\BLE_v2_0\Library\gccCyBLEStack_BLE_SOC_PERIPHERAL.a(ll_connection.o)
 .debug_frame   0x00006818       0x4c C:\9047software\PSoC Creator\3.3\PSoC Creator\psoc\content\cycomponentlibrary\CyComponentLibrary.cylib\BLE_v2_0\Library\gccCyBLEStack_BLE_SOC_PERIPHERAL.a(ll_connection.o)
 .debug_frame   0x00006864       0x48 C:\9047software\PSoC Creator\3.3\PSoC Creator\psoc\content\cycomponentlibrary\CyComponentLibrary.cylib\BLE_v2_0\Library\gccCyBLEStack_BLE_SOC_PERIPHERAL.a(ll_connection.o)
 .debug_frame   0x000068ac       0x44 C:\9047software\PSoC Creator\3.3\PSoC Creator\psoc\content\cycomponentlibrary\CyComponentLibrary.cylib\BLE_v2_0\Library\gccCyBLEStack_BLE_SOC_PERIPHERAL.a(ll_connection.o)
 .debug_frame   0x000068f0       0x44 C:\9047software\PSoC Creator\3.3\PSoC Creator\psoc\content\cycomponentlibrary\CyComponentLibrary.cylib\BLE_v2_0\Library\gccCyBLEStack_BLE_SOC_PERIPHERAL.a(ll_connection.o)
 .debug_frame   0x00006934       0x48 C:\9047software\PSoC Creator\3.3\PSoC Creator\psoc\content\cycomponentlibrary\CyComponentLibrary.cylib\BLE_v2_0\Library\gccCyBLEStack_BLE_SOC_PERIPHERAL.a(ll_connection.o)
 .debug_frame   0x0000697c       0x44 C:\9047software\PSoC Creator\3.3\PSoC Creator\psoc\content\cycomponentlibrary\CyComponentLibrary.cylib\BLE_v2_0\Library\gccCyBLEStack_BLE_SOC_PERIPHERAL.a(ll_connection.o)
 .debug_frame   0x000069c0       0x48 C:\9047software\PSoC Creator\3.3\PSoC Creator\psoc\content\cycomponentlibrary\CyComponentLibrary.cylib\BLE_v2_0\Library\gccCyBLEStack_BLE_SOC_PERIPHERAL.a(ll_connection.o)
 .debug_frame   0x00006a08       0x48 C:\9047software\PSoC Creator\3.3\PSoC Creator\psoc\content\cycomponentlibrary\CyComponentLibrary.cylib\BLE_v2_0\Library\gccCyBLEStack_BLE_SOC_PERIPHERAL.a(ll_connection.o)
 .debug_frame   0x00006a50       0x44 C:\9047software\PSoC Creator\3.3\PSoC Creator\psoc\content\cycomponentlibrary\CyComponentLibrary.cylib\BLE_v2_0\Library\gccCyBLEStack_BLE_SOC_PERIPHERAL.a(ll_connection.o)
 .debug_frame   0x00006a94       0x48 C:\9047software\PSoC Creator\3.3\PSoC Creator\psoc\content\cycomponentlibrary\CyComponentLibrary.cylib\BLE_v2_0\Library\gccCyBLEStack_BLE_SOC_PERIPHERAL.a(ll_connection.o)
 .debug_frame   0x00006adc       0x44 C:\9047software\PSoC Creator\3.3\PSoC Creator\psoc\content\cycomponentlibrary\CyComponentLibrary.cylib\BLE_v2_0\Library\gccCyBLEStack_BLE_SOC_PERIPHERAL.a(ll_connection.o)
 .debug_frame   0x00006b20       0x3c C:\9047software\PSoC Creator\3.3\PSoC Creator\psoc\content\cycomponentlibrary\CyComponentLibrary.cylib\BLE_v2_0\Library\gccCyBLEStack_BLE_SOC_PERIPHERAL.a(ll_connection.o)
 .debug_frame   0x00006b5c       0x3c C:\9047software\PSoC Creator\3.3\PSoC Creator\psoc\content\cycomponentlibrary\CyComponentLibrary.cylib\BLE_v2_0\Library\gccCyBLEStack_BLE_SOC_PERIPHERAL.a(ll_connection.o)
 .debug_frame   0x00006b98       0x44 C:\9047software\PSoC Creator\3.3\PSoC Creator\psoc\content\cycomponentlibrary\CyComponentLibrary.cylib\BLE_v2_0\Library\gccCyBLEStack_BLE_SOC_PERIPHERAL.a(ll_connection.o)
 .debug_frame   0x00006bdc       0x48 C:\9047software\PSoC Creator\3.3\PSoC Creator\psoc\content\cycomponentlibrary\CyComponentLibrary.cylib\BLE_v2_0\Library\gccCyBLEStack_BLE_SOC_PERIPHERAL.a(ll_connection.o)
 .debug_frame   0x00006c24       0x48 C:\9047software\PSoC Creator\3.3\PSoC Creator\psoc\content\cycomponentlibrary\CyComponentLibrary.cylib\BLE_v2_0\Library\gccCyBLEStack_BLE_SOC_PERIPHERAL.a(ll_connection.o)
 .debug_frame   0x00006c6c       0x3c C:\9047software\PSoC Creator\3.3\PSoC Creator\psoc\content\cycomponentlibrary\CyComponentLibrary.cylib\BLE_v2_0\Library\gccCyBLEStack_BLE_SOC_PERIPHERAL.a(ll_connection.o)
 .debug_frame   0x00006ca8       0x3c C:\9047software\PSoC Creator\3.3\PSoC Creator\psoc\content\cycomponentlibrary\CyComponentLibrary.cylib\BLE_v2_0\Library\gccCyBLEStack_BLE_SOC_PERIPHERAL.a(ll_connection.o)
 .debug_frame   0x00006ce4       0x3c C:\9047software\PSoC Creator\3.3\PSoC Creator\psoc\content\cycomponentlibrary\CyComponentLibrary.cylib\BLE_v2_0\Library\gccCyBLEStack_BLE_SOC_PERIPHERAL.a(ll_connection.o)
 .debug_frame   0x00006d20       0x44 C:\9047software\PSoC Creator\3.3\PSoC Creator\psoc\content\cycomponentlibrary\CyComponentLibrary.cylib\BLE_v2_0\Library\gccCyBLEStack_BLE_SOC_PERIPHERAL.a(ll_connection.o)
 .debug_frame   0x00006d64       0x48 C:\9047software\PSoC Creator\3.3\PSoC Creator\psoc\content\cycomponentlibrary\CyComponentLibrary.cylib\BLE_v2_0\Library\gccCyBLEStack_BLE_SOC_PERIPHERAL.a(ll_connection.o)
 .debug_frame   0x00006dac       0x44 C:\9047software\PSoC Creator\3.3\PSoC Creator\psoc\content\cycomponentlibrary\CyComponentLibrary.cylib\BLE_v2_0\Library\gccCyBLEStack_BLE_SOC_PERIPHERAL.a(ll_connection.o)
 .debug_frame   0x00006df0       0x3c C:\9047software\PSoC Creator\3.3\PSoC Creator\psoc\content\cycomponentlibrary\CyComponentLibrary.cylib\BLE_v2_0\Library\gccCyBLEStack_BLE_SOC_PERIPHERAL.a(ll_connection.o)
 .debug_frame   0x00006e2c       0x44 C:\9047software\PSoC Creator\3.3\PSoC Creator\psoc\content\cycomponentlibrary\CyComponentLibrary.cylib\BLE_v2_0\Library\gccCyBLEStack_BLE_SOC_PERIPHERAL.a(llh_api.o)
 .debug_frame   0x00006e70       0x44 C:\9047software\PSoC Creator\3.3\PSoC Creator\psoc\content\cycomponentlibrary\CyComponentLibrary.cylib\BLE_v2_0\Library\gccCyBLEStack_BLE_SOC_PERIPHERAL.a(llh_api.o)
 .debug_frame   0x00006eb4       0x44 C:\9047software\PSoC Creator\3.3\PSoC Creator\psoc\content\cycomponentlibrary\CyComponentLibrary.cylib\BLE_v2_0\Library\gccCyBLEStack_BLE_SOC_PERIPHERAL.a(llh_api.o)
 .debug_frame   0x00006ef8       0x44 C:\9047software\PSoC Creator\3.3\PSoC Creator\psoc\content\cycomponentlibrary\CyComponentLibrary.cylib\BLE_v2_0\Library\gccCyBLEStack_BLE_SOC_PERIPHERAL.a(llh_api.o)
 .debug_frame   0x00006f3c       0x44 C:\9047software\PSoC Creator\3.3\PSoC Creator\psoc\content\cycomponentlibrary\CyComponentLibrary.cylib\BLE_v2_0\Library\gccCyBLEStack_BLE_SOC_PERIPHERAL.a(llh_api.o)
 .debug_frame   0x00006f80       0x48 C:\9047software\PSoC Creator\3.3\PSoC Creator\psoc\content\cycomponentlibrary\CyComponentLibrary.cylib\BLE_v2_0\Library\gccCyBLEStack_BLE_SOC_PERIPHERAL.a(llh_api.o)
 .debug_frame   0x00006fc8       0x48 C:\9047software\PSoC Creator\3.3\PSoC Creator\psoc\content\cycomponentlibrary\CyComponentLibrary.cylib\BLE_v2_0\Library\gccCyBLEStack_BLE_SOC_PERIPHERAL.a(llh_api.o)
 .debug_frame   0x00007010       0x44 C:\9047software\PSoC Creator\3.3\PSoC Creator\psoc\content\cycomponentlibrary\CyComponentLibrary.cylib\BLE_v2_0\Library\gccCyBLEStack_BLE_SOC_PERIPHERAL.a(llh_api.o)
 .debug_frame   0x00007054       0x44 C:\9047software\PSoC Creator\3.3\PSoC Creator\psoc\content\cycomponentlibrary\CyComponentLibrary.cylib\BLE_v2_0\Library\gccCyBLEStack_BLE_SOC_PERIPHERAL.a(llh_api.o)
 .debug_frame   0x00007098       0x44 C:\9047software\PSoC Creator\3.3\PSoC Creator\psoc\content\cycomponentlibrary\CyComponentLibrary.cylib\BLE_v2_0\Library\gccCyBLEStack_BLE_SOC_PERIPHERAL.a(llh_api.o)
 .debug_frame   0x000070dc       0x44 C:\9047software\PSoC Creator\3.3\PSoC Creator\psoc\content\cycomponentlibrary\CyComponentLibrary.cylib\BLE_v2_0\Library\gccCyBLEStack_BLE_SOC_PERIPHERAL.a(llh_api.o)
 .debug_frame   0x00007120       0x44 C:\9047software\PSoC Creator\3.3\PSoC Creator\psoc\content\cycomponentlibrary\CyComponentLibrary.cylib\BLE_v2_0\Library\gccCyBLEStack_BLE_SOC_PERIPHERAL.a(llh_api.o)
 .debug_frame   0x00007164       0x44 C:\9047software\PSoC Creator\3.3\PSoC Creator\psoc\content\cycomponentlibrary\CyComponentLibrary.cylib\BLE_v2_0\Library\gccCyBLEStack_BLE_SOC_PERIPHERAL.a(llh_api.o)
 .debug_frame   0x000071a8       0x48 C:\9047software\PSoC Creator\3.3\PSoC Creator\psoc\content\cycomponentlibrary\CyComponentLibrary.cylib\BLE_v2_0\Library\gccCyBLEStack_BLE_SOC_PERIPHERAL.a(llh_api.o)
 .debug_frame   0x000071f0       0x44 C:\9047software\PSoC Creator\3.3\PSoC Creator\psoc\content\cycomponentlibrary\CyComponentLibrary.cylib\BLE_v2_0\Library\gccCyBLEStack_BLE_SOC_PERIPHERAL.a(llh_api.o)
 .debug_frame   0x00007234       0x44 C:\9047software\PSoC Creator\3.3\PSoC Creator\psoc\content\cycomponentlibrary\CyComponentLibrary.cylib\BLE_v2_0\Library\gccCyBLEStack_BLE_SOC_PERIPHERAL.a(llh_api.o)
 .debug_frame   0x00007278       0x44 C:\9047software\PSoC Creator\3.3\PSoC Creator\psoc\content\cycomponentlibrary\CyComponentLibrary.cylib\BLE_v2_0\Library\gccCyBLEStack_BLE_SOC_PERIPHERAL.a(llh_api.o)
 .debug_frame   0x000072bc       0x44 C:\9047software\PSoC Creator\3.3\PSoC Creator\psoc\content\cycomponentlibrary\CyComponentLibrary.cylib\BLE_v2_0\Library\gccCyBLEStack_BLE_SOC_PERIPHERAL.a(llh_api.o)
 .debug_frame   0x00007300       0x44 C:\9047software\PSoC Creator\3.3\PSoC Creator\psoc\content\cycomponentlibrary\CyComponentLibrary.cylib\BLE_v2_0\Library\gccCyBLEStack_BLE_SOC_PERIPHERAL.a(llh_api.o)
 .debug_frame   0x00007344       0x44 C:\9047software\PSoC Creator\3.3\PSoC Creator\psoc\content\cycomponentlibrary\CyComponentLibrary.cylib\BLE_v2_0\Library\gccCyBLEStack_BLE_SOC_PERIPHERAL.a(llh_api.o)
 .debug_frame   0x00007388       0x44 C:\9047software\PSoC Creator\3.3\PSoC Creator\psoc\content\cycomponentlibrary\CyComponentLibrary.cylib\BLE_v2_0\Library\gccCyBLEStack_BLE_SOC_PERIPHERAL.a(llh_api.o)
 .debug_frame   0x000073cc       0x48 C:\9047software\PSoC Creator\3.3\PSoC Creator\psoc\content\cycomponentlibrary\CyComponentLibrary.cylib\BLE_v2_0\Library\gccCyBLEStack_BLE_SOC_PERIPHERAL.a(llh_api.o)
 .debug_frame   0x00007414       0x48 C:\9047software\PSoC Creator\3.3\PSoC Creator\psoc\content\cycomponentlibrary\CyComponentLibrary.cylib\BLE_v2_0\Library\gccCyBLEStack_BLE_SOC_PERIPHERAL.a(llh_api.o)
 .debug_frame   0x0000745c       0x44 C:\9047software\PSoC Creator\3.3\PSoC Creator\psoc\content\cycomponentlibrary\CyComponentLibrary.cylib\BLE_v2_0\Library\gccCyBLEStack_BLE_SOC_PERIPHERAL.a(llh_api.o)
 .debug_frame   0x000074a0       0x44 C:\9047software\PSoC Creator\3.3\PSoC Creator\psoc\content\cycomponentlibrary\CyComponentLibrary.cylib\BLE_v2_0\Library\gccCyBLEStack_BLE_SOC_PERIPHERAL.a(llh_api.o)
 .debug_frame   0x000074e4       0x48 C:\9047software\PSoC Creator\3.3\PSoC Creator\psoc\content\cycomponentlibrary\CyComponentLibrary.cylib\BLE_v2_0\Library\gccCyBLEStack_BLE_SOC_PERIPHERAL.a(llh_api.o)
 .debug_frame   0x0000752c       0x48 C:\9047software\PSoC Creator\3.3\PSoC Creator\psoc\content\cycomponentlibrary\CyComponentLibrary.cylib\BLE_v2_0\Library\gccCyBLEStack_BLE_SOC_PERIPHERAL.a(llh_api.o)
 .debug_frame   0x00007574       0x44 C:\9047software\PSoC Creator\3.3\PSoC Creator\psoc\content\cycomponentlibrary\CyComponentLibrary.cylib\BLE_v2_0\Library\gccCyBLEStack_BLE_SOC_PERIPHERAL.a(llh_api.o)
 .debug_frame   0x000075b8       0x44 C:\9047software\PSoC Creator\3.3\PSoC Creator\psoc\content\cycomponentlibrary\CyComponentLibrary.cylib\BLE_v2_0\Library\gccCyBLEStack_BLE_SOC_PERIPHERAL.a(llh_api.o)
 .debug_frame   0x000075fc       0x44 C:\9047software\PSoC Creator\3.3\PSoC Creator\psoc\content\cycomponentlibrary\CyComponentLibrary.cylib\BLE_v2_0\Library\gccCyBLEStack_BLE_SOC_PERIPHERAL.a(llh_api.o)
 .debug_frame   0x00007640       0x44 C:\9047software\PSoC Creator\3.3\PSoC Creator\psoc\content\cycomponentlibrary\CyComponentLibrary.cylib\BLE_v2_0\Library\gccCyBLEStack_BLE_SOC_PERIPHERAL.a(llh_api.o)
 .debug_frame   0x00007684       0x44 C:\9047software\PSoC Creator\3.3\PSoC Creator\psoc\content\cycomponentlibrary\CyComponentLibrary.cylib\BLE_v2_0\Library\gccCyBLEStack_BLE_SOC_PERIPHERAL.a(llh_api.o)
 .debug_frame   0x000076c8       0x4c C:\9047software\PSoC Creator\3.3\PSoC Creator\psoc\content\cycomponentlibrary\CyComponentLibrary.cylib\BLE_v2_0\Library\gccCyBLEStack_BLE_SOC_PERIPHERAL.a(llh_api.o)
 .debug_frame   0x00007714       0x44 C:\9047software\PSoC Creator\3.3\PSoC Creator\psoc\content\cycomponentlibrary\CyComponentLibrary.cylib\BLE_v2_0\Library\gccCyBLEStack_BLE_SOC_PERIPHERAL.a(llh_api.o)
 .debug_frame   0x00007758       0x50 C:\9047software\PSoC Creator\3.3\PSoC Creator\psoc\content\cycomponentlibrary\CyComponentLibrary.cylib\BLE_v2_0\Library\gccCyBLEStack_BLE_SOC_PERIPHERAL.a(llh_api.o)
 .debug_frame   0x000077a8       0x3c C:\9047software\PSoC Creator\3.3\PSoC Creator\psoc\content\cycomponentlibrary\CyComponentLibrary.cylib\BLE_v2_0\Library\gccCyBLEStack_BLE_SOC_PERIPHERAL.a(llh_api.o)
 .debug_frame   0x000077e4       0x44 C:\9047software\PSoC Creator\3.3\PSoC Creator\psoc\content\cycomponentlibrary\CyComponentLibrary.cylib\BLE_v2_0\Library\gccCyBLEStack_BLE_SOC_PERIPHERAL.a(llh_api.o)
 .debug_frame   0x00007828       0x44 C:\9047software\PSoC Creator\3.3\PSoC Creator\psoc\content\cycomponentlibrary\CyComponentLibrary.cylib\BLE_v2_0\Library\gccCyBLEStack_BLE_SOC_PERIPHERAL.a(llh_api.o)
 .debug_frame   0x0000786c       0x48 C:\9047software\PSoC Creator\3.3\PSoC Creator\psoc\content\cycomponentlibrary\CyComponentLibrary.cylib\BLE_v2_0\Library\gccCyBLEStack_BLE_SOC_PERIPHERAL.a(llh_api.o)
 .debug_frame   0x000078b4       0x3c C:\9047software\PSoC Creator\3.3\PSoC Creator\psoc\content\cycomponentlibrary\CyComponentLibrary.cylib\BLE_v2_0\Library\gccCyBLEStack_BLE_SOC_PERIPHERAL.a(llh_api.o)
 .debug_frame   0x000078f0       0x3c C:\9047software\PSoC Creator\3.3\PSoC Creator\psoc\content\cycomponentlibrary\CyComponentLibrary.cylib\BLE_v2_0\Library\gccCyBLEStack_BLE_SOC_PERIPHERAL.a(llh_api.o)
 .debug_frame   0x0000792c       0x44 C:\9047software\PSoC Creator\3.3\PSoC Creator\psoc\content\cycomponentlibrary\CyComponentLibrary.cylib\BLE_v2_0\Library\gccCyBLEStack_BLE_SOC_PERIPHERAL.a(llh_api.o)
 .debug_frame   0x00007970       0x44 C:\9047software\PSoC Creator\3.3\PSoC Creator\psoc\content\cycomponentlibrary\CyComponentLibrary.cylib\BLE_v2_0\Library\gccCyBLEStack_BLE_SOC_PERIPHERAL.a(llh_api.o)
 .debug_frame   0x000079b4       0x44 C:\9047software\PSoC Creator\3.3\PSoC Creator\psoc\content\cycomponentlibrary\CyComponentLibrary.cylib\BLE_v2_0\Library\gccCyBLEStack_BLE_SOC_PERIPHERAL.a(llh_api.o)
 .debug_frame   0x000079f8       0x44 C:\9047software\PSoC Creator\3.3\PSoC Creator\psoc\content\cycomponentlibrary\CyComponentLibrary.cylib\BLE_v2_0\Library\gccCyBLEStack_BLE_SOC_PERIPHERAL.a(llh_api.o)
 .debug_frame   0x00007a3c       0x44 C:\9047software\PSoC Creator\3.3\PSoC Creator\psoc\content\cycomponentlibrary\CyComponentLibrary.cylib\BLE_v2_0\Library\gccCyBLEStack_BLE_SOC_PERIPHERAL.a(llh_api.o)
 .debug_frame   0x00007a80       0x44 C:\9047software\PSoC Creator\3.3\PSoC Creator\psoc\content\cycomponentlibrary\CyComponentLibrary.cylib\BLE_v2_0\Library\gccCyBLEStack_BLE_SOC_PERIPHERAL.a(llh_api.o)
 .debug_frame   0x00007ac4       0x44 C:\9047software\PSoC Creator\3.3\PSoC Creator\psoc\content\cycomponentlibrary\CyComponentLibrary.cylib\BLE_v2_0\Library\gccCyBLEStack_BLE_SOC_PERIPHERAL.a(llh_api.o)
 .debug_frame   0x00007b08       0x48 C:\9047software\PSoC Creator\3.3\PSoC Creator\psoc\content\cycomponentlibrary\CyComponentLibrary.cylib\BLE_v2_0\Library\gccCyBLEStack_BLE_SOC_PERIPHERAL.a(llh_api.o)
 .debug_frame   0x00007b50       0x4c C:\9047software\PSoC Creator\3.3\PSoC Creator\psoc\content\cycomponentlibrary\CyComponentLibrary.cylib\BLE_v2_0\Library\gccCyBLEStack_BLE_SOC_PERIPHERAL.a(llh_api.o)
 .debug_frame   0x00007b9c       0x48 C:\9047software\PSoC Creator\3.3\PSoC Creator\psoc\content\cycomponentlibrary\CyComponentLibrary.cylib\BLE_v2_0\Library\gccCyBLEStack_BLE_SOC_PERIPHERAL.a(llh_api.o)
 .debug_frame   0x00007be4       0x48 C:\9047software\PSoC Creator\3.3\PSoC Creator\psoc\content\cycomponentlibrary\CyComponentLibrary.cylib\BLE_v2_0\Library\gccCyBLEStack_BLE_SOC_PERIPHERAL.a(llh_api.o)
 .debug_frame   0x00007c2c       0x48 C:\9047software\PSoC Creator\3.3\PSoC Creator\psoc\content\cycomponentlibrary\CyComponentLibrary.cylib\BLE_v2_0\Library\gccCyBLEStack_BLE_SOC_PERIPHERAL.a(llh_api.o)
 .debug_frame   0x00007c74       0x44 C:\9047software\PSoC Creator\3.3\PSoC Creator\psoc\content\cycomponentlibrary\CyComponentLibrary.cylib\BLE_v2_0\Library\gccCyBLEStack_BLE_SOC_PERIPHERAL.a(llh_api.o)
 .debug_frame   0x00007cb8       0x44 C:\9047software\PSoC Creator\3.3\PSoC Creator\psoc\content\cycomponentlibrary\CyComponentLibrary.cylib\BLE_v2_0\Library\gccCyBLEStack_BLE_SOC_PERIPHERAL.a(llh_api.o)
 .debug_frame   0x00007cfc       0x44 C:\9047software\PSoC Creator\3.3\PSoC Creator\psoc\content\cycomponentlibrary\CyComponentLibrary.cylib\BLE_v2_0\Library\gccCyBLEStack_BLE_SOC_PERIPHERAL.a(llh_api.o)
 .debug_frame   0x00007d40       0x44 C:\9047software\PSoC Creator\3.3\PSoC Creator\psoc\content\cycomponentlibrary\CyComponentLibrary.cylib\BLE_v2_0\Library\gccCyBLEStack_BLE_SOC_PERIPHERAL.a(llh_api.o)
 .debug_frame   0x00007d84       0x48 C:\9047software\PSoC Creator\3.3\PSoC Creator\psoc\content\cycomponentlibrary\CyComponentLibrary.cylib\BLE_v2_0\Library\gccCyBLEStack_BLE_SOC_PERIPHERAL.a(llh_api.o)
 .debug_frame   0x00007dcc       0x44 C:\9047software\PSoC Creator\3.3\PSoC Creator\psoc\content\cycomponentlibrary\CyComponentLibrary.cylib\BLE_v2_0\Library\gccCyBLEStack_BLE_SOC_PERIPHERAL.a(llh_api.o)
 .debug_frame   0x00007e10       0x48 C:\9047software\PSoC Creator\3.3\PSoC Creator\psoc\content\cycomponentlibrary\CyComponentLibrary.cylib\BLE_v2_0\Library\gccCyBLEStack_BLE_SOC_PERIPHERAL.a(llh_api.o)
 .debug_frame   0x00007e58       0x48 C:\9047software\PSoC Creator\3.3\PSoC Creator\psoc\content\cycomponentlibrary\CyComponentLibrary.cylib\BLE_v2_0\Library\gccCyBLEStack_BLE_SOC_PERIPHERAL.a(llh_api.o)
 .debug_frame   0x00007ea0       0x44 C:\9047software\PSoC Creator\3.3\PSoC Creator\psoc\content\cycomponentlibrary\CyComponentLibrary.cylib\BLE_v2_0\Library\gccCyBLEStack_BLE_SOC_PERIPHERAL.a(llh_api.o)
 .debug_frame   0x00007ee4       0x48 C:\9047software\PSoC Creator\3.3\PSoC Creator\psoc\content\cycomponentlibrary\CyComponentLibrary.cylib\BLE_v2_0\Library\gccCyBLEStack_BLE_SOC_PERIPHERAL.a(llh_api.o)
 .debug_frame   0x00007f2c       0x48 C:\9047software\PSoC Creator\3.3\PSoC Creator\psoc\content\cycomponentlibrary\CyComponentLibrary.cylib\BLE_v2_0\Library\gccCyBLEStack_BLE_SOC_PERIPHERAL.a(llh_api.o)
 .debug_frame   0x00007f74       0x44 C:\9047software\PSoC Creator\3.3\PSoC Creator\psoc\content\cycomponentlibrary\CyComponentLibrary.cylib\BLE_v2_0\Library\gccCyBLEStack_BLE_SOC_PERIPHERAL.a(llh_api.o)
 .debug_frame   0x00007fb8       0x4c C:\9047software\PSoC Creator\3.3\PSoC Creator\psoc\content\cycomponentlibrary\CyComponentLibrary.cylib\BLE_v2_0\Library\gccCyBLEStack_BLE_SOC_PERIPHERAL.a(llh_api.o)
 .debug_frame   0x00008004       0x44 C:\9047software\PSoC Creator\3.3\PSoC Creator\psoc\content\cycomponentlibrary\CyComponentLibrary.cylib\BLE_v2_0\Library\gccCyBLEStack_BLE_SOC_PERIPHERAL.a(llh_api.o)
 .debug_frame   0x00008048       0x44 C:\9047software\PSoC Creator\3.3\PSoC Creator\psoc\content\cycomponentlibrary\CyComponentLibrary.cylib\BLE_v2_0\Library\gccCyBLEStack_BLE_SOC_PERIPHERAL.a(llh_api.o)
 .debug_frame   0x0000808c       0x4c C:\9047software\PSoC Creator\3.3\PSoC Creator\psoc\content\cycomponentlibrary\CyComponentLibrary.cylib\BLE_v2_0\Library\gccCyBLEStack_BLE_SOC_PERIPHERAL.a(llh_api.o)
 .debug_frame   0x000080d8       0x44 C:\9047software\PSoC Creator\3.3\PSoC Creator\psoc\content\cycomponentlibrary\CyComponentLibrary.cylib\BLE_v2_0\Library\gccCyBLEStack_BLE_SOC_PERIPHERAL.a(llh_api.o)
 .debug_frame   0x0000811c       0x50 C:\9047software\PSoC Creator\3.3\PSoC Creator\psoc\content\cycomponentlibrary\CyComponentLibrary.cylib\BLE_v2_0\Library\gccCyBLEStack_BLE_SOC_PERIPHERAL.a(llh_api.o)
 .debug_frame   0x0000816c       0x48 C:\9047software\PSoC Creator\3.3\PSoC Creator\psoc\content\cycomponentlibrary\CyComponentLibrary.cylib\BLE_v2_0\Library\gccCyBLEStack_BLE_SOC_PERIPHERAL.a(llh_api.o)
 .debug_frame   0x000081b4       0x44 C:\9047software\PSoC Creator\3.3\PSoC Creator\psoc\content\cycomponentlibrary\CyComponentLibrary.cylib\BLE_v2_0\Library\gccCyBLEStack_BLE_SOC_PERIPHERAL.a(llh_api.o)
 .debug_frame   0x000081f8       0x44 C:\9047software\PSoC Creator\3.3\PSoC Creator\psoc\content\cycomponentlibrary\CyComponentLibrary.cylib\BLE_v2_0\Library\gccCyBLEStack_BLE_SOC_PERIPHERAL.a(llh_api.o)
 .debug_frame   0x0000823c       0x48 C:\9047software\PSoC Creator\3.3\PSoC Creator\psoc\content\cycomponentlibrary\CyComponentLibrary.cylib\BLE_v2_0\Library\gccCyBLEStack_BLE_SOC_PERIPHERAL.a(llh_api.o)
 .debug_frame   0x00008284       0x44 C:\9047software\PSoC Creator\3.3\PSoC Creator\psoc\content\cycomponentlibrary\CyComponentLibrary.cylib\BLE_v2_0\Library\gccCyBLEStack_BLE_SOC_PERIPHERAL.a(llh_api.o)
 .debug_frame   0x000082c8       0x44 C:\9047software\PSoC Creator\3.3\PSoC Creator\psoc\content\cycomponentlibrary\CyComponentLibrary.cylib\BLE_v2_0\Library\gccCyBLEStack_BLE_SOC_PERIPHERAL.a(llh_api.o)
 .debug_frame   0x0000830c       0x44 C:\9047software\PSoC Creator\3.3\PSoC Creator\psoc\content\cycomponentlibrary\CyComponentLibrary.cylib\BLE_v2_0\Library\gccCyBLEStack_BLE_SOC_PERIPHERAL.a(llh_api.o)
 .debug_frame   0x00008350       0x48 C:\9047software\PSoC Creator\3.3\PSoC Creator\psoc\content\cycomponentlibrary\CyComponentLibrary.cylib\BLE_v2_0\Library\gccCyBLEStack_BLE_SOC_PERIPHERAL.a(llh_api.o)
 .debug_frame   0x00008398       0x44 C:\9047software\PSoC Creator\3.3\PSoC Creator\psoc\content\cycomponentlibrary\CyComponentLibrary.cylib\BLE_v2_0\Library\gccCyBLEStack_BLE_SOC_PERIPHERAL.a(llh_api.o)
 .debug_frame   0x000083dc       0x44 C:\9047software\PSoC Creator\3.3\PSoC Creator\psoc\content\cycomponentlibrary\CyComponentLibrary.cylib\BLE_v2_0\Library\gccCyBLEStack_BLE_SOC_PERIPHERAL.a(llh_api.o)
 .debug_frame   0x00008420       0x44 C:\9047software\PSoC Creator\3.3\PSoC Creator\psoc\content\cycomponentlibrary\CyComponentLibrary.cylib\BLE_v2_0\Library\gccCyBLEStack_BLE_SOC_PERIPHERAL.a(llh_api.o)
 .debug_frame   0x00008464       0x44 C:\9047software\PSoC Creator\3.3\PSoC Creator\psoc\content\cycomponentlibrary\CyComponentLibrary.cylib\BLE_v2_0\Library\gccCyBLEStack_BLE_SOC_PERIPHERAL.a(llh_api.o)
 .debug_frame   0x000084a8       0x44 C:\9047software\PSoC Creator\3.3\PSoC Creator\psoc\content\cycomponentlibrary\CyComponentLibrary.cylib\BLE_v2_0\Library\gccCyBLEStack_BLE_SOC_PERIPHERAL.a(llh_api.o)
 .debug_frame   0x000084ec       0x44 C:\9047software\PSoC Creator\3.3\PSoC Creator\psoc\content\cycomponentlibrary\CyComponentLibrary.cylib\BLE_v2_0\Library\gccCyBLEStack_BLE_SOC_PERIPHERAL.a(llh_api.o)
 .debug_frame   0x00008530       0x44 C:\9047software\PSoC Creator\3.3\PSoC Creator\psoc\content\cycomponentlibrary\CyComponentLibrary.cylib\BLE_v2_0\Library\gccCyBLEStack_BLE_SOC_PERIPHERAL.a(llh_api.o)
 .debug_frame   0x00008574       0x3c C:\9047software\PSoC Creator\3.3\PSoC Creator\psoc\content\cycomponentlibrary\CyComponentLibrary.cylib\BLE_v2_0\Library\gccCyBLEStack_BLE_SOC_PERIPHERAL.a(llh_api.o)
 .debug_frame   0x000085b0       0x44 C:\9047software\PSoC Creator\3.3\PSoC Creator\psoc\content\cycomponentlibrary\CyComponentLibrary.cylib\BLE_v2_0\Library\gccCyBLEStack_BLE_SOC_PERIPHERAL.a(llh_api.o)
 .debug_frame   0x000085f4       0x44 C:\9047software\PSoC Creator\3.3\PSoC Creator\psoc\content\cycomponentlibrary\CyComponentLibrary.cylib\BLE_v2_0\Library\gccCyBLEStack_BLE_SOC_PERIPHERAL.a(llh_api.o)
 .debug_frame   0x00008638       0x44 C:\9047software\PSoC Creator\3.3\PSoC Creator\psoc\content\cycomponentlibrary\CyComponentLibrary.cylib\BLE_v2_0\Library\gccCyBLEStack_BLE_SOC_PERIPHERAL.a(llh_api.o)
 .debug_frame   0x0000867c       0x48 C:\9047software\PSoC Creator\3.3\PSoC Creator\psoc\content\cycomponentlibrary\CyComponentLibrary.cylib\BLE_v2_0\Library\gccCyBLEStack_BLE_SOC_PERIPHERAL.a(llh_api.o)
 .debug_frame   0x000086c4       0x44 C:\9047software\PSoC Creator\3.3\PSoC Creator\psoc\content\cycomponentlibrary\CyComponentLibrary.cylib\BLE_v2_0\Library\gccCyBLEStack_BLE_SOC_PERIPHERAL.a(llh_api.o)
 .debug_frame   0x00008708       0x44 C:\9047software\PSoC Creator\3.3\PSoC Creator\psoc\content\cycomponentlibrary\CyComponentLibrary.cylib\BLE_v2_0\Library\gccCyBLEStack_BLE_SOC_PERIPHERAL.a(llh_api.o)
 .debug_frame   0x0000874c       0x44 C:\9047software\PSoC Creator\3.3\PSoC Creator\psoc\content\cycomponentlibrary\CyComponentLibrary.cylib\BLE_v2_0\Library\gccCyBLEStack_BLE_SOC_PERIPHERAL.a(llh_api.o)
 .debug_frame   0x00008790       0x4c C:\9047software\PSoC Creator\3.3\PSoC Creator\psoc\content\cycomponentlibrary\CyComponentLibrary.cylib\BLE_v2_0\Library\gccCyBLEStack_BLE_SOC_PERIPHERAL.a(llh_api.o)
 .debug_frame   0x000087dc       0x48 C:\9047software\PSoC Creator\3.3\PSoC Creator\psoc\content\cycomponentlibrary\CyComponentLibrary.cylib\BLE_v2_0\Library\gccCyBLEStack_BLE_SOC_PERIPHERAL.a(llh_api.o)
 .debug_frame   0x00008824       0x44 C:\9047software\PSoC Creator\3.3\PSoC Creator\psoc\content\cycomponentlibrary\CyComponentLibrary.cylib\BLE_v2_0\Library\gccCyBLEStack_BLE_SOC_PERIPHERAL.a(llh_api.o)
 .debug_frame   0x00008868       0x44 C:\9047software\PSoC Creator\3.3\PSoC Creator\psoc\content\cycomponentlibrary\CyComponentLibrary.cylib\BLE_v2_0\Library\gccCyBLEStack_BLE_SOC_PERIPHERAL.a(llh_api.o)
 .debug_frame   0x000088ac       0x44 C:\9047software\PSoC Creator\3.3\PSoC Creator\psoc\content\cycomponentlibrary\CyComponentLibrary.cylib\BLE_v2_0\Library\gccCyBLEStack_BLE_SOC_PERIPHERAL.a(llh_api.o)
 .debug_frame   0x000088f0       0x44 C:\9047software\PSoC Creator\3.3\PSoC Creator\psoc\content\cycomponentlibrary\CyComponentLibrary.cylib\BLE_v2_0\Library\gccCyBLEStack_BLE_SOC_PERIPHERAL.a(llh_api.o)
 .debug_frame   0x00008934       0x44 C:\9047software\PSoC Creator\3.3\PSoC Creator\psoc\content\cycomponentlibrary\CyComponentLibrary.cylib\BLE_v2_0\Library\gccCyBLEStack_BLE_SOC_PERIPHERAL.a(llh_api.o)
 .debug_frame   0x00008978       0x48 C:\9047software\PSoC Creator\3.3\PSoC Creator\psoc\content\cycomponentlibrary\CyComponentLibrary.cylib\BLE_v2_0\Library\gccCyBLEStack_BLE_SOC_PERIPHERAL.a(llh_api.o)
 .debug_frame   0x000089c0       0x44 C:\9047software\PSoC Creator\3.3\PSoC Creator\psoc\content\cycomponentlibrary\CyComponentLibrary.cylib\BLE_v2_0\Library\gccCyBLEStack_BLE_SOC_PERIPHERAL.a(llh_api.o)
 .debug_frame   0x00008a04       0x44 C:\9047software\PSoC Creator\3.3\PSoC Creator\psoc\content\cycomponentlibrary\CyComponentLibrary.cylib\BLE_v2_0\Library\gccCyBLEStack_BLE_SOC_PERIPHERAL.a(llh_api.o)
 .debug_frame   0x00008a48       0x44 C:\9047software\PSoC Creator\3.3\PSoC Creator\psoc\content\cycomponentlibrary\CyComponentLibrary.cylib\BLE_v2_0\Library\gccCyBLEStack_BLE_SOC_PERIPHERAL.a(llh_utils.o)
 .debug_frame   0x00008a8c       0x44 C:\9047software\PSoC Creator\3.3\PSoC Creator\psoc\content\cycomponentlibrary\CyComponentLibrary.cylib\BLE_v2_0\Library\gccCyBLEStack_BLE_SOC_PERIPHERAL.a(llh_utils.o)
 .debug_frame   0x00008ad0       0x3c C:\9047software\PSoC Creator\3.3\PSoC Creator\psoc\content\cycomponentlibrary\CyComponentLibrary.cylib\BLE_v2_0\Library\gccCyBLEStack_BLE_SOC_PERIPHERAL.a(llh_utils.o)
 .debug_frame   0x00008b0c       0x3c C:\9047software\PSoC Creator\3.3\PSoC Creator\psoc\content\cycomponentlibrary\CyComponentLibrary.cylib\BLE_v2_0\Library\gccCyBLEStack_BLE_SOC_PERIPHERAL.a(llh_utils.o)
 .debug_frame   0x00008b48       0x3c C:\9047software\PSoC Creator\3.3\PSoC Creator\psoc\content\cycomponentlibrary\CyComponentLibrary.cylib\BLE_v2_0\Library\gccCyBLEStack_BLE_SOC_PERIPHERAL.a(llh_utils.o)
 .debug_frame   0x00008b84       0x44 C:\9047software\PSoC Creator\3.3\PSoC Creator\psoc\content\cycomponentlibrary\CyComponentLibrary.cylib\BLE_v2_0\Library\gccCyBLEStack_BLE_SOC_PERIPHERAL.a(llh_utils.o)
 .debug_frame   0x00008bc8       0x4c C:\9047software\PSoC Creator\3.3\PSoC Creator\psoc\content\cycomponentlibrary\CyComponentLibrary.cylib\BLE_v2_0\Library\gccCyBLEStack_BLE_SOC_PERIPHERAL.a(llh_utils.o)
 .debug_frame   0x00008c14       0x48 C:\9047software\PSoC Creator\3.3\PSoC Creator\psoc\content\cycomponentlibrary\CyComponentLibrary.cylib\BLE_v2_0\Library\gccCyBLEStack_BLE_SOC_PERIPHERAL.a(llh_utils.o)
 .debug_frame   0x00008c5c       0x48 C:\9047software\PSoC Creator\3.3\PSoC Creator\psoc\content\cycomponentlibrary\CyComponentLibrary.cylib\BLE_v2_0\Library\gccCyBLEStack_BLE_SOC_PERIPHERAL.a(ll_pdu.o)
 .debug_frame   0x00008ca4       0x48 C:\9047software\PSoC Creator\3.3\PSoC Creator\psoc\content\cycomponentlibrary\CyComponentLibrary.cylib\BLE_v2_0\Library\gccCyBLEStack_BLE_SOC_PERIPHERAL.a(ll_pdu.o)
 .debug_frame   0x00008cec       0x48 C:\9047software\PSoC Creator\3.3\PSoC Creator\psoc\content\cycomponentlibrary\CyComponentLibrary.cylib\BLE_v2_0\Library\gccCyBLEStack_BLE_SOC_PERIPHERAL.a(ll_pdu.o)
 .debug_frame   0x00008d34       0x48 C:\9047software\PSoC Creator\3.3\PSoC Creator\psoc\content\cycomponentlibrary\CyComponentLibrary.cylib\BLE_v2_0\Library\gccCyBLEStack_BLE_SOC_PERIPHERAL.a(ll_pdu.o)
 .debug_frame   0x00008d7c       0x4c C:\9047software\PSoC Creator\3.3\PSoC Creator\psoc\content\cycomponentlibrary\CyComponentLibrary.cylib\BLE_v2_0\Library\gccCyBLEStack_BLE_SOC_PERIPHERAL.a(ll_pdu.o)
 .debug_frame   0x00008dc8       0x3c C:\9047software\PSoC Creator\3.3\PSoC Creator\psoc\content\cycomponentlibrary\CyComponentLibrary.cylib\BLE_v2_0\Library\gccCyBLEStack_BLE_SOC_PERIPHERAL.a(ll_pdu.o)
 .debug_frame   0x00008e04       0x3c C:\9047software\PSoC Creator\3.3\PSoC Creator\psoc\content\cycomponentlibrary\CyComponentLibrary.cylib\BLE_v2_0\Library\gccCyBLEStack_BLE_SOC_PERIPHERAL.a(ll_pdu.o)
 .debug_frame   0x00008e40       0x4c C:\9047software\PSoC Creator\3.3\PSoC Creator\psoc\content\cycomponentlibrary\CyComponentLibrary.cylib\BLE_v2_0\Library\gccCyBLEStack_BLE_SOC_PERIPHERAL.a(ll_pdu.o)
 .debug_frame   0x00008e8c       0x44 C:\9047software\PSoC Creator\3.3\PSoC Creator\psoc\content\cycomponentlibrary\CyComponentLibrary.cylib\BLE_v2_0\Library\gccCyBLEStack_BLE_SOC_PERIPHERAL.a(ll_pdu.o)
 .debug_frame   0x00008ed0       0x48 C:\9047software\PSoC Creator\3.3\PSoC Creator\psoc\content\cycomponentlibrary\CyComponentLibrary.cylib\BLE_v2_0\Library\gccCyBLEStack_BLE_SOC_PERIPHERAL.a(ll_pdu.o)
 .debug_frame   0x00008f18       0x44 C:\9047software\PSoC Creator\3.3\PSoC Creator\psoc\content\cycomponentlibrary\CyComponentLibrary.cylib\BLE_v2_0\Library\gccCyBLEStack_BLE_SOC_PERIPHERAL.a(ll_pdu.o)
 .debug_frame   0x00008f5c       0x48 C:\9047software\PSoC Creator\3.3\PSoC Creator\psoc\content\cycomponentlibrary\CyComponentLibrary.cylib\BLE_v2_0\Library\gccCyBLEStack_BLE_SOC_PERIPHERAL.a(ll_pdu.o)
 .debug_frame   0x00008fa4       0x48 C:\9047software\PSoC Creator\3.3\PSoC Creator\psoc\content\cycomponentlibrary\CyComponentLibrary.cylib\BLE_v2_0\Library\gccCyBLEStack_BLE_SOC_PERIPHERAL.a(ll_pdu.o)
 .debug_frame   0x00008fec       0x3c C:\9047software\PSoC Creator\3.3\PSoC Creator\psoc\content\cycomponentlibrary\CyComponentLibrary.cylib\BLE_v2_0\Library\gccCyBLEStack_BLE_SOC_PERIPHERAL.a(ll_pdu.o)
 .debug_frame   0x00009028       0x48 C:\9047software\PSoC Creator\3.3\PSoC Creator\psoc\content\cycomponentlibrary\CyComponentLibrary.cylib\BLE_v2_0\Library\gccCyBLEStack_BLE_SOC_PERIPHERAL.a(ll_pdu.o)
 .debug_frame   0x00009070       0x48 C:\9047software\PSoC Creator\3.3\PSoC Creator\psoc\content\cycomponentlibrary\CyComponentLibrary.cylib\BLE_v2_0\Library\gccCyBLEStack_BLE_SOC_PERIPHERAL.a(ll_pdu.o)
 .debug_frame   0x000090b8       0x48 C:\9047software\PSoC Creator\3.3\PSoC Creator\psoc\content\cycomponentlibrary\CyComponentLibrary.cylib\BLE_v2_0\Library\gccCyBLEStack_BLE_SOC_PERIPHERAL.a(ll_pdu.o)
 .debug_frame   0x00009100       0x48 C:\9047software\PSoC Creator\3.3\PSoC Creator\psoc\content\cycomponentlibrary\CyComponentLibrary.cylib\BLE_v2_0\Library\gccCyBLEStack_BLE_SOC_PERIPHERAL.a(ll_pdu.o)
 .debug_frame   0x00009148       0x48 C:\9047software\PSoC Creator\3.3\PSoC Creator\psoc\content\cycomponentlibrary\CyComponentLibrary.cylib\BLE_v2_0\Library\gccCyBLEStack_BLE_SOC_PERIPHERAL.a(ll_pdu.o)
 .debug_frame   0x00009190       0x48 C:\9047software\PSoC Creator\3.3\PSoC Creator\psoc\content\cycomponentlibrary\CyComponentLibrary.cylib\BLE_v2_0\Library\gccCyBLEStack_BLE_SOC_PERIPHERAL.a(ll_pdu.o)
 .debug_frame   0x000091d8       0x48 C:\9047software\PSoC Creator\3.3\PSoC Creator\psoc\content\cycomponentlibrary\CyComponentLibrary.cylib\BLE_v2_0\Library\gccCyBLEStack_BLE_SOC_PERIPHERAL.a(ll_pdu.o)
 .debug_frame   0x00009220       0x3c C:\9047software\PSoC Creator\3.3\PSoC Creator\psoc\content\cycomponentlibrary\CyComponentLibrary.cylib\BLE_v2_0\Library\gccCyBLEStack_BLE_SOC_PERIPHERAL.a(ll_pdu.o)
 .debug_frame   0x0000925c       0x44 C:\9047software\PSoC Creator\3.3\PSoC Creator\psoc\content\cycomponentlibrary\CyComponentLibrary.cylib\BLE_v2_0\Library\gccCyBLEStack_BLE_SOC_PERIPHERAL.a(ll_pdu.o)
 .debug_frame   0x000092a0       0x48 C:\9047software\PSoC Creator\3.3\PSoC Creator\psoc\content\cycomponentlibrary\CyComponentLibrary.cylib\BLE_v2_0\Library\gccCyBLEStack_BLE_SOC_PERIPHERAL.a(ll_pdu.o)
 .debug_frame   0x000092e8       0x48 C:\9047software\PSoC Creator\3.3\PSoC Creator\psoc\content\cycomponentlibrary\CyComponentLibrary.cylib\BLE_v2_0\Library\gccCyBLEStack_BLE_SOC_PERIPHERAL.a(ll_pdu.o)
 .debug_frame   0x00009330       0x48 C:\9047software\PSoC Creator\3.3\PSoC Creator\psoc\content\cycomponentlibrary\CyComponentLibrary.cylib\BLE_v2_0\Library\gccCyBLEStack_BLE_SOC_PERIPHERAL.a(ll_pdu.o)
 .debug_frame   0x00009378       0x44 C:\9047software\PSoC Creator\3.3\PSoC Creator\psoc\content\cycomponentlibrary\CyComponentLibrary.cylib\BLE_v2_0\Library\gccCyBLEStack_BLE_SOC_PERIPHERAL.a(ll_pdu.o)
 .debug_frame   0x000093bc       0x44 C:\9047software\PSoC Creator\3.3\PSoC Creator\psoc\content\cycomponentlibrary\CyComponentLibrary.cylib\BLE_v2_0\Library\gccCyBLEStack_BLE_SOC_PERIPHERAL.a(ll_pdu.o)
 .debug_frame   0x00009400       0x3c C:\9047software\PSoC Creator\3.3\PSoC Creator\psoc\content\cycomponentlibrary\CyComponentLibrary.cylib\BLE_v2_0\Library\gccCyBLEStack_BLE_SOC_PERIPHERAL.a(ll_pdu.o)
 .debug_frame   0x0000943c       0x3c C:\9047software\PSoC Creator\3.3\PSoC Creator\psoc\content\cycomponentlibrary\CyComponentLibrary.cylib\BLE_v2_0\Library\gccCyBLEStack_BLE_SOC_PERIPHERAL.a(ll_pdu.o)
 .debug_frame   0x00009478       0x44 C:\9047software\PSoC Creator\3.3\PSoC Creator\psoc\content\cycomponentlibrary\CyComponentLibrary.cylib\BLE_v2_0\Library\gccCyBLEStack_BLE_SOC_PERIPHERAL.a(ll_pdu.o)
 .debug_frame   0x000094bc       0x44 C:\9047software\PSoC Creator\3.3\PSoC Creator\psoc\content\cycomponentlibrary\CyComponentLibrary.cylib\BLE_v2_0\Library\gccCyBLEStack_BLE_SOC_PERIPHERAL.a(ll_pdu.o)
 .debug_frame   0x00009500       0x44 C:\9047software\PSoC Creator\3.3\PSoC Creator\psoc\content\cycomponentlibrary\CyComponentLibrary.cylib\BLE_v2_0\Library\gccCyBLEStack_BLE_SOC_PERIPHERAL.a(ll_pdu.o)
 .debug_frame   0x00009544       0x44 C:\9047software\PSoC Creator\3.3\PSoC Creator\psoc\content\cycomponentlibrary\CyComponentLibrary.cylib\BLE_v2_0\Library\gccCyBLEStack_BLE_SOC_PERIPHERAL.a(ll_pdu.o)
 .debug_frame   0x00009588       0x44 C:\9047software\PSoC Creator\3.3\PSoC Creator\psoc\content\cycomponentlibrary\CyComponentLibrary.cylib\BLE_v2_0\Library\gccCyBLEStack_BLE_SOC_PERIPHERAL.a(ll_pdu.o)
 .debug_frame   0x000095cc       0x44 C:\9047software\PSoC Creator\3.3\PSoC Creator\psoc\content\cycomponentlibrary\CyComponentLibrary.cylib\BLE_v2_0\Library\gccCyBLEStack_BLE_SOC_PERIPHERAL.a(ll_pdu.o)
 .debug_frame   0x00009610       0x3c C:\9047software\PSoC Creator\3.3\PSoC Creator\psoc\content\cycomponentlibrary\CyComponentLibrary.cylib\BLE_v2_0\Library\gccCyBLEStack_BLE_SOC_PERIPHERAL.a(ll_pdu.o)
 .debug_frame   0x0000964c       0x48 C:\9047software\PSoC Creator\3.3\PSoC Creator\psoc\content\cycomponentlibrary\CyComponentLibrary.cylib\BLE_v2_0\Library\gccCyBLEStack_BLE_SOC_PERIPHERAL.a(ll_pdu.o)
 .debug_frame   0x00009694       0x44 C:\9047software\PSoC Creator\3.3\PSoC Creator\psoc\content\cycomponentlibrary\CyComponentLibrary.cylib\BLE_v2_0\Library\gccCyBLEStack_BLE_SOC_PERIPHERAL.a(ll_pdu.o)
 .debug_frame   0x000096d8       0x4c C:\9047software\PSoC Creator\3.3\PSoC Creator\psoc\content\cycomponentlibrary\CyComponentLibrary.cylib\BLE_v2_0\Library\gccCyBLEStack_BLE_SOC_PERIPHERAL.a(ll_pdu.o)
 .debug_frame   0x00009724       0x44 C:\9047software\PSoC Creator\3.3\PSoC Creator\psoc\content\cycomponentlibrary\CyComponentLibrary.cylib\BLE_v2_0\Library\gccCyBLEStack_BLE_SOC_PERIPHERAL.a(ll_pdu.o)
 .debug_frame   0x00009768       0x44 C:\9047software\PSoC Creator\3.3\PSoC Creator\psoc\content\cycomponentlibrary\CyComponentLibrary.cylib\BLE_v2_0\Library\gccCyBLEStack_BLE_SOC_PERIPHERAL.a(ll_pdu.o)
 .debug_frame   0x000097ac       0x3c C:\9047software\PSoC Creator\3.3\PSoC Creator\psoc\content\cycomponentlibrary\CyComponentLibrary.cylib\BLE_v2_0\Library\gccCyBLEStack_BLE_SOC_PERIPHERAL.a(ll_pdu.o)
 .debug_frame   0x000097e8       0x44 C:\9047software\PSoC Creator\3.3\PSoC Creator\psoc\content\cycomponentlibrary\CyComponentLibrary.cylib\BLE_v2_0\Library\gccCyBLEStack_BLE_SOC_PERIPHERAL.a(ll_pdu.o)
 .debug_frame   0x0000982c       0x44 C:\9047software\PSoC Creator\3.3\PSoC Creator\psoc\content\cycomponentlibrary\CyComponentLibrary.cylib\BLE_v2_0\Library\gccCyBLEStack_BLE_SOC_PERIPHERAL.a(ll_pdu.o)
 .debug_frame   0x00009870       0x48 C:\9047software\PSoC Creator\3.3\PSoC Creator\psoc\content\cycomponentlibrary\CyComponentLibrary.cylib\BLE_v2_0\Library\gccCyBLEStack_BLE_SOC_PERIPHERAL.a(ll_pdu.o)
 .debug_frame   0x000098b8       0x44 C:\9047software\PSoC Creator\3.3\PSoC Creator\psoc\content\cycomponentlibrary\CyComponentLibrary.cylib\BLE_v2_0\Library\gccCyBLEStack_BLE_SOC_PERIPHERAL.a(ll_pdu.o)
 .debug_frame   0x000098fc       0x48 C:\9047software\PSoC Creator\3.3\PSoC Creator\psoc\content\cycomponentlibrary\CyComponentLibrary.cylib\BLE_v2_0\Library\gccCyBLEStack_BLE_SOC_PERIPHERAL.a(ll_pdu.o)
 .debug_frame   0x00009944       0x44 C:\9047software\PSoC Creator\3.3\PSoC Creator\psoc\content\cycomponentlibrary\CyComponentLibrary.cylib\BLE_v2_0\Library\gccCyBLEStack_BLE_SOC_PERIPHERAL.a(ll_pdu.o)
 .debug_frame   0x00009988       0x3c C:\9047software\PSoC Creator\3.3\PSoC Creator\psoc\content\cycomponentlibrary\CyComponentLibrary.cylib\BLE_v2_0\Library\gccCyBLEStack_BLE_SOC_PERIPHERAL.a(ll_pdu.o)
 .debug_frame   0x000099c4       0x44 C:\9047software\PSoC Creator\3.3\PSoC Creator\psoc\content\cycomponentlibrary\CyComponentLibrary.cylib\BLE_v2_0\Library\gccCyBLEStack_BLE_SOC_PERIPHERAL.a(ll_pdu.o)
 .debug_frame   0x00009a08       0x3c C:\9047software\PSoC Creator\3.3\PSoC Creator\psoc\content\cycomponentlibrary\CyComponentLibrary.cylib\BLE_v2_0\Library\gccCyBLEStack_BLE_SOC_PERIPHERAL.a(ll_policies.o)
 .debug_frame   0x00009a44       0x44 C:\9047software\PSoC Creator\3.3\PSoC Creator\psoc\content\cycomponentlibrary\CyComponentLibrary.cylib\BLE_v2_0\Library\gccCyBLEStack_BLE_SOC_PERIPHERAL.a(ll_policies.o)
 .debug_frame   0x00009a88       0x44 C:\9047software\PSoC Creator\3.3\PSoC Creator\psoc\content\cycomponentlibrary\CyComponentLibrary.cylib\BLE_v2_0\Library\gccCyBLEStack_BLE_SOC_PERIPHERAL.a(ll_policies.o)
 .debug_frame   0x00009acc       0x54 C:\9047software\PSoC Creator\3.3\PSoC Creator\psoc\content\cycomponentlibrary\CyComponentLibrary.cylib\BLE_v2_0\Library\gccCyBLEStack_BLE_SOC_PERIPHERAL.a(ll_tasks.o)
 .debug_frame   0x00009b20       0x48 C:\9047software\PSoC Creator\3.3\PSoC Creator\psoc\content\cycomponentlibrary\CyComponentLibrary.cylib\BLE_v2_0\Library\gccCyBLEStack_BLE_SOC_PERIPHERAL.a(ll_tasks.o)
 .debug_frame   0x00009b68       0x48 C:\9047software\PSoC Creator\3.3\PSoC Creator\psoc\content\cycomponentlibrary\CyComponentLibrary.cylib\BLE_v2_0\Library\gccCyBLEStack_BLE_SOC_PERIPHERAL.a(ll_tasks.o)
 .debug_frame   0x00009bb0       0x48 C:\9047software\PSoC Creator\3.3\PSoC Creator\psoc\content\cycomponentlibrary\CyComponentLibrary.cylib\BLE_v2_0\Library\gccCyBLEStack_BLE_SOC_PERIPHERAL.a(ll_utils.o)
 .debug_frame   0x00009bf8       0x48 C:\9047software\PSoC Creator\3.3\PSoC Creator\psoc\content\cycomponentlibrary\CyComponentLibrary.cylib\BLE_v2_0\Library\gccCyBLEStack_BLE_SOC_PERIPHERAL.a(ll_utils.o)
 .debug_frame   0x00009c40       0x3c C:\9047software\PSoC Creator\3.3\PSoC Creator\psoc\content\cycomponentlibrary\CyComponentLibrary.cylib\BLE_v2_0\Library\gccCyBLEStack_BLE_SOC_PERIPHERAL.a(ll_utils.o)
 .debug_frame   0x00009c7c       0x44 C:\9047software\PSoC Creator\3.3\PSoC Creator\psoc\content\cycomponentlibrary\CyComponentLibrary.cylib\BLE_v2_0\Library\gccCyBLEStack_BLE_SOC_PERIPHERAL.a(ll_utils.o)
 .debug_frame   0x00009cc0       0x44 C:\9047software\PSoC Creator\3.3\PSoC Creator\psoc\content\cycomponentlibrary\CyComponentLibrary.cylib\BLE_v2_0\Library\gccCyBLEStack_BLE_SOC_PERIPHERAL.a(ll_utils.o)
 .debug_frame   0x00009d04       0x44 C:\9047software\PSoC Creator\3.3\PSoC Creator\psoc\content\cycomponentlibrary\CyComponentLibrary.cylib\BLE_v2_0\Library\gccCyBLEStack_BLE_SOC_PERIPHERAL.a(ll_utils.o)
 .debug_frame   0x00009d48       0x44 C:\9047software\PSoC Creator\3.3\PSoC Creator\psoc\content\cycomponentlibrary\CyComponentLibrary.cylib\BLE_v2_0\Library\gccCyBLEStack_BLE_SOC_PERIPHERAL.a(ll_utils.o)
 .debug_frame   0x00009d8c       0x50 C:\9047software\PSoC Creator\3.3\PSoC Creator\psoc\content\cycomponentlibrary\CyComponentLibrary.cylib\BLE_v2_0\Library\gccCyBLEStack_BLE_SOC_PERIPHERAL.a(ll_utils.o)
 .debug_frame   0x00009ddc       0x48 C:\9047software\PSoC Creator\3.3\PSoC Creator\psoc\content\cycomponentlibrary\CyComponentLibrary.cylib\BLE_v2_0\Library\gccCyBLEStack_BLE_SOC_PERIPHERAL.a(ll_utils.o)
 .debug_frame   0x00009e24       0x4c C:\9047software\PSoC Creator\3.3\PSoC Creator\psoc\content\cycomponentlibrary\CyComponentLibrary.cylib\BLE_v2_0\Library\gccCyBLEStack_BLE_SOC_PERIPHERAL.a(ll_utils.o)
 .debug_frame   0x00009e70       0x48 C:\9047software\PSoC Creator\3.3\PSoC Creator\psoc\content\cycomponentlibrary\CyComponentLibrary.cylib\BLE_v2_0\Library\gccCyBLEStack_BLE_SOC_PERIPHERAL.a(ll_utils.o)
 .debug_frame   0x00009eb8       0x50 C:\9047software\PSoC Creator\3.3\PSoC Creator\psoc\content\cycomponentlibrary\CyComponentLibrary.cylib\BLE_v2_0\Library\gccCyBLEStack_BLE_SOC_PERIPHERAL.a(ll_utils.o)
 .debug_frame   0x00009f08       0x4c C:\9047software\PSoC Creator\3.3\PSoC Creator\psoc\content\cycomponentlibrary\CyComponentLibrary.cylib\BLE_v2_0\Library\gccCyBLEStack_BLE_SOC_PERIPHERAL.a(ll_utils.o)
 .debug_frame   0x00009f54       0x4c C:\9047software\PSoC Creator\3.3\PSoC Creator\psoc\content\cycomponentlibrary\CyComponentLibrary.cylib\BLE_v2_0\Library\gccCyBLEStack_BLE_SOC_PERIPHERAL.a(ll_utils.o)
 .debug_frame   0x00009fa0       0x4c C:\9047software\PSoC Creator\3.3\PSoC Creator\psoc\content\cycomponentlibrary\CyComponentLibrary.cylib\BLE_v2_0\Library\gccCyBLEStack_BLE_SOC_PERIPHERAL.a(ll_utils.o)
 .debug_frame   0x00009fec       0x4c C:\9047software\PSoC Creator\3.3\PSoC Creator\psoc\content\cycomponentlibrary\CyComponentLibrary.cylib\BLE_v2_0\Library\gccCyBLEStack_BLE_SOC_PERIPHERAL.a(ll_utils.o)
 .debug_frame   0x0000a038       0x44 C:\9047software\PSoC Creator\3.3\PSoC Creator\psoc\content\cycomponentlibrary\CyComponentLibrary.cylib\BLE_v2_0\Library\gccCyBLEStack_BLE_SOC_PERIPHERAL.a(llf_task.o)
 .debug_frame   0x0000a07c       0x44 C:\9047software\PSoC Creator\3.3\PSoC Creator\psoc\content\cycomponentlibrary\CyComponentLibrary.cylib\BLE_v2_0\Library\gccCyBLEStack_BLE_SOC_PERIPHERAL.a(llf_task.o)
 .debug_frame   0x0000a0c0       0x48 C:\9047software\PSoC Creator\3.3\PSoC Creator\psoc\content\cycomponentlibrary\CyComponentLibrary.cylib\BLE_v2_0\Library\gccCyBLEStack_BLE_SOC_PERIPHERAL.a(llf_task.o)
 .debug_frame   0x0000a108       0x4c C:\9047software\PSoC Creator\3.3\PSoC Creator\psoc\content\cycomponentlibrary\CyComponentLibrary.cylib\BLE_v2_0\Library\gccCyBLEStack_BLE_SOC_PERIPHERAL.a(llf_task.o)
 .debug_frame   0x0000a154       0x44 C:\9047software\PSoC Creator\3.3\PSoC Creator\psoc\content\cycomponentlibrary\CyComponentLibrary.cylib\BLE_v2_0\Library\gccCyBLEStack_BLE_SOC_PERIPHERAL.a(llf_task.o)
 .debug_frame   0x0000a198       0x44 C:\9047software\PSoC Creator\3.3\PSoC Creator\psoc\content\cycomponentlibrary\CyComponentLibrary.cylib\BLE_v2_0\Library\gccCyBLEStack_BLE_SOC_PERIPHERAL.a(llf_task.o)
 .debug_frame   0x0000a1dc       0x4c C:\9047software\PSoC Creator\3.3\PSoC Creator\psoc\content\cycomponentlibrary\CyComponentLibrary.cylib\BLE_v2_0\Library\gccCyBLEStack_BLE_SOC_PERIPHERAL.a(llf_task.o)
 .debug_frame   0x0000a228       0x4c C:\9047software\PSoC Creator\3.3\PSoC Creator\psoc\content\cycomponentlibrary\CyComponentLibrary.cylib\BLE_v2_0\Library\gccCyBLEStack_BLE_SOC_PERIPHERAL.a(llf_task.o)
 .debug_frame   0x0000a274       0x3c C:\9047software\PSoC Creator\3.3\PSoC Creator\psoc\content\cycomponentlibrary\CyComponentLibrary.cylib\BLE_v2_0\Library\gccCyBLEStack_BLE_SOC_PERIPHERAL.a(llf_task.o)
 .debug_frame   0x0000a2b0       0x44 C:\9047software\PSoC Creator\3.3\PSoC Creator\psoc\content\cycomponentlibrary\CyComponentLibrary.cylib\BLE_v2_0\Library\gccCyBLEStack_BLE_SOC_PERIPHERAL.a(lec_hci_le.o)
 .debug_frame   0x0000a2f4       0x4c C:\9047software\PSoC Creator\3.3\PSoC Creator\psoc\content\cycomponentlibrary\CyComponentLibrary.cylib\BLE_v2_0\Library\gccCyBLEStack_BLE_SOC_PERIPHERAL.a(lec_hci_le.o)
 .debug_frame   0x0000a340       0x44 C:\9047software\PSoC Creator\3.3\PSoC Creator\psoc\content\cycomponentlibrary\CyComponentLibrary.cylib\BLE_v2_0\Library\gccCyBLEStack_BLE_SOC_PERIPHERAL.a(lec_hci_le.o)
 .debug_frame   0x0000a384       0x4c C:\9047software\PSoC Creator\3.3\PSoC Creator\psoc\content\cycomponentlibrary\CyComponentLibrary.cylib\BLE_v2_0\Library\gccCyBLEStack_BLE_SOC_PERIPHERAL.a(lec_hci_le.o)
 .debug_frame   0x0000a3d0       0x3c C:\9047software\PSoC Creator\3.3\PSoC Creator\psoc\content\cycomponentlibrary\CyComponentLibrary.cylib\BLE_v2_0\Library\gccCyBLEStack_BLE_SOC_PERIPHERAL.a(lec_hci_le.o)
 .debug_frame   0x0000a40c       0x44 C:\9047software\PSoC Creator\3.3\PSoC Creator\psoc\content\cycomponentlibrary\CyComponentLibrary.cylib\BLE_v2_0\Library\gccCyBLEStack_BLE_SOC_PERIPHERAL.a(lec_hci_le.o)
 .debug_frame   0x0000a450       0x3c C:\9047software\PSoC Creator\3.3\PSoC Creator\psoc\content\cycomponentlibrary\CyComponentLibrary.cylib\BLE_v2_0\Library\gccCyBLEStack_BLE_SOC_PERIPHERAL.a(lec_hci_le_commands.o)
 .debug_frame   0x0000a48c       0x48 C:\9047software\PSoC Creator\3.3\PSoC Creator\psoc\content\cycomponentlibrary\CyComponentLibrary.cylib\BLE_v2_0\Library\gccCyBLEStack_BLE_SOC_PERIPHERAL.a(lec_hci_le_commands.o)
 .debug_frame   0x0000a4d4       0x3c C:\9047software\PSoC Creator\3.3\PSoC Creator\psoc\content\cycomponentlibrary\CyComponentLibrary.cylib\BLE_v2_0\Library\gccCyBLEStack_BLE_SOC_PERIPHERAL.a(lec_hci_le_commands.o)
 .debug_frame   0x0000a510       0x4c C:\9047software\PSoC Creator\3.3\PSoC Creator\psoc\content\cycomponentlibrary\CyComponentLibrary.cylib\BLE_v2_0\Library\gccCyBLEStack_BLE_SOC_PERIPHERAL.a(lec_hci_le_commands.o)
 .debug_frame   0x0000a55c       0x48 C:\9047software\PSoC Creator\3.3\PSoC Creator\psoc\content\cycomponentlibrary\CyComponentLibrary.cylib\BLE_v2_0\Library\gccCyBLEStack_BLE_SOC_PERIPHERAL.a(lec_hci_le_commands.o)
 .debug_frame   0x0000a5a4       0x54 C:\9047software\PSoC Creator\3.3\PSoC Creator\psoc\content\cycomponentlibrary\CyComponentLibrary.cylib\BLE_v2_0\Library\gccCyBLEStack_BLE_SOC_PERIPHERAL.a(lec_hci_le_commands.o)
 .debug_frame   0x0000a5f8       0x3c C:\9047software\PSoC Creator\3.3\PSoC Creator\psoc\content\cycomponentlibrary\CyComponentLibrary.cylib\BLE_v2_0\Library\gccCyBLEStack_BLE_SOC_PERIPHERAL.a(lec_hci_le_common_commands.o)
 .debug_frame   0x0000a634       0x44 C:\9047software\PSoC Creator\3.3\PSoC Creator\psoc\content\cycomponentlibrary\CyComponentLibrary.cylib\BLE_v2_0\Library\gccCyBLEStack_BLE_SOC_PERIPHERAL.a(lec_hci_le_common_commands.o)
 .debug_frame   0x0000a678       0x3c C:\9047software\PSoC Creator\3.3\PSoC Creator\psoc\content\cycomponentlibrary\CyComponentLibrary.cylib\BLE_v2_0\Library\gccCyBLEStack_BLE_SOC_PERIPHERAL.a(lec_hci_le_common_commands.o)
 .debug_frame   0x0000a6b4       0x44 C:\9047software\PSoC Creator\3.3\PSoC Creator\psoc\content\cycomponentlibrary\CyComponentLibrary.cylib\BLE_v2_0\Library\gccCyBLEStack_BLE_SOC_PERIPHERAL.a(lec_hci_le_common_commands.o)
 .debug_frame   0x0000a6f8       0x44 C:\9047software\PSoC Creator\3.3\PSoC Creator\psoc\content\cycomponentlibrary\CyComponentLibrary.cylib\BLE_v2_0\Library\gccCyBLEStack_BLE_SOC_PERIPHERAL.a(lec_hci_le_common_commands.o)
 .debug_frame   0x0000a73c       0x44 C:\9047software\PSoC Creator\3.3\PSoC Creator\psoc\content\cycomponentlibrary\CyComponentLibrary.cylib\BLE_v2_0\Library\gccCyBLEStack_BLE_SOC_PERIPHERAL.a(lec_hci_le_common_commands.o)
 .debug_frame   0x0000a780       0x44 C:\9047software\PSoC Creator\3.3\PSoC Creator\psoc\content\cycomponentlibrary\CyComponentLibrary.cylib\BLE_v2_0\Library\gccCyBLEStack_BLE_SOC_PERIPHERAL.a(lec_hci_le_common_commands.o)
 .debug_frame   0x0000a7c4       0x3c C:\9047software\PSoC Creator\3.3\PSoC Creator\psoc\content\cycomponentlibrary\CyComponentLibrary.cylib\BLE_v2_0\Library\gccCyBLEStack_BLE_SOC_PERIPHERAL.a(lec_hci_le_common_commands.o)
 .debug_frame   0x0000a800       0x3c C:\9047software\PSoC Creator\3.3\PSoC Creator\psoc\content\cycomponentlibrary\CyComponentLibrary.cylib\BLE_v2_0\Library\gccCyBLEStack_BLE_SOC_PERIPHERAL.a(lec_hci_le_common_commands.o)
 .debug_frame   0x0000a83c       0x48 C:\9047software\PSoC Creator\3.3\PSoC Creator\psoc\content\cycomponentlibrary\CyComponentLibrary.cylib\BLE_v2_0\Library\gccCyBLEStack_BLE_SOC_PERIPHERAL.a(lec_hci_le_common_commands.o)
 .debug_frame   0x0000a884       0x48 C:\9047software\PSoC Creator\3.3\PSoC Creator\psoc\content\cycomponentlibrary\CyComponentLibrary.cylib\BLE_v2_0\Library\gccCyBLEStack_BLE_SOC_PERIPHERAL.a(lec_hci_le_conn_commands.o)
 .debug_frame   0x0000a8cc       0x48 C:\9047software\PSoC Creator\3.3\PSoC Creator\psoc\content\cycomponentlibrary\CyComponentLibrary.cylib\BLE_v2_0\Library\gccCyBLEStack_BLE_SOC_PERIPHERAL.a(lec_hci_le_conn_commands.o)
 .debug_frame   0x0000a914       0x48 C:\9047software\PSoC Creator\3.3\PSoC Creator\psoc\content\cycomponentlibrary\CyComponentLibrary.cylib\BLE_v2_0\Library\gccCyBLEStack_BLE_SOC_PERIPHERAL.a(lec_hci_le_conn_commands.o)
 .debug_frame   0x0000a95c       0x48 C:\9047software\PSoC Creator\3.3\PSoC Creator\psoc\content\cycomponentlibrary\CyComponentLibrary.cylib\BLE_v2_0\Library\gccCyBLEStack_BLE_SOC_PERIPHERAL.a(lec_hci_le_conn_commands.o)
 .debug_frame   0x0000a9a4       0x48 C:\9047software\PSoC Creator\3.3\PSoC Creator\psoc\content\cycomponentlibrary\CyComponentLibrary.cylib\BLE_v2_0\Library\gccCyBLEStack_BLE_SOC_PERIPHERAL.a(lec_hci_le_conn_commands.o)
 .debug_frame   0x0000a9ec       0x4c C:\9047software\PSoC Creator\3.3\PSoC Creator\psoc\content\cycomponentlibrary\CyComponentLibrary.cylib\BLE_v2_0\Library\gccCyBLEStack_BLE_SOC_PERIPHERAL.a(lec_hci_le_conn_commands.o)
 .debug_frame   0x0000aa38       0x48 C:\9047software\PSoC Creator\3.3\PSoC Creator\psoc\content\cycomponentlibrary\CyComponentLibrary.cylib\BLE_v2_0\Library\gccCyBLEStack_BLE_SOC_PERIPHERAL.a(lec_hci_le_conn_commands.o)
 .debug_frame   0x0000aa80       0x44 C:\9047software\PSoC Creator\3.3\PSoC Creator\psoc\content\cycomponentlibrary\CyComponentLibrary.cylib\BLE_v2_0\Library\gccCyBLEStack_BLE_SOC_PERIPHERAL.a(lec_hci_le_conn_commands.o)
 .debug_frame   0x0000aac4       0x44 C:\9047software\PSoC Creator\3.3\PSoC Creator\psoc\content\cycomponentlibrary\CyComponentLibrary.cylib\BLE_v2_0\Library\gccCyBLEStack_BLE_SOC_PERIPHERAL.a(lec_hci_le_conn_commands.o)
 .debug_frame   0x0000ab08       0x4c C:\9047software\PSoC Creator\3.3\PSoC Creator\psoc\content\cycomponentlibrary\CyComponentLibrary.cylib\BLE_v2_0\Library\gccCyBLEStack_BLE_SOC_PERIPHERAL.a(lec_hci_le_conn_commands.o)
 .debug_frame   0x0000ab54       0x48 C:\9047software\PSoC Creator\3.3\PSoC Creator\psoc\content\cycomponentlibrary\CyComponentLibrary.cylib\BLE_v2_0\Library\gccCyBLEStack_BLE_SOC_PERIPHERAL.a(lec_hci_le_conn_commands.o)
 .debug_frame   0x0000ab9c       0x4c C:\9047software\PSoC Creator\3.3\PSoC Creator\psoc\content\cycomponentlibrary\CyComponentLibrary.cylib\BLE_v2_0\Library\gccCyBLEStack_BLE_SOC_PERIPHERAL.a(lec_hci_le_conn_commands.o)
 .debug_frame   0x0000abe8       0x4c C:\9047software\PSoC Creator\3.3\PSoC Creator\psoc\content\cycomponentlibrary\CyComponentLibrary.cylib\BLE_v2_0\Library\gccCyBLEStack_BLE_SOC_PERIPHERAL.a(lec_hci_le_conn_commands.o)
 .debug_frame   0x0000ac34       0x48 C:\9047software\PSoC Creator\3.3\PSoC Creator\psoc\content\cycomponentlibrary\CyComponentLibrary.cylib\BLE_v2_0\Library\gccCyBLEStack_BLE_SOC_PERIPHERAL.a(lec_hci_le_conn_commands.o)
 .debug_frame   0x0000ac7c       0x44 C:\9047software\PSoC Creator\3.3\PSoC Creator\psoc\content\cycomponentlibrary\CyComponentLibrary.cylib\BLE_v2_0\Library\gccCyBLEStack_BLE_SOC_PERIPHERAL.a(lec_hci_le_encryption_commands.o)
 .debug_frame   0x0000acc0       0x4c C:\9047software\PSoC Creator\3.3\PSoC Creator\psoc\content\cycomponentlibrary\CyComponentLibrary.cylib\BLE_v2_0\Library\gccCyBLEStack_BLE_SOC_PERIPHERAL.a(lec_hci_le_encryption_commands.o)
 .debug_frame   0x0000ad0c       0x44 C:\9047software\PSoC Creator\3.3\PSoC Creator\psoc\content\cycomponentlibrary\CyComponentLibrary.cylib\BLE_v2_0\Library\gccCyBLEStack_BLE_SOC_PERIPHERAL.a(lec_hci_le_utils.o)
 .debug_frame   0x0000ad50       0x44 C:\9047software\PSoC Creator\3.3\PSoC Creator\psoc\content\cycomponentlibrary\CyComponentLibrary.cylib\BLE_v2_0\Library\gccCyBLEStack_BLE_SOC_PERIPHERAL.a(lec_hci_le_utils.o)
 .debug_frame   0x0000ad94       0x3c C:\9047software\PSoC Creator\3.3\PSoC Creator\psoc\content\cycomponentlibrary\CyComponentLibrary.cylib\BLE_v2_0\Library\gccCyBLEStack_BLE_SOC_PERIPHERAL.a(lec_hci_le_utils.o)
 .debug_frame   0x0000add0       0x44 C:\9047software\PSoC Creator\3.3\PSoC Creator\psoc\content\cycomponentlibrary\CyComponentLibrary.cylib\BLE_v2_0\Library\gccCyBLEStack_BLE_SOC_PERIPHERAL.a(lec_hci_le_utils.o)
 .debug_frame   0x0000ae14       0x44 C:\9047software\PSoC Creator\3.3\PSoC Creator\psoc\content\cycomponentlibrary\CyComponentLibrary.cylib\BLE_v2_0\Library\gccCyBLEStack_BLE_SOC_PERIPHERAL.a(lec_hci_le_utils.o)
 .debug_frame   0x0000ae58       0x4c C:\9047software\PSoC Creator\3.3\PSoC Creator\psoc\content\cycomponentlibrary\CyComponentLibrary.cylib\BLE_v2_0\Library\gccCyBLEStack_BLE_SOC_PERIPHERAL.a(lec_hci_le_utils.o)
 .debug_frame   0x0000aea4       0x4c C:\9047software\PSoC Creator\3.3\PSoC Creator\psoc\content\cycomponentlibrary\CyComponentLibrary.cylib\BLE_v2_0\Library\gccCyBLEStack_BLE_SOC_PERIPHERAL.a(lec_hci_le_utils.o)
 .debug_frame   0x0000aef0       0x3c C:\9047software\PSoC Creator\3.3\PSoC Creator\psoc\content\cycomponentlibrary\CyComponentLibrary.cylib\BLE_v2_0\Library\gccCyBLEStack_BLE_SOC_PERIPHERAL.a(lec_hci_param_converter.o)
 .debug_frame   0x0000af2c       0x3c C:\9047software\PSoC Creator\3.3\PSoC Creator\psoc\content\cycomponentlibrary\CyComponentLibrary.cylib\BLE_v2_0\Library\gccCyBLEStack_BLE_SOC_PERIPHERAL.a(lec_hci_param_converter.o)
 .debug_frame   0x0000af68       0x44 C:\9047software\PSoC Creator\3.3\PSoC Creator\psoc\content\cycomponentlibrary\CyComponentLibrary.cylib\BLE_v2_0\Library\gccCyBLEStack_BLE_SOC_PERIPHERAL.a(lec_hci_param_converter.o)
 .debug_frame   0x0000afac       0x48 C:\9047software\PSoC Creator\3.3\PSoC Creator\psoc\content\cycomponentlibrary\CyComponentLibrary.cylib\BLE_v2_0\Library\gccCyBLEStack_BLE_SOC_PERIPHERAL.a(lec_hci_param_converter.o)
 .debug_frame   0x0000aff4       0x44 C:\9047software\PSoC Creator\3.3\PSoC Creator\psoc\content\cycomponentlibrary\CyComponentLibrary.cylib\BLE_v2_0\Library\gccCyBLEStack_BLE_SOC_PERIPHERAL.a(lec_hci_param_converter.o)
 .debug_frame   0x0000b038       0x44 C:\9047software\PSoC Creator\3.3\PSoC Creator\psoc\content\cycomponentlibrary\CyComponentLibrary.cylib\BLE_v2_0\Library\gccCyBLEStack_BLE_SOC_PERIPHERAL.a(lec_hci_param_converter.o)
 .debug_frame   0x0000b07c       0x3c C:\9047software\PSoC Creator\3.3\PSoC Creator\psoc\content\cycomponentlibrary\CyComponentLibrary.cylib\BLE_v2_0\Library\gccCyBLEStack_BLE_SOC_PERIPHERAL.a(lec_hci_param_converter.o)
 .debug_frame   0x0000b0b8       0x3c C:\9047software\PSoC Creator\3.3\PSoC Creator\psoc\content\cycomponentlibrary\CyComponentLibrary.cylib\BLE_v2_0\Library\gccCyBLEStack_BLE_SOC_PERIPHERAL.a(lec_hci_param_converter.o)
 .debug_frame   0x0000b0f4       0x3c C:\9047software\PSoC Creator\3.3\PSoC Creator\psoc\content\cycomponentlibrary\CyComponentLibrary.cylib\BLE_v2_0\Library\gccCyBLEStack_BLE_SOC_PERIPHERAL.a(lec_hci_param_converter.o)
 .debug_frame   0x0000b130       0x44 C:\9047software\PSoC Creator\3.3\PSoC Creator\psoc\content\cycomponentlibrary\CyComponentLibrary.cylib\BLE_v2_0\Library\gccCyBLEStack_BLE_SOC_PERIPHERAL.a(lec_hci_param_converter.o)
 .debug_frame   0x0000b174       0x44 C:\9047software\PSoC Creator\3.3\PSoC Creator\psoc\content\cycomponentlibrary\CyComponentLibrary.cylib\BLE_v2_0\Library\gccCyBLEStack_BLE_SOC_PERIPHERAL.a(lec_hci_param_converter.o)
 .debug_frame   0x0000b1b8       0x3c C:\9047software\PSoC Creator\3.3\PSoC Creator\psoc\content\cycomponentlibrary\CyComponentLibrary.cylib\BLE_v2_0\Library\gccCyBLEStack_BLE_SOC_PERIPHERAL.a(lec_hci_param_converter.o)
 .debug_frame   0x0000b1f4       0x3c C:\9047software\PSoC Creator\3.3\PSoC Creator\psoc\content\cycomponentlibrary\CyComponentLibrary.cylib\BLE_v2_0\Library\gccCyBLEStack_BLE_SOC_PERIPHERAL.a(lec_hci_param_converter.o)
 .debug_frame   0x0000b230       0x48 C:\9047software\PSoC Creator\3.3\PSoC Creator\psoc\content\cycomponentlibrary\CyComponentLibrary.cylib\BLE_v2_0\Library\gccCyBLEStack_BLE_SOC_PERIPHERAL.a(lec_hci_param_converter.o)
 .debug_frame   0x0000b278       0x3c C:\9047software\PSoC Creator\3.3\PSoC Creator\psoc\content\cycomponentlibrary\CyComponentLibrary.cylib\BLE_v2_0\Library\gccCyBLEStack_BLE_SOC_PERIPHERAL.a(lec_hci_param_converter.o)
 .debug_frame   0x0000b2b4       0x3c C:\9047software\PSoC Creator\3.3\PSoC Creator\psoc\content\cycomponentlibrary\CyComponentLibrary.cylib\BLE_v2_0\Library\gccCyBLEStack_BLE_SOC_PERIPHERAL.a(lec_hci_param_converter.o)
 .debug_frame   0x0000b2f0       0x44 C:\9047software\PSoC Creator\3.3\PSoC Creator\psoc\content\cycomponentlibrary\CyComponentLibrary.cylib\BLE_v2_0\Library\gccCyBLEStack_BLE_SOC_PERIPHERAL.a(lec_hci_param_converter.o)
 .debug_frame   0x0000b334       0x3c C:\9047software\PSoC Creator\3.3\PSoC Creator\psoc\content\cycomponentlibrary\CyComponentLibrary.cylib\BLE_v2_0\Library\gccCyBLEStack_BLE_SOC_PERIPHERAL.a(lec_hci_param_converter.o)
 .debug_frame   0x0000b370       0x3c C:\9047software\PSoC Creator\3.3\PSoC Creator\psoc\content\cycomponentlibrary\CyComponentLibrary.cylib\BLE_v2_0\Library\gccCyBLEStack_BLE_SOC_PERIPHERAL.a(lec_hci_param_converter.o)
 .debug_frame   0x0000b3ac       0x3c C:\9047software\PSoC Creator\3.3\PSoC Creator\psoc\content\cycomponentlibrary\CyComponentLibrary.cylib\BLE_v2_0\Library\gccCyBLEStack_BLE_SOC_PERIPHERAL.a(lec_hci_param_converter.o)
 .debug_frame   0x0000b3e8       0x48 C:\9047software\PSoC Creator\3.3\PSoC Creator\psoc\content\cycomponentlibrary\CyComponentLibrary.cylib\BLE_v2_0\Library\gccCyBLEStack_BLE_SOC_PERIPHERAL.a(lec_hci_param_converter.o)
 .debug_frame   0x0000b430       0x44 C:\9047software\PSoC Creator\3.3\PSoC Creator\psoc\content\cycomponentlibrary\CyComponentLibrary.cylib\BLE_v2_0\Library\gccCyBLEStack_BLE_SOC_PERIPHERAL.a(lec_hci_param_converter.o)
 .debug_frame   0x0000b474       0x3c C:\9047software\PSoC Creator\3.3\PSoC Creator\psoc\content\cycomponentlibrary\CyComponentLibrary.cylib\BLE_v2_0\Library\gccCyBLEStack_BLE_SOC_PERIPHERAL.a(lec_hci_param_converter.o)
 .debug_frame   0x0000b4b0       0x3c C:\9047software\PSoC Creator\3.3\PSoC Creator\psoc\content\cycomponentlibrary\CyComponentLibrary.cylib\BLE_v2_0\Library\gccCyBLEStack_BLE_SOC_PERIPHERAL.a(lec_hci_param_converter.o)
 .debug_frame   0x0000b4ec       0x3c C:\9047software\PSoC Creator\3.3\PSoC Creator\psoc\content\cycomponentlibrary\CyComponentLibrary.cylib\BLE_v2_0\Library\gccCyBLEStack_BLE_SOC_PERIPHERAL.a(lec_hci_param_converter.o)
 .debug_frame   0x0000b528       0x3c C:\9047software\PSoC Creator\3.3\PSoC Creator\psoc\content\cycomponentlibrary\CyComponentLibrary.cylib\BLE_v2_0\Library\gccCyBLEStack_BLE_SOC_PERIPHERAL.a(lec_hci_param_converter.o)
 .debug_frame   0x0000b564       0x3c C:\9047software\PSoC Creator\3.3\PSoC Creator\psoc\content\cycomponentlibrary\CyComponentLibrary.cylib\BLE_v2_0\Library\gccCyBLEStack_BLE_SOC_PERIPHERAL.a(lec_hci_param_converter.o)
 .debug_frame   0x0000b5a0       0x3c C:\9047software\PSoC Creator\3.3\PSoC Creator\psoc\content\cycomponentlibrary\CyComponentLibrary.cylib\BLE_v2_0\Library\gccCyBLEStack_BLE_SOC_PERIPHERAL.a(lec_hci_param_converter.o)
 .debug_frame   0x0000b5dc       0x3c C:\9047software\PSoC Creator\3.3\PSoC Creator\psoc\content\cycomponentlibrary\CyComponentLibrary.cylib\BLE_v2_0\Library\gccCyBLEStack_BLE_SOC_PERIPHERAL.a(lec_hci_param_converter.o)
 .debug_frame   0x0000b618       0x3c C:\9047software\PSoC Creator\3.3\PSoC Creator\psoc\content\cycomponentlibrary\CyComponentLibrary.cylib\BLE_v2_0\Library\gccCyBLEStack_BLE_SOC_PERIPHERAL.a(lec_hci_param_validation.o)
 .debug_frame   0x0000b654       0x3c C:\9047software\PSoC Creator\3.3\PSoC Creator\psoc\content\cycomponentlibrary\CyComponentLibrary.cylib\BLE_v2_0\Library\gccCyBLEStack_BLE_SOC_PERIPHERAL.a(lec_hci_param_validation.o)
 .debug_frame   0x0000b690       0x44 C:\9047software\PSoC Creator\3.3\PSoC Creator\psoc\content\cycomponentlibrary\CyComponentLibrary.cylib\BLE_v2_0\Library\gccCyBLEStack_BLE_SOC_PERIPHERAL.a(lec_hci_param_validation.o)
 .debug_frame   0x0000b6d4       0x3c C:\9047software\PSoC Creator\3.3\PSoC Creator\psoc\content\cycomponentlibrary\CyComponentLibrary.cylib\BLE_v2_0\Library\gccCyBLEStack_BLE_SOC_PERIPHERAL.a(lec_hci_param_validation.o)
 .debug_frame   0x0000b710       0x3c C:\9047software\PSoC Creator\3.3\PSoC Creator\psoc\content\cycomponentlibrary\CyComponentLibrary.cylib\BLE_v2_0\Library\gccCyBLEStack_BLE_SOC_PERIPHERAL.a(lec_hci_param_validation.o)
 .debug_frame   0x0000b74c       0x3c C:\9047software\PSoC Creator\3.3\PSoC Creator\psoc\content\cycomponentlibrary\CyComponentLibrary.cylib\BLE_v2_0\Library\gccCyBLEStack_BLE_SOC_PERIPHERAL.a(lec_hci_param_validation.o)
 .debug_frame   0x0000b788       0x3c C:\9047software\PSoC Creator\3.3\PSoC Creator\psoc\content\cycomponentlibrary\CyComponentLibrary.cylib\BLE_v2_0\Library\gccCyBLEStack_BLE_SOC_PERIPHERAL.a(lec_hci_param_validation.o)
 .debug_frame   0x0000b7c4       0x3c C:\9047software\PSoC Creator\3.3\PSoC Creator\psoc\content\cycomponentlibrary\CyComponentLibrary.cylib\BLE_v2_0\Library\gccCyBLEStack_BLE_SOC_PERIPHERAL.a(lec_hci_param_validation.o)
 .debug_frame   0x0000b800       0x44 C:\9047software\PSoC Creator\3.3\PSoC Creator\psoc\content\cycomponentlibrary\CyComponentLibrary.cylib\BLE_v2_0\Library\gccCyBLEStack_BLE_SOC_PERIPHERAL.a(lec_hci_param_validation.o)
 .debug_frame   0x0000b844       0x44 C:\9047software\PSoC Creator\3.3\PSoC Creator\psoc\content\cycomponentlibrary\CyComponentLibrary.cylib\BLE_v2_0\Library\gccCyBLEStack_BLE_SOC_PERIPHERAL.a(lec_hci_param_validation.o)
 .debug_frame   0x0000b888       0x44 C:\9047software\PSoC Creator\3.3\PSoC Creator\psoc\content\cycomponentlibrary\CyComponentLibrary.cylib\BLE_v2_0\Library\gccCyBLEStack_BLE_SOC_PERIPHERAL.a(lec_hci_param_validation.o)
 .debug_frame   0x0000b8cc       0x44 C:\9047software\PSoC Creator\3.3\PSoC Creator\psoc\content\cycomponentlibrary\CyComponentLibrary.cylib\BLE_v2_0\Library\gccCyBLEStack_BLE_SOC_PERIPHERAL.a(lec_hci_param_validation.o)
 .debug_frame   0x0000b910       0x44 C:\9047software\PSoC Creator\3.3\PSoC Creator\psoc\content\cycomponentlibrary\CyComponentLibrary.cylib\BLE_v2_0\Library\gccCyBLEStack_BLE_SOC_PERIPHERAL.a(lec_hci_param_validation.o)
 .debug_frame   0x0000b954       0x3c C:\9047software\PSoC Creator\3.3\PSoC Creator\psoc\content\cycomponentlibrary\CyComponentLibrary.cylib\BLE_v2_0\Library\gccCyBLEStack_BLE_SOC_PERIPHERAL.a(lec_hci_param_validation.o)
 .debug_frame   0x0000b990       0x3c C:\9047software\PSoC Creator\3.3\PSoC Creator\psoc\content\cycomponentlibrary\CyComponentLibrary.cylib\BLE_v2_0\Library\gccCyBLEStack_BLE_SOC_PERIPHERAL.a(lec_hci_param_validation.o)
 .debug_frame   0x0000b9cc       0x3c C:\9047software\PSoC Creator\3.3\PSoC Creator\psoc\content\cycomponentlibrary\CyComponentLibrary.cylib\BLE_v2_0\Library\gccCyBLEStack_BLE_SOC_PERIPHERAL.a(lec_hci_param_validation.o)
 .debug_frame   0x0000ba08       0x3c C:\9047software\PSoC Creator\3.3\PSoC Creator\psoc\content\cycomponentlibrary\CyComponentLibrary.cylib\BLE_v2_0\Library\gccCyBLEStack_BLE_SOC_PERIPHERAL.a(lec_hci_param_validation.o)
 .debug_frame   0x0000ba44       0x3c C:\9047software\PSoC Creator\3.3\PSoC Creator\psoc\content\cycomponentlibrary\CyComponentLibrary.cylib\BLE_v2_0\Library\gccCyBLEStack_BLE_SOC_PERIPHERAL.a(lec_hci_param_validation.o)
 .debug_frame   0x0000ba80       0x44 C:\9047software\PSoC Creator\3.3\PSoC Creator\psoc\content\cycomponentlibrary\CyComponentLibrary.cylib\BLE_v2_0\Library\gccCyBLEStack_BLE_SOC_PERIPHERAL.a(lec_hci_param_validation.o)
 .debug_frame   0x0000bac4       0x3c C:\9047software\PSoC Creator\3.3\PSoC Creator\psoc\content\cycomponentlibrary\CyComponentLibrary.cylib\BLE_v2_0\Library\gccCyBLEStack_BLE_SOC_PERIPHERAL.a(lec_hci_param_validation.o)
 .debug_frame   0x0000bb00       0x3c C:\9047software\PSoC Creator\3.3\PSoC Creator\psoc\content\cycomponentlibrary\CyComponentLibrary.cylib\BLE_v2_0\Library\gccCyBLEStack_BLE_SOC_PERIPHERAL.a(lec_hci_param_validation.o)
 .debug_frame   0x0000bb3c       0x3c C:\9047software\PSoC Creator\3.3\PSoC Creator\psoc\content\cycomponentlibrary\CyComponentLibrary.cylib\BLE_v2_0\Library\gccCyBLEStack_BLE_SOC_PERIPHERAL.a(lec_hci_param_validation.o)
 .debug_frame   0x0000bb78       0x3c C:\9047software\PSoC Creator\3.3\PSoC Creator\psoc\content\cycomponentlibrary\CyComponentLibrary.cylib\BLE_v2_0\Library\gccCyBLEStack_BLE_SOC_PERIPHERAL.a(lec_hci_param_validation.o)
 .debug_frame   0x0000bbb4       0x44 C:\9047software\PSoC Creator\3.3\PSoC Creator\psoc\content\cycomponentlibrary\CyComponentLibrary.cylib\BLE_v2_0\Library\gccCyBLEStack_BLE_SOC_PERIPHERAL.a(lec_hci_param_validation.o)
 .debug_frame   0x0000bbf8       0x44 C:\9047software\PSoC Creator\3.3\PSoC Creator\psoc\content\cycomponentlibrary\CyComponentLibrary.cylib\BLE_v2_0\Library\gccCyBLEStack_BLE_SOC_PERIPHERAL.a(lec_hci_param_validation.o)
 .debug_frame   0x0000bc3c       0x3c C:\9047software\PSoC Creator\3.3\PSoC Creator\psoc\content\cycomponentlibrary\CyComponentLibrary.cylib\BLE_v2_0\Library\gccCyBLEStack_BLE_SOC_PERIPHERAL.a(hci_td.o)
 .debug_frame   0x0000bc78       0x3c C:\9047software\PSoC Creator\3.3\PSoC Creator\psoc\content\cycomponentlibrary\CyComponentLibrary.cylib\BLE_v2_0\Library\gccCyBLEStack_BLE_SOC_PERIPHERAL.a(hci_td.o)
 .debug_frame   0x0000bcb4       0x44 C:\9047software\PSoC Creator\3.3\PSoC Creator\psoc\content\cycomponentlibrary\CyComponentLibrary.cylib\BLE_v2_0\Library\gccCyBLEStack_BLE_SOC_PERIPHERAL.a(hci_td.o)
 .debug_frame   0x0000bcf8       0x44 C:\9047software\PSoC Creator\3.3\PSoC Creator\psoc\content\cycomponentlibrary\CyComponentLibrary.cylib\BLE_v2_0\Library\gccCyBLEStack_BLE_SOC_PERIPHERAL.a(hci_td.o)
 .debug_frame   0x0000bd3c       0x3c C:\9047software\PSoC Creator\3.3\PSoC Creator\psoc\content\cycomponentlibrary\CyComponentLibrary.cylib\BLE_v2_0\Library\gccCyBLEStack_BLE_SOC_PERIPHERAL.a(hci_td.o)
 .debug_frame   0x0000bd78       0x48 C:\9047software\PSoC Creator\3.3\PSoC Creator\psoc\content\cycomponentlibrary\CyComponentLibrary.cylib\BLE_v2_0\Library\gccCyBLEStack_BLE_SOC_PERIPHERAL.a(hci_td.o)
 .debug_frame   0x0000bdc0       0x44 C:\9047software\PSoC Creator\3.3\PSoC Creator\psoc\content\cycomponentlibrary\CyComponentLibrary.cylib\BLE_v2_0\Library\gccCyBLEStack_BLE_SOC_PERIPHERAL.a(hci_td.o)
 .debug_frame   0x0000be04       0x48 C:\9047software\PSoC Creator\3.3\PSoC Creator\psoc\content\cycomponentlibrary\CyComponentLibrary.cylib\BLE_v2_0\Library\gccCyBLEStack_BLE_SOC_PERIPHERAL.a(hci_td.o)
 .debug_frame   0x0000be4c       0x44 C:\9047software\PSoC Creator\3.3\PSoC Creator\psoc\content\cycomponentlibrary\CyComponentLibrary.cylib\BLE_v2_0\Library\gccCyBLEStack_BLE_SOC_PERIPHERAL.a(hci_td.o)
 .debug_frame   0x0000be90       0x4c C:\9047software\PSoC Creator\3.3\PSoC Creator\psoc\content\cycomponentlibrary\CyComponentLibrary.cylib\BLE_v2_0\Library\gccCyBLEStack_BLE_SOC_PERIPHERAL.a(hci_td.o)
 .debug_frame   0x0000bedc       0x44 C:\9047software\PSoC Creator\3.3\PSoC Creator\psoc\content\cycomponentlibrary\CyComponentLibrary.cylib\BLE_v2_0\Library\gccCyBLEStack_BLE_SOC_PERIPHERAL.a(hci_td.o)
 .debug_frame   0x0000bf20       0x44 C:\9047software\PSoC Creator\3.3\PSoC Creator\psoc\content\cycomponentlibrary\CyComponentLibrary.cylib\BLE_v2_0\Library\gccCyBLEStack_BLE_SOC_PERIPHERAL.a(hci_td_api.o)
 .debug_frame   0x0000bf64       0x44 C:\9047software\PSoC Creator\3.3\PSoC Creator\psoc\content\cycomponentlibrary\CyComponentLibrary.cylib\BLE_v2_0\Library\gccCyBLEStack_BLE_SOC_PERIPHERAL.a(hci_td_api.o)
 .debug_frame   0x0000bfa8       0x44 C:\9047software\PSoC Creator\3.3\PSoC Creator\psoc\content\cycomponentlibrary\CyComponentLibrary.cylib\BLE_v2_0\Library\gccCyBLEStack_BLE_SOC_PERIPHERAL.a(hci_td_api.o)
 .debug_frame   0x0000bfec       0x48 C:\9047software\PSoC Creator\3.3\PSoC Creator\psoc\content\cycomponentlibrary\CyComponentLibrary.cylib\BLE_v2_0\Library\gccCyBLEStack_BLE_SOC_PERIPHERAL.a(hci_td_api.o)
 .debug_frame   0x0000c034       0x44 C:\9047software\PSoC Creator\3.3\PSoC Creator\psoc\content\cycomponentlibrary\CyComponentLibrary.cylib\BLE_v2_0\Library\gccCyBLEStack_BLE_SOC_PERIPHERAL.a(hci_td_api.o)
 .debug_frame   0x0000c078       0x44 C:\9047software\PSoC Creator\3.3\PSoC Creator\psoc\content\cycomponentlibrary\CyComponentLibrary.cylib\BLE_v2_0\Library\gccCyBLEStack_BLE_SOC_PERIPHERAL.a(hci_td_task.o)
 .debug_frame   0x0000c0bc       0x3c C:\9047software\PSoC Creator\3.3\PSoC Creator\psoc\content\cycomponentlibrary\CyComponentLibrary.cylib\BLE_v2_0\Library\gccCyBLEStack_BLE_SOC_PERIPHERAL.a(host_main.o)
 .debug_frame   0x0000c0f8       0x44 C:\9047software\PSoC Creator\3.3\PSoC Creator\psoc\content\cycomponentlibrary\CyComponentLibrary.cylib\BLE_v2_0\Library\gccCyBLEStack_BLE_SOC_PERIPHERAL.a(host_main.o)
 .debug_frame   0x0000c13c       0x50 C:\9047software\PSoC Creator\3.3\PSoC Creator\psoc\content\cycomponentlibrary\CyComponentLibrary.cylib\BLE_v2_0\Library\gccCyBLEStack_BLE_SOC_PERIPHERAL.a(host_main.o)
 .debug_frame   0x0000c18c       0x44 C:\9047software\PSoC Creator\3.3\PSoC Creator\psoc\content\cycomponentlibrary\CyComponentLibrary.cylib\BLE_v2_0\Library\gccCyBLEStack_BLE_SOC_PERIPHERAL.a(host_main.o)
 .debug_frame   0x0000c1d0       0x44 C:\9047software\PSoC Creator\3.3\PSoC Creator\psoc\content\cycomponentlibrary\CyComponentLibrary.cylib\BLE_v2_0\Library\gccCyBLEStack_BLE_SOC_PERIPHERAL.a(host_main.o)
 .debug_frame   0x0000c214       0x44 C:\9047software\PSoC Creator\3.3\PSoC Creator\psoc\content\cycomponentlibrary\CyComponentLibrary.cylib\BLE_v2_0\Library\gccCyBLEStack_BLE_SOC_PERIPHERAL.a(host_main.o)
 .debug_frame   0x0000c258       0x44 C:\9047software\PSoC Creator\3.3\PSoC Creator\psoc\content\cycomponentlibrary\CyComponentLibrary.cylib\BLE_v2_0\Library\gccCyBLEStack_BLE_SOC_PERIPHERAL.a(host_main.o)
 .debug_frame   0x0000c29c       0x4c C:\9047software\PSoC Creator\3.3\PSoC Creator\psoc\content\cycomponentlibrary\CyComponentLibrary.cylib\BLE_v2_0\Library\gccCyBLEStack_BLE_SOC_PERIPHERAL.a(host_main.o)
 .debug_frame   0x0000c2e8       0x44 C:\9047software\PSoC Creator\3.3\PSoC Creator\psoc\content\cycomponentlibrary\CyComponentLibrary.cylib\BLE_v2_0\Library\gccCyBLEStack_BLE_SOC_PERIPHERAL.a(host_main.o)
 .debug_frame   0x0000c32c       0x44 C:\9047software\PSoC Creator\3.3\PSoC Creator\psoc\content\cycomponentlibrary\CyComponentLibrary.cylib\BLE_v2_0\Library\gccCyBLEStack_BLE_SOC_PERIPHERAL.a(host_main.o)
 .debug_frame   0x0000c370       0x3c C:\9047software\PSoC Creator\3.3\PSoC Creator\psoc\content\cycomponentlibrary\CyComponentLibrary.cylib\BLE_v2_0\Library\gccCyBLEStack_BLE_SOC_PERIPHERAL.a(att_api.o)
 .debug_frame   0x0000c3ac       0x54 C:\9047software\PSoC Creator\3.3\PSoC Creator\psoc\content\cycomponentlibrary\CyComponentLibrary.cylib\BLE_v2_0\Library\gccCyBLEStack_BLE_SOC_PERIPHERAL.a(att_api.o)
 .debug_frame   0x0000c400       0x3c C:\9047software\PSoC Creator\3.3\PSoC Creator\psoc\content\cycomponentlibrary\CyComponentLibrary.cylib\BLE_v2_0\Library\gccCyBLEStack_BLE_SOC_PERIPHERAL.a(att_api.o)
 .debug_frame   0x0000c43c       0x3c C:\9047software\PSoC Creator\3.3\PSoC Creator\psoc\content\cycomponentlibrary\CyComponentLibrary.cylib\BLE_v2_0\Library\gccCyBLEStack_BLE_SOC_PERIPHERAL.a(att_init.o)
 .debug_frame   0x0000c478       0x44 C:\9047software\PSoC Creator\3.3\PSoC Creator\psoc\content\cycomponentlibrary\CyComponentLibrary.cylib\BLE_v2_0\Library\gccCyBLEStack_BLE_SOC_PERIPHERAL.a(att_init.o)
 .debug_frame   0x0000c4bc       0x3c C:\9047software\PSoC Creator\3.3\PSoC Creator\psoc\content\cycomponentlibrary\CyComponentLibrary.cylib\BLE_v2_0\Library\gccCyBLEStack_BLE_SOC_PERIPHERAL.a(att_init.o)
 .debug_frame   0x0000c4f8       0x3c C:\9047software\PSoC Creator\3.3\PSoC Creator\psoc\content\cycomponentlibrary\CyComponentLibrary.cylib\BLE_v2_0\Library\gccCyBLEStack_BLE_SOC_PERIPHERAL.a(att_internal.o)
 .debug_frame   0x0000c534       0x48 C:\9047software\PSoC Creator\3.3\PSoC Creator\psoc\content\cycomponentlibrary\CyComponentLibrary.cylib\BLE_v2_0\Library\gccCyBLEStack_BLE_SOC_PERIPHERAL.a(att_internal.o)
 .debug_frame   0x0000c57c       0x54 C:\9047software\PSoC Creator\3.3\PSoC Creator\psoc\content\cycomponentlibrary\CyComponentLibrary.cylib\BLE_v2_0\Library\gccCyBLEStack_BLE_SOC_PERIPHERAL.a(att_internal.o)
 .debug_frame   0x0000c5d0       0x4c C:\9047software\PSoC Creator\3.3\PSoC Creator\psoc\content\cycomponentlibrary\CyComponentLibrary.cylib\BLE_v2_0\Library\gccCyBLEStack_BLE_SOC_PERIPHERAL.a(att_internal.o)
 .debug_frame   0x0000c61c       0x54 C:\9047software\PSoC Creator\3.3\PSoC Creator\psoc\content\cycomponentlibrary\CyComponentLibrary.cylib\BLE_v2_0\Library\gccCyBLEStack_BLE_SOC_PERIPHERAL.a(att_internal.o)
 .debug_frame   0x0000c670       0x4c C:\9047software\PSoC Creator\3.3\PSoC Creator\psoc\content\cycomponentlibrary\CyComponentLibrary.cylib\BLE_v2_0\Library\gccCyBLEStack_BLE_SOC_PERIPHERAL.a(att_internal.o)
 .debug_frame   0x0000c6bc       0x4c C:\9047software\PSoC Creator\3.3\PSoC Creator\psoc\content\cycomponentlibrary\CyComponentLibrary.cylib\BLE_v2_0\Library\gccCyBLEStack_BLE_SOC_PERIPHERAL.a(att_internal.o)
 .debug_frame   0x0000c708       0x4c C:\9047software\PSoC Creator\3.3\PSoC Creator\psoc\content\cycomponentlibrary\CyComponentLibrary.cylib\BLE_v2_0\Library\gccCyBLEStack_BLE_SOC_PERIPHERAL.a(att_internal.o)
 .debug_frame   0x0000c754       0x48 C:\9047software\PSoC Creator\3.3\PSoC Creator\psoc\content\cycomponentlibrary\CyComponentLibrary.cylib\BLE_v2_0\Library\gccCyBLEStack_BLE_SOC_PERIPHERAL.a(att_internal.o)
 .debug_frame   0x0000c79c       0x4c C:\9047software\PSoC Creator\3.3\PSoC Creator\psoc\content\cycomponentlibrary\CyComponentLibrary.cylib\BLE_v2_0\Library\gccCyBLEStack_BLE_SOC_PERIPHERAL.a(att_internal.o)
 .debug_frame   0x0000c7e8       0x48 C:\9047software\PSoC Creator\3.3\PSoC Creator\psoc\content\cycomponentlibrary\CyComponentLibrary.cylib\BLE_v2_0\Library\gccCyBLEStack_BLE_SOC_PERIPHERAL.a(att_internal.o)
 .debug_frame   0x0000c830       0x3c C:\9047software\PSoC Creator\3.3\PSoC Creator\psoc\content\cycomponentlibrary\CyComponentLibrary.cylib\BLE_v2_0\Library\gccCyBLEStack_BLE_SOC_PERIPHERAL.a(att_internal.o)
 .debug_frame   0x0000c86c       0x44 C:\9047software\PSoC Creator\3.3\PSoC Creator\psoc\content\cycomponentlibrary\CyComponentLibrary.cylib\BLE_v2_0\Library\gccCyBLEStack_BLE_SOC_PERIPHERAL.a(BT_common.o)
 .debug_frame   0x0000c8b0       0x48 C:\9047software\PSoC Creator\3.3\PSoC Creator\psoc\content\cycomponentlibrary\CyComponentLibrary.cylib\BLE_v2_0\Library\gccCyBLEStack_BLE_SOC_PERIPHERAL.a(BT_common.o)
 .debug_frame   0x0000c8f8       0x44 C:\9047software\PSoC Creator\3.3\PSoC Creator\psoc\content\cycomponentlibrary\CyComponentLibrary.cylib\BLE_v2_0\Library\gccCyBLEStack_BLE_SOC_PERIPHERAL.a(BT_common.o)
 .debug_frame   0x0000c93c       0x44 C:\9047software\PSoC Creator\3.3\PSoC Creator\psoc\content\cycomponentlibrary\CyComponentLibrary.cylib\BLE_v2_0\Library\gccCyBLEStack_BLE_SOC_PERIPHERAL.a(BT_common.o)
 .debug_frame   0x0000c980       0x3c C:\9047software\PSoC Creator\3.3\PSoC Creator\psoc\content\cycomponentlibrary\CyComponentLibrary.cylib\BLE_v2_0\Library\gccCyBLEStack_BLE_SOC_PERIPHERAL.a(BT_common.o)
 .debug_frame   0x0000c9bc       0x48 C:\9047software\PSoC Creator\3.3\PSoC Creator\psoc\content\cycomponentlibrary\CyComponentLibrary.cylib\BLE_v2_0\Library\gccCyBLEStack_BLE_SOC_PERIPHERAL.a(device_queue.o)
 .debug_frame   0x0000ca04       0x44 C:\9047software\PSoC Creator\3.3\PSoC Creator\psoc\content\cycomponentlibrary\CyComponentLibrary.cylib\BLE_v2_0\Library\gccCyBLEStack_BLE_SOC_PERIPHERAL.a(device_queue.o)
 .debug_frame   0x0000ca48       0x4c C:\9047software\PSoC Creator\3.3\PSoC Creator\psoc\content\cycomponentlibrary\CyComponentLibrary.cylib\BLE_v2_0\Library\gccCyBLEStack_BLE_SOC_PERIPHERAL.a(device_queue.o)
 .debug_frame   0x0000ca94       0x44 C:\9047software\PSoC Creator\3.3\PSoC Creator\psoc\content\cycomponentlibrary\CyComponentLibrary.cylib\BLE_v2_0\Library\gccCyBLEStack_BLE_SOC_PERIPHERAL.a(device_queue.o)
 .debug_frame   0x0000cad8       0x54 C:\9047software\PSoC Creator\3.3\PSoC Creator\psoc\content\cycomponentlibrary\CyComponentLibrary.cylib\BLE_v2_0\Library\gccCyBLEStack_BLE_SOC_PERIPHERAL.a(device_queue.o)
 .debug_frame   0x0000cb2c       0x48 C:\9047software\PSoC Creator\3.3\PSoC Creator\psoc\content\cycomponentlibrary\CyComponentLibrary.cylib\BLE_v2_0\Library\gccCyBLEStack_BLE_SOC_PERIPHERAL.a(device_queue.o)
 .debug_frame   0x0000cb74       0x48 C:\9047software\PSoC Creator\3.3\PSoC Creator\psoc\content\cycomponentlibrary\CyComponentLibrary.cylib\BLE_v2_0\Library\gccCyBLEStack_BLE_SOC_PERIPHERAL.a(device_queue.o)
 .debug_frame   0x0000cbbc       0x44 C:\9047software\PSoC Creator\3.3\PSoC Creator\psoc\content\cycomponentlibrary\CyComponentLibrary.cylib\BLE_v2_0\Library\gccCyBLEStack_BLE_SOC_PERIPHERAL.a(device_queue.o)
 .debug_frame   0x0000cc00       0x44 C:\9047software\PSoC Creator\3.3\PSoC Creator\psoc\content\cycomponentlibrary\CyComponentLibrary.cylib\BLE_v2_0\Library\gccCyBLEStack_BLE_SOC_PERIPHERAL.a(device_queue.o)
 .debug_frame   0x0000cc44       0x44 C:\9047software\PSoC Creator\3.3\PSoC Creator\psoc\content\cycomponentlibrary\CyComponentLibrary.cylib\BLE_v2_0\Library\gccCyBLEStack_BLE_SOC_PERIPHERAL.a(device_queue.o)
 .debug_frame   0x0000cc88       0x44 C:\9047software\PSoC Creator\3.3\PSoC Creator\psoc\content\cycomponentlibrary\CyComponentLibrary.cylib\BLE_v2_0\Library\gccCyBLEStack_BLE_SOC_PERIPHERAL.a(device_queue.o)
 .debug_frame   0x0000cccc       0x44 C:\9047software\PSoC Creator\3.3\PSoC Creator\psoc\content\cycomponentlibrary\CyComponentLibrary.cylib\BLE_v2_0\Library\gccCyBLEStack_BLE_SOC_PERIPHERAL.a(l2cap.o)
 .debug_frame   0x0000cd10       0x48 C:\9047software\PSoC Creator\3.3\PSoC Creator\psoc\content\cycomponentlibrary\CyComponentLibrary.cylib\BLE_v2_0\Library\gccCyBLEStack_BLE_SOC_PERIPHERAL.a(l2cap.o)
 .debug_frame   0x0000cd58       0x48 C:\9047software\PSoC Creator\3.3\PSoC Creator\psoc\content\cycomponentlibrary\CyComponentLibrary.cylib\BLE_v2_0\Library\gccCyBLEStack_BLE_SOC_PERIPHERAL.a(l2cap.o)
 .debug_frame   0x0000cda0       0x44 C:\9047software\PSoC Creator\3.3\PSoC Creator\psoc\content\cycomponentlibrary\CyComponentLibrary.cylib\BLE_v2_0\Library\gccCyBLEStack_BLE_SOC_PERIPHERAL.a(l2cap.o)
 .debug_frame   0x0000cde4       0x44 C:\9047software\PSoC Creator\3.3\PSoC Creator\psoc\content\cycomponentlibrary\CyComponentLibrary.cylib\BLE_v2_0\Library\gccCyBLEStack_BLE_SOC_PERIPHERAL.a(l2cap.o)
 .debug_frame   0x0000ce28       0x48 C:\9047software\PSoC Creator\3.3\PSoC Creator\psoc\content\cycomponentlibrary\CyComponentLibrary.cylib\BLE_v2_0\Library\gccCyBLEStack_BLE_SOC_PERIPHERAL.a(l2cap.o)
 .debug_frame   0x0000ce70       0x44 C:\9047software\PSoC Creator\3.3\PSoC Creator\psoc\content\cycomponentlibrary\CyComponentLibrary.cylib\BLE_v2_0\Library\gccCyBLEStack_BLE_SOC_PERIPHERAL.a(l2cap.o)
 .debug_frame   0x0000ceb4       0x44 C:\9047software\PSoC Creator\3.3\PSoC Creator\psoc\content\cycomponentlibrary\CyComponentLibrary.cylib\BLE_v2_0\Library\gccCyBLEStack_BLE_SOC_PERIPHERAL.a(l2cap.o)
 .debug_frame   0x0000cef8       0x48 C:\9047software\PSoC Creator\3.3\PSoC Creator\psoc\content\cycomponentlibrary\CyComponentLibrary.cylib\BLE_v2_0\Library\gccCyBLEStack_BLE_SOC_PERIPHERAL.a(l2cap.o)
 .debug_frame   0x0000cf40       0x44 C:\9047software\PSoC Creator\3.3\PSoC Creator\psoc\content\cycomponentlibrary\CyComponentLibrary.cylib\BLE_v2_0\Library\gccCyBLEStack_BLE_SOC_PERIPHERAL.a(l2cap.o)
 .debug_frame   0x0000cf84       0x44 C:\9047software\PSoC Creator\3.3\PSoC Creator\psoc\content\cycomponentlibrary\CyComponentLibrary.cylib\BLE_v2_0\Library\gccCyBLEStack_BLE_SOC_PERIPHERAL.a(l2cap.o)
 .debug_frame   0x0000cfc8       0x4c C:\9047software\PSoC Creator\3.3\PSoC Creator\psoc\content\cycomponentlibrary\CyComponentLibrary.cylib\BLE_v2_0\Library\gccCyBLEStack_BLE_SOC_PERIPHERAL.a(l2cap.o)
 .debug_frame   0x0000d014       0x44 C:\9047software\PSoC Creator\3.3\PSoC Creator\psoc\content\cycomponentlibrary\CyComponentLibrary.cylib\BLE_v2_0\Library\gccCyBLEStack_BLE_SOC_PERIPHERAL.a(l2cap.o)
 .debug_frame   0x0000d058       0x44 C:\9047software\PSoC Creator\3.3\PSoC Creator\psoc\content\cycomponentlibrary\CyComponentLibrary.cylib\BLE_v2_0\Library\gccCyBLEStack_BLE_SOC_PERIPHERAL.a(l2cap.o)
 .debug_frame   0x0000d09c       0x4c C:\9047software\PSoC Creator\3.3\PSoC Creator\psoc\content\cycomponentlibrary\CyComponentLibrary.cylib\BLE_v2_0\Library\gccCyBLEStack_BLE_SOC_PERIPHERAL.a(l2cap.o)
 .debug_frame   0x0000d0e8       0x44 C:\9047software\PSoC Creator\3.3\PSoC Creator\psoc\content\cycomponentlibrary\CyComponentLibrary.cylib\BLE_v2_0\Library\gccCyBLEStack_BLE_SOC_PERIPHERAL.a(l2cap.o)
 .debug_frame   0x0000d12c       0x4c C:\9047software\PSoC Creator\3.3\PSoC Creator\psoc\content\cycomponentlibrary\CyComponentLibrary.cylib\BLE_v2_0\Library\gccCyBLEStack_BLE_SOC_PERIPHERAL.a(l2cap.o)
 .debug_frame   0x0000d178       0x44 C:\9047software\PSoC Creator\3.3\PSoC Creator\psoc\content\cycomponentlibrary\CyComponentLibrary.cylib\BLE_v2_0\Library\gccCyBLEStack_BLE_SOC_PERIPHERAL.a(l2cap.o)
 .debug_frame   0x0000d1bc       0x44 C:\9047software\PSoC Creator\3.3\PSoC Creator\psoc\content\cycomponentlibrary\CyComponentLibrary.cylib\BLE_v2_0\Library\gccCyBLEStack_BLE_SOC_PERIPHERAL.a(l2cap.o)
 .debug_frame   0x0000d200       0x4c C:\9047software\PSoC Creator\3.3\PSoC Creator\psoc\content\cycomponentlibrary\CyComponentLibrary.cylib\BLE_v2_0\Library\gccCyBLEStack_BLE_SOC_PERIPHERAL.a(l2cap.o)
 .debug_frame   0x0000d24c       0x44 C:\9047software\PSoC Creator\3.3\PSoC Creator\psoc\content\cycomponentlibrary\CyComponentLibrary.cylib\BLE_v2_0\Library\gccCyBLEStack_BLE_SOC_PERIPHERAL.a(l2cap.o)
 .debug_frame   0x0000d290       0x44 C:\9047software\PSoC Creator\3.3\PSoC Creator\psoc\content\cycomponentlibrary\CyComponentLibrary.cylib\BLE_v2_0\Library\gccCyBLEStack_BLE_SOC_PERIPHERAL.a(l2cap.o)
 .debug_frame   0x0000d2d4       0x4c C:\9047software\PSoC Creator\3.3\PSoC Creator\psoc\content\cycomponentlibrary\CyComponentLibrary.cylib\BLE_v2_0\Library\gccCyBLEStack_BLE_SOC_PERIPHERAL.a(l2cap.o)
 .debug_frame   0x0000d320       0x44 C:\9047software\PSoC Creator\3.3\PSoC Creator\psoc\content\cycomponentlibrary\CyComponentLibrary.cylib\BLE_v2_0\Library\gccCyBLEStack_BLE_SOC_PERIPHERAL.a(l2cap.o)
 .debug_frame   0x0000d364       0x4c C:\9047software\PSoC Creator\3.3\PSoC Creator\psoc\content\cycomponentlibrary\CyComponentLibrary.cylib\BLE_v2_0\Library\gccCyBLEStack_BLE_SOC_PERIPHERAL.a(l2cap_disconnect.o)
 .debug_frame   0x0000d3b0       0x54 C:\9047software\PSoC Creator\3.3\PSoC Creator\psoc\content\cycomponentlibrary\CyComponentLibrary.cylib\BLE_v2_0\Library\gccCyBLEStack_BLE_SOC_PERIPHERAL.a(l2cap_disconnect.o)
 .debug_frame   0x0000d404       0x48 C:\9047software\PSoC Creator\3.3\PSoC Creator\psoc\content\cycomponentlibrary\CyComponentLibrary.cylib\BLE_v2_0\Library\gccCyBLEStack_BLE_SOC_PERIPHERAL.a(l2cap_disconnect.o)
 .debug_frame   0x0000d44c       0x4c C:\9047software\PSoC Creator\3.3\PSoC Creator\psoc\content\cycomponentlibrary\CyComponentLibrary.cylib\BLE_v2_0\Library\gccCyBLEStack_BLE_SOC_PERIPHERAL.a(l2cap_disconnect.o)
 .debug_frame   0x0000d498       0x50 C:\9047software\PSoC Creator\3.3\PSoC Creator\psoc\content\cycomponentlibrary\CyComponentLibrary.cylib\BLE_v2_0\Library\gccCyBLEStack_BLE_SOC_PERIPHERAL.a(l2cap_disconnect.o)
 .debug_frame   0x0000d4e8       0x3c C:\9047software\PSoC Creator\3.3\PSoC Creator\psoc\content\cycomponentlibrary\CyComponentLibrary.cylib\BLE_v2_0\Library\gccCyBLEStack_BLE_SOC_PERIPHERAL.a(l2cap_init.o)
 .debug_frame   0x0000d524       0x48 C:\9047software\PSoC Creator\3.3\PSoC Creator\psoc\content\cycomponentlibrary\CyComponentLibrary.cylib\BLE_v2_0\Library\gccCyBLEStack_BLE_SOC_PERIPHERAL.a(l2cap_init.o)
 .debug_frame   0x0000d56c       0x48 C:\9047software\PSoC Creator\3.3\PSoC Creator\psoc\content\cycomponentlibrary\CyComponentLibrary.cylib\BLE_v2_0\Library\gccCyBLEStack_BLE_SOC_PERIPHERAL.a(l2cap_init.o)
 .debug_frame   0x0000d5b4       0x3c C:\9047software\PSoC Creator\3.3\PSoC Creator\psoc\content\cycomponentlibrary\CyComponentLibrary.cylib\BLE_v2_0\Library\gccCyBLEStack_BLE_SOC_PERIPHERAL.a(l2cap_init.o)
 .debug_frame   0x0000d5f0       0x3c C:\9047software\PSoC Creator\3.3\PSoC Creator\psoc\content\cycomponentlibrary\CyComponentLibrary.cylib\BLE_v2_0\Library\gccCyBLEStack_BLE_SOC_PERIPHERAL.a(l2cap_init.o)
 .debug_frame   0x0000d62c       0x44 C:\9047software\PSoC Creator\3.3\PSoC Creator\psoc\content\cycomponentlibrary\CyComponentLibrary.cylib\BLE_v2_0\Library\gccCyBLEStack_BLE_SOC_PERIPHERAL.a(l2cap_init.o)
 .debug_frame   0x0000d670       0x44 C:\9047software\PSoC Creator\3.3\PSoC Creator\psoc\content\cycomponentlibrary\CyComponentLibrary.cylib\BLE_v2_0\Library\gccCyBLEStack_BLE_SOC_PERIPHERAL.a(l2cap_init.o)
 .debug_frame   0x0000d6b4       0x4c C:\9047software\PSoC Creator\3.3\PSoC Creator\psoc\content\cycomponentlibrary\CyComponentLibrary.cylib\BLE_v2_0\Library\gccCyBLEStack_BLE_SOC_PERIPHERAL.a(l2cap_init.o)
 .debug_frame   0x0000d700       0x44 C:\9047software\PSoC Creator\3.3\PSoC Creator\psoc\content\cycomponentlibrary\CyComponentLibrary.cylib\BLE_v2_0\Library\gccCyBLEStack_BLE_SOC_PERIPHERAL.a(l2cap_utils.o)
 .debug_frame   0x0000d744       0x3c C:\9047software\PSoC Creator\3.3\PSoC Creator\psoc\content\cycomponentlibrary\CyComponentLibrary.cylib\BLE_v2_0\Library\gccCyBLEStack_BLE_SOC_PERIPHERAL.a(l2cap_utils.o)
 .debug_frame   0x0000d780       0x50 C:\9047software\PSoC Creator\3.3\PSoC Creator\psoc\content\cycomponentlibrary\CyComponentLibrary.cylib\BLE_v2_0\Library\gccCyBLEStack_BLE_SOC_PERIPHERAL.a(l2cap_utils.o)
 .debug_frame   0x0000d7d0       0x48 C:\9047software\PSoC Creator\3.3\PSoC Creator\psoc\content\cycomponentlibrary\CyComponentLibrary.cylib\BLE_v2_0\Library\gccCyBLEStack_BLE_SOC_PERIPHERAL.a(l2cap_utils.o)
 .debug_frame   0x0000d818       0x48 C:\9047software\PSoC Creator\3.3\PSoC Creator\psoc\content\cycomponentlibrary\CyComponentLibrary.cylib\BLE_v2_0\Library\gccCyBLEStack_BLE_SOC_PERIPHERAL.a(l2cap_utils.o)
 .debug_frame   0x0000d860       0x44 C:\9047software\PSoC Creator\3.3\PSoC Creator\psoc\content\cycomponentlibrary\CyComponentLibrary.cylib\BLE_v2_0\Library\gccCyBLEStack_BLE_SOC_PERIPHERAL.a(l2cap_utils.o)
 .debug_frame   0x0000d8a4       0x4c C:\9047software\PSoC Creator\3.3\PSoC Creator\psoc\content\cycomponentlibrary\CyComponentLibrary.cylib\BLE_v2_0\Library\gccCyBLEStack_BLE_SOC_PERIPHERAL.a(l2cap_utils.o)
 .debug_frame   0x0000d8f0       0x3c C:\9047software\PSoC Creator\3.3\PSoC Creator\psoc\content\cycomponentlibrary\CyComponentLibrary.cylib\BLE_v2_0\Library\gccCyBLEStack_BLE_SOC_PERIPHERAL.a(l2cap_lmp.o)
 .debug_frame   0x0000d92c       0x54 C:\9047software\PSoC Creator\3.3\PSoC Creator\psoc\content\cycomponentlibrary\CyComponentLibrary.cylib\BLE_v2_0\Library\gccCyBLEStack_BLE_SOC_PERIPHERAL.a(l2cap_lmp.o)
 .debug_frame   0x0000d980       0x44 C:\9047software\PSoC Creator\3.3\PSoC Creator\psoc\content\cycomponentlibrary\CyComponentLibrary.cylib\BLE_v2_0\Library\gccCyBLEStack_BLE_SOC_PERIPHERAL.a(l2cap_lmp.o)
 .debug_frame   0x0000d9c4       0x4c C:\9047software\PSoC Creator\3.3\PSoC Creator\psoc\content\cycomponentlibrary\CyComponentLibrary.cylib\BLE_v2_0\Library\gccCyBLEStack_BLE_SOC_PERIPHERAL.a(l2cap_lmp.o)
 .debug_frame   0x0000da10       0x44 C:\9047software\PSoC Creator\3.3\PSoC Creator\psoc\content\cycomponentlibrary\CyComponentLibrary.cylib\BLE_v2_0\Library\gccCyBLEStack_BLE_SOC_PERIPHERAL.a(l2cap_lmp.o)
 .debug_frame   0x0000da54       0x48 C:\9047software\PSoC Creator\3.3\PSoC Creator\psoc\content\cycomponentlibrary\CyComponentLibrary.cylib\BLE_v2_0\Library\gccCyBLEStack_BLE_SOC_PERIPHERAL.a(l2cap_lmp.o)
 .debug_frame   0x0000da9c       0x54 C:\9047software\PSoC Creator\3.3\PSoC Creator\psoc\content\cycomponentlibrary\CyComponentLibrary.cylib\BLE_v2_0\Library\gccCyBLEStack_BLE_SOC_PERIPHERAL.a(l2cap_le.o)
 .debug_frame   0x0000daf0       0x3c C:\9047software\PSoC Creator\3.3\PSoC Creator\psoc\content\cycomponentlibrary\CyComponentLibrary.cylib\BLE_v2_0\Library\gccCyBLEStack_BLE_SOC_PERIPHERAL.a(l2cap_le.o)
 .debug_frame   0x0000db2c       0x4c C:\9047software\PSoC Creator\3.3\PSoC Creator\psoc\content\cycomponentlibrary\CyComponentLibrary.cylib\BLE_v2_0\Library\gccCyBLEStack_BLE_SOC_PERIPHERAL.a(l2cap_fixed_channel.o)
 .debug_frame   0x0000db78       0x3c C:\9047software\PSoC Creator\3.3\PSoC Creator\psoc\content\cycomponentlibrary\CyComponentLibrary.cylib\BLE_v2_0\Library\gccCyBLEStack_BLE_SOC_PERIPHERAL.a(l2cap_fixed_channel.o)
 .debug_frame   0x0000dbb4       0x48 C:\9047software\PSoC Creator\3.3\PSoC Creator\psoc\content\cycomponentlibrary\CyComponentLibrary.cylib\BLE_v2_0\Library\gccCyBLEStack_BLE_SOC_PERIPHERAL.a(l2cap_fixed_channel.o)
 .debug_frame   0x0000dbfc       0x50 C:\9047software\PSoC Creator\3.3\PSoC Creator\psoc\content\cycomponentlibrary\CyComponentLibrary.cylib\BLE_v2_0\Library\gccCyBLEStack_BLE_SOC_PERIPHERAL.a(l2cap_channels.o)
 .debug_frame   0x0000dc4c       0x48 C:\9047software\PSoC Creator\3.3\PSoC Creator\psoc\content\cycomponentlibrary\CyComponentLibrary.cylib\BLE_v2_0\Library\gccCyBLEStack_BLE_SOC_PERIPHERAL.a(l2cap_channels.o)
 .debug_frame   0x0000dc94       0x4c C:\9047software\PSoC Creator\3.3\PSoC Creator\psoc\content\cycomponentlibrary\CyComponentLibrary.cylib\BLE_v2_0\Library\gccCyBLEStack_BLE_SOC_PERIPHERAL.a(l2cap_channels.o)
 .debug_frame   0x0000dce0       0x4c C:\9047software\PSoC Creator\3.3\PSoC Creator\psoc\content\cycomponentlibrary\CyComponentLibrary.cylib\BLE_v2_0\Library\gccCyBLEStack_BLE_SOC_PERIPHERAL.a(l2cap_channels.o)
 .debug_frame   0x0000dd2c       0x3c C:\9047software\PSoC Creator\3.3\PSoC Creator\psoc\content\cycomponentlibrary\CyComponentLibrary.cylib\BLE_v2_0\Library\gccCyBLEStack_BLE_SOC_PERIPHERAL.a(l2cap_credit_mode.o)
 .debug_frame   0x0000dd68       0x3c C:\9047software\PSoC Creator\3.3\PSoC Creator\psoc\content\cycomponentlibrary\CyComponentLibrary.cylib\BLE_v2_0\Library\gccCyBLEStack_BLE_SOC_PERIPHERAL.a(l2cap_credit_mode.o)
 .debug_frame   0x0000dda4       0x4c C:\9047software\PSoC Creator\3.3\PSoC Creator\psoc\content\cycomponentlibrary\CyComponentLibrary.cylib\BLE_v2_0\Library\gccCyBLEStack_BLE_SOC_PERIPHERAL.a(l2cap_credit_mode.o)
 .debug_frame   0x0000ddf0       0x50 C:\9047software\PSoC Creator\3.3\PSoC Creator\psoc\content\cycomponentlibrary\CyComponentLibrary.cylib\BLE_v2_0\Library\gccCyBLEStack_BLE_SOC_PERIPHERAL.a(l2cap_credit_mode.o)
 .debug_frame   0x0000de40       0x54 C:\9047software\PSoC Creator\3.3\PSoC Creator\psoc\content\cycomponentlibrary\CyComponentLibrary.cylib\BLE_v2_0\Library\gccCyBLEStack_BLE_SOC_PERIPHERAL.a(l2cap_credit_mode.o)
 .debug_frame   0x0000de94       0x50 C:\9047software\PSoC Creator\3.3\PSoC Creator\psoc\content\cycomponentlibrary\CyComponentLibrary.cylib\BLE_v2_0\Library\gccCyBLEStack_BLE_SOC_PERIPHERAL.a(l2cap_credit_mode.o)
 .debug_frame   0x0000dee4       0x54 C:\9047software\PSoC Creator\3.3\PSoC Creator\psoc\content\cycomponentlibrary\CyComponentLibrary.cylib\BLE_v2_0\Library\gccCyBLEStack_BLE_SOC_PERIPHERAL.a(l2cap_credit_mode.o)
 .debug_frame   0x0000df38       0x44 C:\9047software\PSoC Creator\3.3\PSoC Creator\psoc\content\cycomponentlibrary\CyComponentLibrary.cylib\BLE_v2_0\Library\gccCyBLEStack_BLE_SOC_PERIPHERAL.a(l2cap_credit_mode.o)
 .debug_frame   0x0000df7c       0x54 C:\9047software\PSoC Creator\3.3\PSoC Creator\psoc\content\cycomponentlibrary\CyComponentLibrary.cylib\BLE_v2_0\Library\gccCyBLEStack_BLE_SOC_PERIPHERAL.a(l2cap_credit_mode.o)
 .debug_frame   0x0000dfd0       0x4c C:\9047software\PSoC Creator\3.3\PSoC Creator\psoc\content\cycomponentlibrary\CyComponentLibrary.cylib\BLE_v2_0\Library\gccCyBLEStack_BLE_SOC_PERIPHERAL.a(l2cap_credit_mode.o)
 .debug_frame   0x0000e01c       0x54 C:\9047software\PSoC Creator\3.3\PSoC Creator\psoc\content\cycomponentlibrary\CyComponentLibrary.cylib\BLE_v2_0\Library\gccCyBLEStack_BLE_SOC_PERIPHERAL.a(l2cap_credit_mode.o)
 .debug_frame   0x0000e070       0x54 C:\9047software\PSoC Creator\3.3\PSoC Creator\psoc\content\cycomponentlibrary\CyComponentLibrary.cylib\BLE_v2_0\Library\gccCyBLEStack_BLE_SOC_PERIPHERAL.a(l2cap_credit_mode.o)
 .debug_frame   0x0000e0c4       0x50 C:\9047software\PSoC Creator\3.3\PSoC Creator\psoc\content\cycomponentlibrary\CyComponentLibrary.cylib\BLE_v2_0\Library\gccCyBLEStack_BLE_SOC_PERIPHERAL.a(l2cap_credit_mode.o)
 .debug_frame   0x0000e114       0x4c C:\9047software\PSoC Creator\3.3\PSoC Creator\psoc\content\cycomponentlibrary\CyComponentLibrary.cylib\BLE_v2_0\Library\gccCyBLEStack_BLE_SOC_PERIPHERAL.a(l2cap_command.o)
 .debug_frame   0x0000e160       0x48 C:\9047software\PSoC Creator\3.3\PSoC Creator\psoc\content\cycomponentlibrary\CyComponentLibrary.cylib\BLE_v2_0\Library\gccCyBLEStack_BLE_SOC_PERIPHERAL.a(l2cap_command.o)
 .debug_frame   0x0000e1a8       0x44 C:\9047software\PSoC Creator\3.3\PSoC Creator\psoc\content\cycomponentlibrary\CyComponentLibrary.cylib\BLE_v2_0\Library\gccCyBLEStack_BLE_SOC_PERIPHERAL.a(l2cap_command.o)
 .debug_frame   0x0000e1ec       0x4c C:\9047software\PSoC Creator\3.3\PSoC Creator\psoc\content\cycomponentlibrary\CyComponentLibrary.cylib\BLE_v2_0\Library\gccCyBLEStack_BLE_SOC_PERIPHERAL.a(l2cap_command.o)
 .debug_frame   0x0000e238       0x4c C:\9047software\PSoC Creator\3.3\PSoC Creator\psoc\content\cycomponentlibrary\CyComponentLibrary.cylib\BLE_v2_0\Library\gccCyBLEStack_BLE_SOC_PERIPHERAL.a(l2cap_command.o)
 .debug_frame   0x0000e284       0x44 C:\9047software\PSoC Creator\3.3\PSoC Creator\psoc\content\cycomponentlibrary\CyComponentLibrary.cylib\BLE_v2_0\Library\gccCyBLEStack_BLE_SOC_PERIPHERAL.a(l2cap_command.o)
 .debug_frame   0x0000e2c8       0x4c C:\9047software\PSoC Creator\3.3\PSoC Creator\psoc\content\cycomponentlibrary\CyComponentLibrary.cylib\BLE_v2_0\Library\gccCyBLEStack_BLE_SOC_PERIPHERAL.a(l2cap_command.o)
 .debug_frame   0x0000e314       0x50 C:\9047software\PSoC Creator\3.3\PSoC Creator\psoc\content\cycomponentlibrary\CyComponentLibrary.cylib\BLE_v2_0\Library\gccCyBLEStack_BLE_SOC_PERIPHERAL.a(l2cap_command.o)
 .debug_frame   0x0000e364       0x44 C:\9047software\PSoC Creator\3.3\PSoC Creator\psoc\content\cycomponentlibrary\CyComponentLibrary.cylib\BLE_v2_0\Library\gccCyBLEStack_BLE_SOC_PERIPHERAL.a(l2cap_command.o)
 .debug_frame   0x0000e3a8       0x4c C:\9047software\PSoC Creator\3.3\PSoC Creator\psoc\content\cycomponentlibrary\CyComponentLibrary.cylib\BLE_v2_0\Library\gccCyBLEStack_BLE_SOC_PERIPHERAL.a(l2cap_command.o)
 .debug_frame   0x0000e3f4       0x4c C:\9047software\PSoC Creator\3.3\PSoC Creator\psoc\content\cycomponentlibrary\CyComponentLibrary.cylib\BLE_v2_0\Library\gccCyBLEStack_BLE_SOC_PERIPHERAL.a(l2cap_command.o)
 .debug_frame   0x0000e440       0x54 C:\9047software\PSoC Creator\3.3\PSoC Creator\psoc\content\cycomponentlibrary\CyComponentLibrary.cylib\BLE_v2_0\Library\gccCyBLEStack_BLE_SOC_PERIPHERAL.a(fsm_engine.o)
 .debug_frame   0x0000e494       0x3c C:\9047software\PSoC Creator\3.3\PSoC Creator\psoc\content\cycomponentlibrary\CyComponentLibrary.cylib\BLE_v2_0\Library\gccCyBLEStack_BLE_SOC_PERIPHERAL.a(gap.o)
 .debug_frame   0x0000e4d0       0x44 C:\9047software\PSoC Creator\3.3\PSoC Creator\psoc\content\cycomponentlibrary\CyComponentLibrary.cylib\BLE_v2_0\Library\gccCyBLEStack_BLE_SOC_PERIPHERAL.a(gap.o)
 .debug_frame   0x0000e514       0x50 C:\9047software\PSoC Creator\3.3\PSoC Creator\psoc\content\cycomponentlibrary\CyComponentLibrary.cylib\BLE_v2_0\Library\gccCyBLEStack_BLE_SOC_PERIPHERAL.a(gap.o)
 .debug_frame   0x0000e564       0x48 C:\9047software\PSoC Creator\3.3\PSoC Creator\psoc\content\cycomponentlibrary\CyComponentLibrary.cylib\BLE_v2_0\Library\gccCyBLEStack_BLE_SOC_PERIPHERAL.a(gap.o)
 .debug_frame   0x0000e5ac       0x50 C:\9047software\PSoC Creator\3.3\PSoC Creator\psoc\content\cycomponentlibrary\CyComponentLibrary.cylib\BLE_v2_0\Library\gccCyBLEStack_BLE_SOC_PERIPHERAL.a(gap.o)
 .debug_frame   0x0000e5fc       0x48 C:\9047software\PSoC Creator\3.3\PSoC Creator\psoc\content\cycomponentlibrary\CyComponentLibrary.cylib\BLE_v2_0\Library\gccCyBLEStack_BLE_SOC_PERIPHERAL.a(gap.o)
 .debug_frame   0x0000e644       0x44 C:\9047software\PSoC Creator\3.3\PSoC Creator\psoc\content\cycomponentlibrary\CyComponentLibrary.cylib\BLE_v2_0\Library\gccCyBLEStack_BLE_SOC_PERIPHERAL.a(gap.o)
 .debug_frame   0x0000e688       0x44 C:\9047software\PSoC Creator\3.3\PSoC Creator\psoc\content\cycomponentlibrary\CyComponentLibrary.cylib\BLE_v2_0\Library\gccCyBLEStack_BLE_SOC_PERIPHERAL.a(gap.o)
 .debug_frame   0x0000e6cc       0x50 C:\9047software\PSoC Creator\3.3\PSoC Creator\psoc\content\cycomponentlibrary\CyComponentLibrary.cylib\BLE_v2_0\Library\gccCyBLEStack_BLE_SOC_PERIPHERAL.a(gap.o)
 .debug_frame   0x0000e71c       0x44 C:\9047software\PSoC Creator\3.3\PSoC Creator\psoc\content\cycomponentlibrary\CyComponentLibrary.cylib\BLE_v2_0\Library\gccCyBLEStack_BLE_SOC_PERIPHERAL.a(gap.o)
 .debug_frame   0x0000e760       0x4c C:\9047software\PSoC Creator\3.3\PSoC Creator\psoc\content\cycomponentlibrary\CyComponentLibrary.cylib\BLE_v2_0\Library\gccCyBLEStack_BLE_SOC_PERIPHERAL.a(gap.o)
 .debug_frame   0x0000e7ac       0x4c C:\9047software\PSoC Creator\3.3\PSoC Creator\psoc\content\cycomponentlibrary\CyComponentLibrary.cylib\BLE_v2_0\Library\gccCyBLEStack_BLE_SOC_PERIPHERAL.a(gap.o)
 .debug_frame   0x0000e7f8       0x4c C:\9047software\PSoC Creator\3.3\PSoC Creator\psoc\content\cycomponentlibrary\CyComponentLibrary.cylib\BLE_v2_0\Library\gccCyBLEStack_BLE_SOC_PERIPHERAL.a(gap.o)
 .debug_frame   0x0000e844       0x48 C:\9047software\PSoC Creator\3.3\PSoC Creator\psoc\content\cycomponentlibrary\CyComponentLibrary.cylib\BLE_v2_0\Library\gccCyBLEStack_BLE_SOC_PERIPHERAL.a(gap.o)
 .debug_frame   0x0000e88c       0x4c C:\9047software\PSoC Creator\3.3\PSoC Creator\psoc\content\cycomponentlibrary\CyComponentLibrary.cylib\BLE_v2_0\Library\gccCyBLEStack_BLE_SOC_PERIPHERAL.a(gap.o)
 .debug_frame   0x0000e8d8       0x50 C:\9047software\PSoC Creator\3.3\PSoC Creator\psoc\content\cycomponentlibrary\CyComponentLibrary.cylib\BLE_v2_0\Library\gccCyBLEStack_BLE_SOC_PERIPHERAL.a(gap.o)
 .debug_frame   0x0000e928       0x44 C:\9047software\PSoC Creator\3.3\PSoC Creator\psoc\content\cycomponentlibrary\CyComponentLibrary.cylib\BLE_v2_0\Library\gccCyBLEStack_BLE_SOC_PERIPHERAL.a(gap.o)
 .debug_frame   0x0000e96c       0x48 C:\9047software\PSoC Creator\3.3\PSoC Creator\psoc\content\cycomponentlibrary\CyComponentLibrary.cylib\BLE_v2_0\Library\gccCyBLEStack_BLE_SOC_PERIPHERAL.a(gap.o)
 .debug_frame   0x0000e9b4       0x54 C:\9047software\PSoC Creator\3.3\PSoC Creator\psoc\content\cycomponentlibrary\CyComponentLibrary.cylib\BLE_v2_0\Library\gccCyBLEStack_BLE_SOC_PERIPHERAL.a(gap.o)
 .debug_frame   0x0000ea08       0x50 C:\9047software\PSoC Creator\3.3\PSoC Creator\psoc\content\cycomponentlibrary\CyComponentLibrary.cylib\BLE_v2_0\Library\gccCyBLEStack_BLE_SOC_PERIPHERAL.a(gap.o)
 .debug_frame   0x0000ea58       0x44 C:\9047software\PSoC Creator\3.3\PSoC Creator\psoc\content\cycomponentlibrary\CyComponentLibrary.cylib\BLE_v2_0\Library\gccCyBLEStack_BLE_SOC_PERIPHERAL.a(gap.o)
 .debug_frame   0x0000ea9c       0x48 C:\9047software\PSoC Creator\3.3\PSoC Creator\psoc\content\cycomponentlibrary\CyComponentLibrary.cylib\BLE_v2_0\Library\gccCyBLEStack_BLE_SOC_PERIPHERAL.a(gap.o)
 .debug_frame   0x0000eae4       0x4c C:\9047software\PSoC Creator\3.3\PSoC Creator\psoc\content\cycomponentlibrary\CyComponentLibrary.cylib\BLE_v2_0\Library\gccCyBLEStack_BLE_SOC_PERIPHERAL.a(gap.o)
 .debug_frame   0x0000eb30       0x44 C:\9047software\PSoC Creator\3.3\PSoC Creator\psoc\content\cycomponentlibrary\CyComponentLibrary.cylib\BLE_v2_0\Library\gccCyBLEStack_BLE_SOC_PERIPHERAL.a(gap.o)
 .debug_frame   0x0000eb74       0x50 C:\9047software\PSoC Creator\3.3\PSoC Creator\psoc\content\cycomponentlibrary\CyComponentLibrary.cylib\BLE_v2_0\Library\gccCyBLEStack_BLE_SOC_PERIPHERAL.a(gap.o)
 .debug_frame   0x0000ebc4       0x44 C:\9047software\PSoC Creator\3.3\PSoC Creator\psoc\content\cycomponentlibrary\CyComponentLibrary.cylib\BLE_v2_0\Library\gccCyBLEStack_BLE_SOC_PERIPHERAL.a(gap.o)
 .debug_frame   0x0000ec08       0x48 C:\9047software\PSoC Creator\3.3\PSoC Creator\psoc\content\cycomponentlibrary\CyComponentLibrary.cylib\BLE_v2_0\Library\gccCyBLEStack_BLE_SOC_PERIPHERAL.a(gap.o)
 .debug_frame   0x0000ec50       0x54 C:\9047software\PSoC Creator\3.3\PSoC Creator\psoc\content\cycomponentlibrary\CyComponentLibrary.cylib\BLE_v2_0\Library\gccCyBLEStack_BLE_SOC_PERIPHERAL.a(gap.o)
 .debug_frame   0x0000eca4       0x4c C:\9047software\PSoC Creator\3.3\PSoC Creator\psoc\content\cycomponentlibrary\CyComponentLibrary.cylib\BLE_v2_0\Library\gccCyBLEStack_BLE_SOC_PERIPHERAL.a(gap.o)
 .debug_frame   0x0000ecf0       0x44 C:\9047software\PSoC Creator\3.3\PSoC Creator\psoc\content\cycomponentlibrary\CyComponentLibrary.cylib\BLE_v2_0\Library\gccCyBLEStack_BLE_SOC_PERIPHERAL.a(gap.o)
 .debug_frame   0x0000ed34       0x44 C:\9047software\PSoC Creator\3.3\PSoC Creator\psoc\content\cycomponentlibrary\CyComponentLibrary.cylib\BLE_v2_0\Library\gccCyBLEStack_BLE_SOC_PERIPHERAL.a(gap.o)
 .debug_frame   0x0000ed78       0x44 C:\9047software\PSoC Creator\3.3\PSoC Creator\psoc\content\cycomponentlibrary\CyComponentLibrary.cylib\BLE_v2_0\Library\gccCyBLEStack_BLE_SOC_PERIPHERAL.a(gap.o)
 .debug_frame   0x0000edbc       0x4c C:\9047software\PSoC Creator\3.3\PSoC Creator\psoc\content\cycomponentlibrary\CyComponentLibrary.cylib\BLE_v2_0\Library\gccCyBLEStack_BLE_SOC_PERIPHERAL.a(gatt.o)
 .debug_frame   0x0000ee08       0x3c C:\9047software\PSoC Creator\3.3\PSoC Creator\psoc\content\cycomponentlibrary\CyComponentLibrary.cylib\BLE_v2_0\Library\gccCyBLEStack_BLE_SOC_PERIPHERAL.a(gatt.o)
 .debug_frame   0x0000ee44       0x4c C:\9047software\PSoC Creator\3.3\PSoC Creator\psoc\content\cycomponentlibrary\CyComponentLibrary.cylib\BLE_v2_0\Library\gccCyBLEStack_BLE_SOC_PERIPHERAL.a(gatt.o)
 .debug_frame   0x0000ee90       0x44 C:\9047software\PSoC Creator\3.3\PSoC Creator\psoc\content\cycomponentlibrary\CyComponentLibrary.cylib\BLE_v2_0\Library\gccCyBLEStack_BLE_SOC_PERIPHERAL.a(gatt.o)
 .debug_frame   0x0000eed4       0x54 C:\9047software\PSoC Creator\3.3\PSoC Creator\psoc\content\cycomponentlibrary\CyComponentLibrary.cylib\BLE_v2_0\Library\gccCyBLEStack_BLE_SOC_PERIPHERAL.a(gatt.o)
 .debug_frame   0x0000ef28       0x44 C:\9047software\PSoC Creator\3.3\PSoC Creator\psoc\content\cycomponentlibrary\CyComponentLibrary.cylib\BLE_v2_0\Library\gccCyBLEStack_BLE_SOC_PERIPHERAL.a(gatt.o)
 .debug_frame   0x0000ef6c       0x44 C:\9047software\PSoC Creator\3.3\PSoC Creator\psoc\content\cycomponentlibrary\CyComponentLibrary.cylib\BLE_v2_0\Library\gccCyBLEStack_BLE_SOC_PERIPHERAL.a(gatt.o)
 .debug_frame   0x0000efb0       0x48 C:\9047software\PSoC Creator\3.3\PSoC Creator\psoc\content\cycomponentlibrary\CyComponentLibrary.cylib\BLE_v2_0\Library\gccCyBLEStack_BLE_SOC_PERIPHERAL.a(gattClient.o)
 .debug_frame   0x0000eff8       0x4c C:\9047software\PSoC Creator\3.3\PSoC Creator\psoc\content\cycomponentlibrary\CyComponentLibrary.cylib\BLE_v2_0\Library\gccCyBLEStack_BLE_SOC_PERIPHERAL.a(gattClient.o)
 .debug_frame   0x0000f044       0x48 C:\9047software\PSoC Creator\3.3\PSoC Creator\psoc\content\cycomponentlibrary\CyComponentLibrary.cylib\BLE_v2_0\Library\gccCyBLEStack_BLE_SOC_PERIPHERAL.a(gattClient.o)
 .debug_frame   0x0000f08c       0x54 C:\9047software\PSoC Creator\3.3\PSoC Creator\psoc\content\cycomponentlibrary\CyComponentLibrary.cylib\BLE_v2_0\Library\gccCyBLEStack_BLE_SOC_PERIPHERAL.a(gattClient.o)
 .debug_frame   0x0000f0e0       0x54 C:\9047software\PSoC Creator\3.3\PSoC Creator\psoc\content\cycomponentlibrary\CyComponentLibrary.cylib\BLE_v2_0\Library\gccCyBLEStack_BLE_SOC_PERIPHERAL.a(gattClient.o)
 .debug_frame   0x0000f134       0x54 C:\9047software\PSoC Creator\3.3\PSoC Creator\psoc\content\cycomponentlibrary\CyComponentLibrary.cylib\BLE_v2_0\Library\gccCyBLEStack_BLE_SOC_PERIPHERAL.a(gattClient.o)
 .debug_frame   0x0000f188       0x4c C:\9047software\PSoC Creator\3.3\PSoC Creator\psoc\content\cycomponentlibrary\CyComponentLibrary.cylib\BLE_v2_0\Library\gccCyBLEStack_BLE_SOC_PERIPHERAL.a(gattClient.o)
 .debug_frame   0x0000f1d4       0x48 C:\9047software\PSoC Creator\3.3\PSoC Creator\psoc\content\cycomponentlibrary\CyComponentLibrary.cylib\BLE_v2_0\Library\gccCyBLEStack_BLE_SOC_PERIPHERAL.a(gattClient.o)
 .debug_frame   0x0000f21c       0x50 C:\9047software\PSoC Creator\3.3\PSoC Creator\psoc\content\cycomponentlibrary\CyComponentLibrary.cylib\BLE_v2_0\Library\gccCyBLEStack_BLE_SOC_PERIPHERAL.a(gattClient.o)
 .debug_frame   0x0000f26c       0x44 C:\9047software\PSoC Creator\3.3\PSoC Creator\psoc\content\cycomponentlibrary\CyComponentLibrary.cylib\BLE_v2_0\Library\gccCyBLEStack_BLE_SOC_PERIPHERAL.a(gattClient.o)
 .debug_frame   0x0000f2b0       0x44 C:\9047software\PSoC Creator\3.3\PSoC Creator\psoc\content\cycomponentlibrary\CyComponentLibrary.cylib\BLE_v2_0\Library\gccCyBLEStack_BLE_SOC_PERIPHERAL.a(gattClient.o)
 .debug_frame   0x0000f2f4       0x3c C:\9047software\PSoC Creator\3.3\PSoC Creator\psoc\content\cycomponentlibrary\CyComponentLibrary.cylib\BLE_v2_0\Library\gccCyBLEStack_BLE_SOC_PERIPHERAL.a(gattClient.o)
 .debug_frame   0x0000f330       0x44 C:\9047software\PSoC Creator\3.3\PSoC Creator\psoc\content\cycomponentlibrary\CyComponentLibrary.cylib\BLE_v2_0\Library\gccCyBLEStack_BLE_SOC_PERIPHERAL.a(gattClient.o)
 .debug_frame   0x0000f374       0x44 C:\9047software\PSoC Creator\3.3\PSoC Creator\psoc\content\cycomponentlibrary\CyComponentLibrary.cylib\BLE_v2_0\Library\gccCyBLEStack_BLE_SOC_PERIPHERAL.a(gattClient.o)
 .debug_frame   0x0000f3b8       0x44 C:\9047software\PSoC Creator\3.3\PSoC Creator\psoc\content\cycomponentlibrary\CyComponentLibrary.cylib\BLE_v2_0\Library\gccCyBLEStack_BLE_SOC_PERIPHERAL.a(gattClient.o)
 .debug_frame   0x0000f3fc       0x44 C:\9047software\PSoC Creator\3.3\PSoC Creator\psoc\content\cycomponentlibrary\CyComponentLibrary.cylib\BLE_v2_0\Library\gccCyBLEStack_BLE_SOC_PERIPHERAL.a(gattClient.o)
 .debug_frame   0x0000f440       0x44 C:\9047software\PSoC Creator\3.3\PSoC Creator\psoc\content\cycomponentlibrary\CyComponentLibrary.cylib\BLE_v2_0\Library\gccCyBLEStack_BLE_SOC_PERIPHERAL.a(gattClient.o)
 .debug_frame   0x0000f484       0x48 C:\9047software\PSoC Creator\3.3\PSoC Creator\psoc\content\cycomponentlibrary\CyComponentLibrary.cylib\BLE_v2_0\Library\gccCyBLEStack_BLE_SOC_PERIPHERAL.a(gattClient.o)
 .debug_frame   0x0000f4cc       0x44 C:\9047software\PSoC Creator\3.3\PSoC Creator\psoc\content\cycomponentlibrary\CyComponentLibrary.cylib\BLE_v2_0\Library\gccCyBLEStack_BLE_SOC_PERIPHERAL.a(gattClient.o)
 .debug_frame   0x0000f510       0x44 C:\9047software\PSoC Creator\3.3\PSoC Creator\psoc\content\cycomponentlibrary\CyComponentLibrary.cylib\BLE_v2_0\Library\gccCyBLEStack_BLE_SOC_PERIPHERAL.a(gattClient.o)
 .debug_frame   0x0000f554       0x48 C:\9047software\PSoC Creator\3.3\PSoC Creator\psoc\content\cycomponentlibrary\CyComponentLibrary.cylib\BLE_v2_0\Library\gccCyBLEStack_BLE_SOC_PERIPHERAL.a(gattClient.o)
 .debug_frame   0x0000f59c       0x44 C:\9047software\PSoC Creator\3.3\PSoC Creator\psoc\content\cycomponentlibrary\CyComponentLibrary.cylib\BLE_v2_0\Library\gccCyBLEStack_BLE_SOC_PERIPHERAL.a(gattClient.o)
 .debug_frame   0x0000f5e0       0x44 C:\9047software\PSoC Creator\3.3\PSoC Creator\psoc\content\cycomponentlibrary\CyComponentLibrary.cylib\BLE_v2_0\Library\gccCyBLEStack_BLE_SOC_PERIPHERAL.a(gattClient.o)
 .debug_frame   0x0000f624       0x44 C:\9047software\PSoC Creator\3.3\PSoC Creator\psoc\content\cycomponentlibrary\CyComponentLibrary.cylib\BLE_v2_0\Library\gccCyBLEStack_BLE_SOC_PERIPHERAL.a(gattClient.o)
 .debug_frame   0x0000f668       0x4c C:\9047software\PSoC Creator\3.3\PSoC Creator\psoc\content\cycomponentlibrary\CyComponentLibrary.cylib\BLE_v2_0\Library\gccCyBLEStack_BLE_SOC_PERIPHERAL.a(gattClient.o)
 .debug_frame   0x0000f6b4       0x44 C:\9047software\PSoC Creator\3.3\PSoC Creator\psoc\content\cycomponentlibrary\CyComponentLibrary.cylib\BLE_v2_0\Library\gccCyBLEStack_BLE_SOC_PERIPHERAL.a(gattClient.o)
 .debug_frame   0x0000f6f8       0x44 C:\9047software\PSoC Creator\3.3\PSoC Creator\psoc\content\cycomponentlibrary\CyComponentLibrary.cylib\BLE_v2_0\Library\gccCyBLEStack_BLE_SOC_PERIPHERAL.a(gattClient.o)
 .debug_frame   0x0000f73c       0x48 C:\9047software\PSoC Creator\3.3\PSoC Creator\psoc\content\cycomponentlibrary\CyComponentLibrary.cylib\BLE_v2_0\Library\gccCyBLEStack_BLE_SOC_PERIPHERAL.a(gattClient.o)
 .debug_frame   0x0000f784       0x44 C:\9047software\PSoC Creator\3.3\PSoC Creator\psoc\content\cycomponentlibrary\CyComponentLibrary.cylib\BLE_v2_0\Library\gccCyBLEStack_BLE_SOC_PERIPHERAL.a(gattClient.o)
 .debug_frame   0x0000f7c8       0x44 C:\9047software\PSoC Creator\3.3\PSoC Creator\psoc\content\cycomponentlibrary\CyComponentLibrary.cylib\BLE_v2_0\Library\gccCyBLEStack_BLE_SOC_PERIPHERAL.a(gattClient.o)
 .debug_frame   0x0000f80c       0x44 C:\9047software\PSoC Creator\3.3\PSoC Creator\psoc\content\cycomponentlibrary\CyComponentLibrary.cylib\BLE_v2_0\Library\gccCyBLEStack_BLE_SOC_PERIPHERAL.a(gattClient.o)
 .debug_frame   0x0000f850       0x44 C:\9047software\PSoC Creator\3.3\PSoC Creator\psoc\content\cycomponentlibrary\CyComponentLibrary.cylib\BLE_v2_0\Library\gccCyBLEStack_BLE_SOC_PERIPHERAL.a(gattClient.o)
 .debug_frame   0x0000f894       0x44 C:\9047software\PSoC Creator\3.3\PSoC Creator\psoc\content\cycomponentlibrary\CyComponentLibrary.cylib\BLE_v2_0\Library\gccCyBLEStack_BLE_SOC_PERIPHERAL.a(gattClient.o)
 .debug_frame   0x0000f8d8       0x44 C:\9047software\PSoC Creator\3.3\PSoC Creator\psoc\content\cycomponentlibrary\CyComponentLibrary.cylib\BLE_v2_0\Library\gccCyBLEStack_BLE_SOC_PERIPHERAL.a(gattClient.o)
 .debug_frame   0x0000f91c       0x44 C:\9047software\PSoC Creator\3.3\PSoC Creator\psoc\content\cycomponentlibrary\CyComponentLibrary.cylib\BLE_v2_0\Library\gccCyBLEStack_BLE_SOC_PERIPHERAL.a(gattClient.o)
 .debug_frame   0x0000f960       0x44 C:\9047software\PSoC Creator\3.3\PSoC Creator\psoc\content\cycomponentlibrary\CyComponentLibrary.cylib\BLE_v2_0\Library\gccCyBLEStack_BLE_SOC_PERIPHERAL.a(gattClient.o)
 .debug_frame   0x0000f9a4       0x4c C:\9047software\PSoC Creator\3.3\PSoC Creator\psoc\content\cycomponentlibrary\CyComponentLibrary.cylib\BLE_v2_0\Library\gccCyBLEStack_BLE_SOC_PERIPHERAL.a(gattClient.o)
 .debug_frame   0x0000f9f0       0x48 C:\9047software\PSoC Creator\3.3\PSoC Creator\psoc\content\cycomponentlibrary\CyComponentLibrary.cylib\BLE_v2_0\Library\gccCyBLEStack_BLE_SOC_PERIPHERAL.a(gattServer.o)
 .debug_frame   0x0000fa38       0x4c C:\9047software\PSoC Creator\3.3\PSoC Creator\psoc\content\cycomponentlibrary\CyComponentLibrary.cylib\BLE_v2_0\Library\gccCyBLEStack_BLE_SOC_PERIPHERAL.a(gattServer.o)
 .debug_frame   0x0000fa84       0x3c C:\9047software\PSoC Creator\3.3\PSoC Creator\psoc\content\cycomponentlibrary\CyComponentLibrary.cylib\BLE_v2_0\Library\gccCyBLEStack_BLE_SOC_PERIPHERAL.a(gattServer.o)
 .debug_frame   0x0000fac0       0x50 C:\9047software\PSoC Creator\3.3\PSoC Creator\psoc\content\cycomponentlibrary\CyComponentLibrary.cylib\BLE_v2_0\Library\gccCyBLEStack_BLE_SOC_PERIPHERAL.a(gattServer.o)
 .debug_frame   0x0000fb10       0x50 C:\9047software\PSoC Creator\3.3\PSoC Creator\psoc\content\cycomponentlibrary\CyComponentLibrary.cylib\BLE_v2_0\Library\gccCyBLEStack_BLE_SOC_PERIPHERAL.a(gattServer.o)
 .debug_frame   0x0000fb60       0x50 C:\9047software\PSoC Creator\3.3\PSoC Creator\psoc\content\cycomponentlibrary\CyComponentLibrary.cylib\BLE_v2_0\Library\gccCyBLEStack_BLE_SOC_PERIPHERAL.a(gattServer.o)
 .debug_frame   0x0000fbb0       0x50 C:\9047software\PSoC Creator\3.3\PSoC Creator\psoc\content\cycomponentlibrary\CyComponentLibrary.cylib\BLE_v2_0\Library\gccCyBLEStack_BLE_SOC_PERIPHERAL.a(gattServer.o)
 .debug_frame   0x0000fc00       0x54 C:\9047software\PSoC Creator\3.3\PSoC Creator\psoc\content\cycomponentlibrary\CyComponentLibrary.cylib\BLE_v2_0\Library\gccCyBLEStack_BLE_SOC_PERIPHERAL.a(gattServer.o)
 .debug_frame   0x0000fc54       0x54 C:\9047software\PSoC Creator\3.3\PSoC Creator\psoc\content\cycomponentlibrary\CyComponentLibrary.cylib\BLE_v2_0\Library\gccCyBLEStack_BLE_SOC_PERIPHERAL.a(gattServer.o)
 .debug_frame   0x0000fca8       0x50 C:\9047software\PSoC Creator\3.3\PSoC Creator\psoc\content\cycomponentlibrary\CyComponentLibrary.cylib\BLE_v2_0\Library\gccCyBLEStack_BLE_SOC_PERIPHERAL.a(gattServer.o)
 .debug_frame   0x0000fcf8       0x54 C:\9047software\PSoC Creator\3.3\PSoC Creator\psoc\content\cycomponentlibrary\CyComponentLibrary.cylib\BLE_v2_0\Library\gccCyBLEStack_BLE_SOC_PERIPHERAL.a(gattServer.o)
 .debug_frame   0x0000fd4c       0x44 C:\9047software\PSoC Creator\3.3\PSoC Creator\psoc\content\cycomponentlibrary\CyComponentLibrary.cylib\BLE_v2_0\Library\gccCyBLEStack_BLE_SOC_PERIPHERAL.a(gattServer.o)
 .debug_frame   0x0000fd90       0x44 C:\9047software\PSoC Creator\3.3\PSoC Creator\psoc\content\cycomponentlibrary\CyComponentLibrary.cylib\BLE_v2_0\Library\gccCyBLEStack_BLE_SOC_PERIPHERAL.a(gattServer.o)
 .debug_frame   0x0000fdd4       0x44 C:\9047software\PSoC Creator\3.3\PSoC Creator\psoc\content\cycomponentlibrary\CyComponentLibrary.cylib\BLE_v2_0\Library\gccCyBLEStack_BLE_SOC_PERIPHERAL.a(gattServer.o)
 .debug_frame   0x0000fe18       0x44 C:\9047software\PSoC Creator\3.3\PSoC Creator\psoc\content\cycomponentlibrary\CyComponentLibrary.cylib\BLE_v2_0\Library\gccCyBLEStack_BLE_SOC_PERIPHERAL.a(gattServer.o)
 .debug_frame   0x0000fe5c       0x44 C:\9047software\PSoC Creator\3.3\PSoC Creator\psoc\content\cycomponentlibrary\CyComponentLibrary.cylib\BLE_v2_0\Library\gccCyBLEStack_BLE_SOC_PERIPHERAL.a(gattServer.o)
 .debug_frame   0x0000fea0       0x44 C:\9047software\PSoC Creator\3.3\PSoC Creator\psoc\content\cycomponentlibrary\CyComponentLibrary.cylib\BLE_v2_0\Library\gccCyBLEStack_BLE_SOC_PERIPHERAL.a(gattServer.o)
 .debug_frame   0x0000fee4       0x44 C:\9047software\PSoC Creator\3.3\PSoC Creator\psoc\content\cycomponentlibrary\CyComponentLibrary.cylib\BLE_v2_0\Library\gccCyBLEStack_BLE_SOC_PERIPHERAL.a(gattServer.o)
 .debug_frame   0x0000ff28       0x44 C:\9047software\PSoC Creator\3.3\PSoC Creator\psoc\content\cycomponentlibrary\CyComponentLibrary.cylib\BLE_v2_0\Library\gccCyBLEStack_BLE_SOC_PERIPHERAL.a(gattServer.o)
 .debug_frame   0x0000ff6c       0x44 C:\9047software\PSoC Creator\3.3\PSoC Creator\psoc\content\cycomponentlibrary\CyComponentLibrary.cylib\BLE_v2_0\Library\gccCyBLEStack_BLE_SOC_PERIPHERAL.a(gattServer.o)
 .debug_frame   0x0000ffb0       0x48 C:\9047software\PSoC Creator\3.3\PSoC Creator\psoc\content\cycomponentlibrary\CyComponentLibrary.cylib\BLE_v2_0\Library\gccCyBLEStack_BLE_SOC_PERIPHERAL.a(gattServer.o)
 .debug_frame   0x0000fff8       0x44 C:\9047software\PSoC Creator\3.3\PSoC Creator\psoc\content\cycomponentlibrary\CyComponentLibrary.cylib\BLE_v2_0\Library\gccCyBLEStack_BLE_SOC_PERIPHERAL.a(gattServer.o)
 .debug_frame   0x0001003c       0x44 C:\9047software\PSoC Creator\3.3\PSoC Creator\psoc\content\cycomponentlibrary\CyComponentLibrary.cylib\BLE_v2_0\Library\gccCyBLEStack_BLE_SOC_PERIPHERAL.a(gattDbHandler.o)
 .debug_frame   0x00010080       0x50 C:\9047software\PSoC Creator\3.3\PSoC Creator\psoc\content\cycomponentlibrary\CyComponentLibrary.cylib\BLE_v2_0\Library\gccCyBLEStack_BLE_SOC_PERIPHERAL.a(gattDbHandler.o)
 .debug_frame   0x000100d0       0x4c C:\9047software\PSoC Creator\3.3\PSoC Creator\psoc\content\cycomponentlibrary\CyComponentLibrary.cylib\BLE_v2_0\Library\gccCyBLEStack_BLE_SOC_PERIPHERAL.a(gattDbHandler.o)
 .debug_frame   0x0001011c       0x50 C:\9047software\PSoC Creator\3.3\PSoC Creator\psoc\content\cycomponentlibrary\CyComponentLibrary.cylib\BLE_v2_0\Library\gccCyBLEStack_BLE_SOC_PERIPHERAL.a(gattDbHandler.o)
 .debug_frame   0x0001016c       0x48 C:\9047software\PSoC Creator\3.3\PSoC Creator\psoc\content\cycomponentlibrary\CyComponentLibrary.cylib\BLE_v2_0\Library\gccCyBLEStack_BLE_SOC_PERIPHERAL.a(gattDbHandler.o)
 .debug_frame   0x000101b4       0x4c C:\9047software\PSoC Creator\3.3\PSoC Creator\psoc\content\cycomponentlibrary\CyComponentLibrary.cylib\BLE_v2_0\Library\gccCyBLEStack_BLE_SOC_PERIPHERAL.a(gattDbHandler.o)
 .debug_frame   0x00010200       0x44 C:\9047software\PSoC Creator\3.3\PSoC Creator\psoc\content\cycomponentlibrary\CyComponentLibrary.cylib\BLE_v2_0\Library\gccCyBLEStack_BLE_SOC_PERIPHERAL.a(gattDbHandler.o)
 .debug_frame   0x00010244       0x44 C:\9047software\PSoC Creator\3.3\PSoC Creator\psoc\content\cycomponentlibrary\CyComponentLibrary.cylib\BLE_v2_0\Library\gccCyBLEStack_BLE_SOC_PERIPHERAL.a(gattDbHandler.o)
 .debug_frame   0x00010288       0x3c C:\9047software\PSoC Creator\3.3\PSoC Creator\psoc\content\cycomponentlibrary\CyComponentLibrary.cylib\BLE_v2_0\Library\gccCyBLEStack_BLE_SOC_PERIPHERAL.a(hci_api.o)
 .debug_frame   0x000102c4       0x44 C:\9047software\PSoC Creator\3.3\PSoC Creator\psoc\content\cycomponentlibrary\CyComponentLibrary.cylib\BLE_v2_0\Library\gccCyBLEStack_BLE_SOC_PERIPHERAL.a(hci_api.o)
 .debug_frame   0x00010308       0x48 C:\9047software\PSoC Creator\3.3\PSoC Creator\psoc\content\cycomponentlibrary\CyComponentLibrary.cylib\BLE_v2_0\Library\gccCyBLEStack_BLE_SOC_PERIPHERAL.a(hci_api.o)
 .debug_frame   0x00010350       0x44 C:\9047software\PSoC Creator\3.3\PSoC Creator\psoc\content\cycomponentlibrary\CyComponentLibrary.cylib\BLE_v2_0\Library\gccCyBLEStack_BLE_SOC_PERIPHERAL.a(hci_api.o)
 .debug_frame   0x00010394       0x44 C:\9047software\PSoC Creator\3.3\PSoC Creator\psoc\content\cycomponentlibrary\CyComponentLibrary.cylib\BLE_v2_0\Library\gccCyBLEStack_BLE_SOC_PERIPHERAL.a(hci_api.o)
 .debug_frame   0x000103d8       0x44 C:\9047software\PSoC Creator\3.3\PSoC Creator\psoc\content\cycomponentlibrary\CyComponentLibrary.cylib\BLE_v2_0\Library\gccCyBLEStack_BLE_SOC_PERIPHERAL.a(hci_api.o)
 .debug_frame   0x0001041c       0x44 C:\9047software\PSoC Creator\3.3\PSoC Creator\psoc\content\cycomponentlibrary\CyComponentLibrary.cylib\BLE_v2_0\Library\gccCyBLEStack_BLE_SOC_PERIPHERAL.a(hci_api.o)
 .debug_frame   0x00010460       0x50 C:\9047software\PSoC Creator\3.3\PSoC Creator\psoc\content\cycomponentlibrary\CyComponentLibrary.cylib\BLE_v2_0\Library\gccCyBLEStack_BLE_SOC_PERIPHERAL.a(hci_api.o)
 .debug_frame   0x000104b0       0x4c C:\9047software\PSoC Creator\3.3\PSoC Creator\psoc\content\cycomponentlibrary\CyComponentLibrary.cylib\BLE_v2_0\Library\gccCyBLEStack_BLE_SOC_PERIPHERAL.a(hci_api.o)
 .debug_frame   0x000104fc       0x44 C:\9047software\PSoC Creator\3.3\PSoC Creator\psoc\content\cycomponentlibrary\CyComponentLibrary.cylib\BLE_v2_0\Library\gccCyBLEStack_BLE_SOC_PERIPHERAL.a(hci_link_control_api.o)
 .debug_frame   0x00010540       0x48 C:\9047software\PSoC Creator\3.3\PSoC Creator\psoc\content\cycomponentlibrary\CyComponentLibrary.cylib\BLE_v2_0\Library\gccCyBLEStack_BLE_SOC_PERIPHERAL.a(hci_link_control_api.o)
 .debug_frame   0x00010588       0x4c C:\9047software\PSoC Creator\3.3\PSoC Creator\psoc\content\cycomponentlibrary\CyComponentLibrary.cylib\BLE_v2_0\Library\gccCyBLEStack_BLE_SOC_PERIPHERAL.a(hci_commands.o)
 .debug_frame   0x000105d4       0x44 C:\9047software\PSoC Creator\3.3\PSoC Creator\psoc\content\cycomponentlibrary\CyComponentLibrary.cylib\BLE_v2_0\Library\gccCyBLEStack_BLE_SOC_PERIPHERAL.a(hci_commands.o)
 .debug_frame   0x00010618       0x48 C:\9047software\PSoC Creator\3.3\PSoC Creator\psoc\content\cycomponentlibrary\CyComponentLibrary.cylib\BLE_v2_0\Library\gccCyBLEStack_BLE_SOC_PERIPHERAL.a(hci_events.o)
 .debug_frame   0x00010660       0x44 C:\9047software\PSoC Creator\3.3\PSoC Creator\psoc\content\cycomponentlibrary\CyComponentLibrary.cylib\BLE_v2_0\Library\gccCyBLEStack_BLE_SOC_PERIPHERAL.a(hci_events.o)
 .debug_frame   0x000106a4       0x44 C:\9047software\PSoC Creator\3.3\PSoC Creator\psoc\content\cycomponentlibrary\CyComponentLibrary.cylib\BLE_v2_0\Library\gccCyBLEStack_BLE_SOC_PERIPHERAL.a(hci_events.o)
 .debug_frame   0x000106e8       0x48 C:\9047software\PSoC Creator\3.3\PSoC Creator\psoc\content\cycomponentlibrary\CyComponentLibrary.cylib\BLE_v2_0\Library\gccCyBLEStack_BLE_SOC_PERIPHERAL.a(hci_events.o)
 .debug_frame   0x00010730       0x48 C:\9047software\PSoC Creator\3.3\PSoC Creator\psoc\content\cycomponentlibrary\CyComponentLibrary.cylib\BLE_v2_0\Library\gccCyBLEStack_BLE_SOC_PERIPHERAL.a(hci_events.o)
 .debug_frame   0x00010778       0x44 C:\9047software\PSoC Creator\3.3\PSoC Creator\psoc\content\cycomponentlibrary\CyComponentLibrary.cylib\BLE_v2_0\Library\gccCyBLEStack_BLE_SOC_PERIPHERAL.a(hci_events.o)
 .debug_frame   0x000107bc       0x48 C:\9047software\PSoC Creator\3.3\PSoC Creator\psoc\content\cycomponentlibrary\CyComponentLibrary.cylib\BLE_v2_0\Library\gccCyBLEStack_BLE_SOC_PERIPHERAL.a(hci_events.o)
 .debug_frame   0x00010804       0x4c C:\9047software\PSoC Creator\3.3\PSoC Creator\psoc\content\cycomponentlibrary\CyComponentLibrary.cylib\BLE_v2_0\Library\gccCyBLEStack_BLE_SOC_PERIPHERAL.a(hci_events.o)
 .debug_frame   0x00010850       0x50 C:\9047software\PSoC Creator\3.3\PSoC Creator\psoc\content\cycomponentlibrary\CyComponentLibrary.cylib\BLE_v2_0\Library\gccCyBLEStack_BLE_SOC_PERIPHERAL.a(hci_events.o)
 .debug_frame   0x000108a0       0x48 C:\9047software\PSoC Creator\3.3\PSoC Creator\psoc\content\cycomponentlibrary\CyComponentLibrary.cylib\BLE_v2_0\Library\gccCyBLEStack_BLE_SOC_PERIPHERAL.a(hci_events.o)
 .debug_frame   0x000108e8       0x3c C:\9047software\PSoC Creator\3.3\PSoC Creator\psoc\content\cycomponentlibrary\CyComponentLibrary.cylib\BLE_v2_0\Library\gccCyBLEStack_BLE_SOC_PERIPHERAL.a(hci_init.o)
 .debug_frame   0x00010924       0x48 C:\9047software\PSoC Creator\3.3\PSoC Creator\psoc\content\cycomponentlibrary\CyComponentLibrary.cylib\BLE_v2_0\Library\gccCyBLEStack_BLE_SOC_PERIPHERAL.a(hci_init.o)
 .debug_frame   0x0001096c       0x50 C:\9047software\PSoC Creator\3.3\PSoC Creator\psoc\content\cycomponentlibrary\CyComponentLibrary.cylib\BLE_v2_0\Library\gccCyBLEStack_BLE_SOC_PERIPHERAL.a(hci_init.o)
 .debug_frame   0x000109bc       0x44 C:\9047software\PSoC Creator\3.3\PSoC Creator\psoc\content\cycomponentlibrary\CyComponentLibrary.cylib\BLE_v2_0\Library\gccCyBLEStack_BLE_SOC_PERIPHERAL.a(hci_init.o)
 .debug_frame   0x00010a00       0x4c C:\9047software\PSoC Creator\3.3\PSoC Creator\psoc\content\cycomponentlibrary\CyComponentLibrary.cylib\BLE_v2_0\Library\gccCyBLEStack_BLE_SOC_PERIPHERAL.a(hci_init.o)
 .debug_frame   0x00010a4c       0x54 C:\9047software\PSoC Creator\3.3\PSoC Creator\psoc\content\cycomponentlibrary\CyComponentLibrary.cylib\BLE_v2_0\Library\gccCyBLEStack_BLE_SOC_PERIPHERAL.a(hci_le_api.o)
 .debug_frame   0x00010aa0       0x50 C:\9047software\PSoC Creator\3.3\PSoC Creator\psoc\content\cycomponentlibrary\CyComponentLibrary.cylib\BLE_v2_0\Library\gccCyBLEStack_BLE_SOC_PERIPHERAL.a(hci_le_api.o)
 .debug_frame   0x00010af0       0x4c C:\9047software\PSoC Creator\3.3\PSoC Creator\psoc\content\cycomponentlibrary\CyComponentLibrary.cylib\BLE_v2_0\Library\gccCyBLEStack_BLE_SOC_PERIPHERAL.a(hci_le_api.o)
 .debug_frame   0x00010b3c       0x4c C:\9047software\PSoC Creator\3.3\PSoC Creator\psoc\content\cycomponentlibrary\CyComponentLibrary.cylib\BLE_v2_0\Library\gccCyBLEStack_BLE_SOC_PERIPHERAL.a(hci_le_api.o)
 .debug_frame   0x00010b88       0x48 C:\9047software\PSoC Creator\3.3\PSoC Creator\psoc\content\cycomponentlibrary\CyComponentLibrary.cylib\BLE_v2_0\Library\gccCyBLEStack_BLE_SOC_PERIPHERAL.a(hci_utils.o)
 .debug_frame   0x00010bd0       0x44 C:\9047software\PSoC Creator\3.3\PSoC Creator\psoc\content\cycomponentlibrary\CyComponentLibrary.cylib\BLE_v2_0\Library\gccCyBLEStack_BLE_SOC_PERIPHERAL.a(hci_utils.o)
 .debug_frame   0x00010c14       0x44 C:\9047software\PSoC Creator\3.3\PSoC Creator\psoc\content\cycomponentlibrary\CyComponentLibrary.cylib\BLE_v2_0\Library\gccCyBLEStack_BLE_SOC_PERIPHERAL.a(hci_utils.o)
 .debug_frame   0x00010c58       0x3c C:\9047software\PSoC Creator\3.3\PSoC Creator\psoc\content\cycomponentlibrary\CyComponentLibrary.cylib\BLE_v2_0\Library\gccCyBLEStack_BLE_SOC_PERIPHERAL.a(smp_api.o)
 .debug_frame   0x00010c94       0x4c C:\9047software\PSoC Creator\3.3\PSoC Creator\psoc\content\cycomponentlibrary\CyComponentLibrary.cylib\BLE_v2_0\Library\gccCyBLEStack_BLE_SOC_PERIPHERAL.a(smp_api.o)
 .debug_frame   0x00010ce0       0x54 C:\9047software\PSoC Creator\3.3\PSoC Creator\psoc\content\cycomponentlibrary\CyComponentLibrary.cylib\BLE_v2_0\Library\gccCyBLEStack_BLE_SOC_PERIPHERAL.a(smp_api.o)
 .debug_frame   0x00010d34       0x44 C:\9047software\PSoC Creator\3.3\PSoC Creator\psoc\content\cycomponentlibrary\CyComponentLibrary.cylib\BLE_v2_0\Library\gccCyBLEStack_BLE_SOC_PERIPHERAL.a(smp_api.o)
 .debug_frame   0x00010d78       0x50 C:\9047software\PSoC Creator\3.3\PSoC Creator\psoc\content\cycomponentlibrary\CyComponentLibrary.cylib\BLE_v2_0\Library\gccCyBLEStack_BLE_SOC_PERIPHERAL.a(smp_api.o)
 .debug_frame   0x00010dc8       0x48 C:\9047software\PSoC Creator\3.3\PSoC Creator\psoc\content\cycomponentlibrary\CyComponentLibrary.cylib\BLE_v2_0\Library\gccCyBLEStack_BLE_SOC_PERIPHERAL.a(smp_api.o)
 .debug_frame   0x00010e10       0x48 C:\9047software\PSoC Creator\3.3\PSoC Creator\psoc\content\cycomponentlibrary\CyComponentLibrary.cylib\BLE_v2_0\Library\gccCyBLEStack_BLE_SOC_PERIPHERAL.a(smp_api.o)
 .debug_frame   0x00010e58       0x48 C:\9047software\PSoC Creator\3.3\PSoC Creator\psoc\content\cycomponentlibrary\CyComponentLibrary.cylib\BLE_v2_0\Library\gccCyBLEStack_BLE_SOC_PERIPHERAL.a(smp_api.o)
 .debug_frame   0x00010ea0       0x48 C:\9047software\PSoC Creator\3.3\PSoC Creator\psoc\content\cycomponentlibrary\CyComponentLibrary.cylib\BLE_v2_0\Library\gccCyBLEStack_BLE_SOC_PERIPHERAL.a(smp_api.o)
 .debug_frame   0x00010ee8       0x4c C:\9047software\PSoC Creator\3.3\PSoC Creator\psoc\content\cycomponentlibrary\CyComponentLibrary.cylib\BLE_v2_0\Library\gccCyBLEStack_BLE_SOC_PERIPHERAL.a(smp_api.o)
 .debug_frame   0x00010f34       0x4c C:\9047software\PSoC Creator\3.3\PSoC Creator\psoc\content\cycomponentlibrary\CyComponentLibrary.cylib\BLE_v2_0\Library\gccCyBLEStack_BLE_SOC_PERIPHERAL.a(smp_core.o)
 .debug_frame   0x00010f80       0x3c C:\9047software\PSoC Creator\3.3\PSoC Creator\psoc\content\cycomponentlibrary\CyComponentLibrary.cylib\BLE_v2_0\Library\gccCyBLEStack_BLE_SOC_PERIPHERAL.a(smp_core.o)
 .debug_frame   0x00010fbc       0x44 C:\9047software\PSoC Creator\3.3\PSoC Creator\psoc\content\cycomponentlibrary\CyComponentLibrary.cylib\BLE_v2_0\Library\gccCyBLEStack_BLE_SOC_PERIPHERAL.a(smp_core.o)
 .debug_frame   0x00011000       0x50 C:\9047software\PSoC Creator\3.3\PSoC Creator\psoc\content\cycomponentlibrary\CyComponentLibrary.cylib\BLE_v2_0\Library\gccCyBLEStack_BLE_SOC_PERIPHERAL.a(smp_core.o)
 .debug_frame   0x00011050       0x44 C:\9047software\PSoC Creator\3.3\PSoC Creator\psoc\content\cycomponentlibrary\CyComponentLibrary.cylib\BLE_v2_0\Library\gccCyBLEStack_BLE_SOC_PERIPHERAL.a(smp_core.o)
 .debug_frame   0x00011094       0x44 C:\9047software\PSoC Creator\3.3\PSoC Creator\psoc\content\cycomponentlibrary\CyComponentLibrary.cylib\BLE_v2_0\Library\gccCyBLEStack_BLE_SOC_PERIPHERAL.a(smp_core.o)
 .debug_frame   0x000110d8       0x54 C:\9047software\PSoC Creator\3.3\PSoC Creator\psoc\content\cycomponentlibrary\CyComponentLibrary.cylib\BLE_v2_0\Library\gccCyBLEStack_BLE_SOC_PERIPHERAL.a(smp_core.o)
 .debug_frame   0x0001112c       0x3c C:\9047software\PSoC Creator\3.3\PSoC Creator\psoc\content\cycomponentlibrary\CyComponentLibrary.cylib\BLE_v2_0\Library\gccCyBLEStack_BLE_SOC_PERIPHERAL.a(smp_core.o)
 .debug_frame   0x00011168       0x48 C:\9047software\PSoC Creator\3.3\PSoC Creator\psoc\content\cycomponentlibrary\CyComponentLibrary.cylib\BLE_v2_0\Library\gccCyBLEStack_BLE_SOC_PERIPHERAL.a(smp_core.o)
 .debug_frame   0x000111b0       0x3c C:\9047software\PSoC Creator\3.3\PSoC Creator\psoc\content\cycomponentlibrary\CyComponentLibrary.cylib\BLE_v2_0\Library\gccCyBLEStack_BLE_SOC_PERIPHERAL.a(smp_core.o)
 .debug_frame   0x000111ec       0x4c C:\9047software\PSoC Creator\3.3\PSoC Creator\psoc\content\cycomponentlibrary\CyComponentLibrary.cylib\BLE_v2_0\Library\gccCyBLEStack_BLE_SOC_PERIPHERAL.a(smp_core.o)
 .debug_frame   0x00011238       0x44 C:\9047software\PSoC Creator\3.3\PSoC Creator\psoc\content\cycomponentlibrary\CyComponentLibrary.cylib\BLE_v2_0\Library\gccCyBLEStack_BLE_SOC_PERIPHERAL.a(smp_core.o)
 .debug_frame   0x0001127c       0x48 C:\9047software\PSoC Creator\3.3\PSoC Creator\psoc\content\cycomponentlibrary\CyComponentLibrary.cylib\BLE_v2_0\Library\gccCyBLEStack_BLE_SOC_PERIPHERAL.a(smp_core.o)
 .debug_frame   0x000112c4       0x54 C:\9047software\PSoC Creator\3.3\PSoC Creator\psoc\content\cycomponentlibrary\CyComponentLibrary.cylib\BLE_v2_0\Library\gccCyBLEStack_BLE_SOC_PERIPHERAL.a(smp_core.o)
 .debug_frame   0x00011318       0x3c C:\9047software\PSoC Creator\3.3\PSoC Creator\psoc\content\cycomponentlibrary\CyComponentLibrary.cylib\BLE_v2_0\Library\gccCyBLEStack_BLE_SOC_PERIPHERAL.a(smp_core.o)
 .debug_frame   0x00011354       0x48 C:\9047software\PSoC Creator\3.3\PSoC Creator\psoc\content\cycomponentlibrary\CyComponentLibrary.cylib\BLE_v2_0\Library\gccCyBLEStack_BLE_SOC_PERIPHERAL.a(smp_core.o)
 .debug_frame   0x0001139c       0x48 C:\9047software\PSoC Creator\3.3\PSoC Creator\psoc\content\cycomponentlibrary\CyComponentLibrary.cylib\BLE_v2_0\Library\gccCyBLEStack_BLE_SOC_PERIPHERAL.a(smp_core.o)
 .debug_frame   0x000113e4       0x44 C:\9047software\PSoC Creator\3.3\PSoC Creator\psoc\content\cycomponentlibrary\CyComponentLibrary.cylib\BLE_v2_0\Library\gccCyBLEStack_BLE_SOC_PERIPHERAL.a(smp_init.o)
 .debug_frame   0x00011428       0x4c C:\9047software\PSoC Creator\3.3\PSoC Creator\psoc\content\cycomponentlibrary\CyComponentLibrary.cylib\BLE_v2_0\Library\gccCyBLEStack_BLE_SOC_PERIPHERAL.a(smp_init.o)
 .debug_frame   0x00011474       0x48 C:\9047software\PSoC Creator\3.3\PSoC Creator\psoc\content\cycomponentlibrary\CyComponentLibrary.cylib\BLE_v2_0\Library\gccCyBLEStack_BLE_SOC_PERIPHERAL.a(smp_init.o)
 .debug_frame   0x000114bc       0x48 C:\9047software\PSoC Creator\3.3\PSoC Creator\psoc\content\cycomponentlibrary\CyComponentLibrary.cylib\BLE_v2_0\Library\gccCyBLEStack_BLE_SOC_PERIPHERAL.a(smp_interface.o)
 .debug_frame   0x00011504       0x54 C:\9047software\PSoC Creator\3.3\PSoC Creator\psoc\content\cycomponentlibrary\CyComponentLibrary.cylib\BLE_v2_0\Library\gccCyBLEStack_BLE_SOC_PERIPHERAL.a(smp_interface.o)
 .debug_frame   0x00011558       0x4c C:\9047software\PSoC Creator\3.3\PSoC Creator\psoc\content\cycomponentlibrary\CyComponentLibrary.cylib\BLE_v2_0\Library\gccCyBLEStack_BLE_SOC_PERIPHERAL.a(smp_interface.o)
 .debug_frame   0x000115a4       0x44 C:\9047software\PSoC Creator\3.3\PSoC Creator\psoc\content\cycomponentlibrary\CyComponentLibrary.cylib\BLE_v2_0\Library\gccCyBLEStack_BLE_SOC_PERIPHERAL.a(smp_interface.o)
 .debug_frame   0x000115e8       0x48 C:\9047software\PSoC Creator\3.3\PSoC Creator\psoc\content\cycomponentlibrary\CyComponentLibrary.cylib\BLE_v2_0\Library\gccCyBLEStack_BLE_SOC_PERIPHERAL.a(smp_interface.o)
 .debug_frame   0x00011630       0x4c C:\9047software\PSoC Creator\3.3\PSoC Creator\psoc\content\cycomponentlibrary\CyComponentLibrary.cylib\BLE_v2_0\Library\gccCyBLEStack_BLE_SOC_PERIPHERAL.a(smp_interface.o)
 .debug_frame   0x0001167c       0x48 C:\9047software\PSoC Creator\3.3\PSoC Creator\psoc\content\cycomponentlibrary\CyComponentLibrary.cylib\BLE_v2_0\Library\gccCyBLEStack_BLE_SOC_PERIPHERAL.a(smp_interface.o)
 .debug_frame   0x000116c4       0x48 C:\9047software\PSoC Creator\3.3\PSoC Creator\psoc\content\cycomponentlibrary\CyComponentLibrary.cylib\BLE_v2_0\Library\gccCyBLEStack_BLE_SOC_PERIPHERAL.a(smp_utils.o)
 .debug_frame   0x0001170c       0x44 C:\9047software\PSoC Creator\3.3\PSoC Creator\psoc\content\cycomponentlibrary\CyComponentLibrary.cylib\BLE_v2_0\Library\gccCyBLEStack_BLE_SOC_PERIPHERAL.a(smp_utils.o)
 .debug_frame   0x00011750       0x4c C:\9047software\PSoC Creator\3.3\PSoC Creator\psoc\content\cycomponentlibrary\CyComponentLibrary.cylib\BLE_v2_0\Library\gccCyBLEStack_BLE_SOC_PERIPHERAL.a(smp_utils.o)
 .debug_frame   0x0001179c       0x48 C:\9047software\PSoC Creator\3.3\PSoC Creator\psoc\content\cycomponentlibrary\CyComponentLibrary.cylib\BLE_v2_0\Library\gccCyBLEStack_BLE_SOC_PERIPHERAL.a(smp_utils.o)
 .debug_frame   0x000117e4       0x44 C:\9047software\PSoC Creator\3.3\PSoC Creator\psoc\content\cycomponentlibrary\CyComponentLibrary.cylib\BLE_v2_0\Library\gccCyBLEStack_BLE_SOC_PERIPHERAL.a(smp_utils.o)
 .debug_frame   0x00011828       0x44 C:\9047software\PSoC Creator\3.3\PSoC Creator\psoc\content\cycomponentlibrary\CyComponentLibrary.cylib\BLE_v2_0\Library\gccCyBLEStack_BLE_SOC_PERIPHERAL.a(smp_utils.o)
 .debug_frame   0x0001186c       0x48 C:\9047software\PSoC Creator\3.3\PSoC Creator\psoc\content\cycomponentlibrary\CyComponentLibrary.cylib\BLE_v2_0\Library\gccCyBLEStack_BLE_SOC_PERIPHERAL.a(smp_utils.o)
 .debug_frame   0x000118b4       0x44 C:\9047software\PSoC Creator\3.3\PSoC Creator\psoc\content\cycomponentlibrary\CyComponentLibrary.cylib\BLE_v2_0\Library\gccCyBLEStack_BLE_SOC_PERIPHERAL.a(smp_utils.o)
 .debug_frame   0x000118f8       0x3c C:\9047software\PSoC Creator\3.3\PSoC Creator\psoc\content\cycomponentlibrary\CyComponentLibrary.cylib\BLE_v2_0\Library\gccCyBLEStack_BLE_SOC_PERIPHERAL.a(smp_utils.o)
 .debug_frame   0x00011934       0x44 C:\9047software\PSoC Creator\3.3\PSoC Creator\psoc\content\cycomponentlibrary\CyComponentLibrary.cylib\BLE_v2_0\Library\gccCyBLEStack_BLE_SOC_PERIPHERAL.a(smp_fsm_engine.o)
 .debug_frame   0x00011978       0x3c C:\9047software\PSoC Creator\3.3\PSoC Creator\psoc\content\cycomponentlibrary\CyComponentLibrary.cylib\BLE_v2_0\Library\gccCyBLEStack_BLE_SOC_PERIPHERAL.a(smp_fsm_engine.o)
 .debug_frame   0x000119b4       0x4c C:\9047software\PSoC Creator\3.3\PSoC Creator\psoc\content\cycomponentlibrary\CyComponentLibrary.cylib\BLE_v2_0\Library\gccCyBLEStack_BLE_SOC_PERIPHERAL.a(smp_tools.o)
 .debug_frame   0x00011a00       0x54 C:\9047software\PSoC Creator\3.3\PSoC Creator\psoc\content\cycomponentlibrary\CyComponentLibrary.cylib\BLE_v2_0\Library\gccCyBLEStack_BLE_SOC_PERIPHERAL.a(smp_tools.o)
 .debug_frame   0x00011a54       0x50 C:\9047software\PSoC Creator\3.3\PSoC Creator\psoc\content\cycomponentlibrary\CyComponentLibrary.cylib\BLE_v2_0\Library\gccCyBLEStack_BLE_SOC_PERIPHERAL.a(smp_tools.o)
 .debug_frame   0x00011aa4       0x50 C:\9047software\PSoC Creator\3.3\PSoC Creator\psoc\content\cycomponentlibrary\CyComponentLibrary.cylib\BLE_v2_0\Library\gccCyBLEStack_BLE_SOC_PERIPHERAL.a(smp_tools.o)
 .debug_frame   0x00011af4       0x48 C:\9047software\PSoC Creator\3.3\PSoC Creator\psoc\content\cycomponentlibrary\CyComponentLibrary.cylib\BLE_v2_0\Library\gccCyBLEStack_BLE_SOC_PERIPHERAL.a(smp_tools.o)
 .debug_frame   0x00011b3c       0x48 C:\9047software\PSoC Creator\3.3\PSoC Creator\psoc\content\cycomponentlibrary\CyComponentLibrary.cylib\BLE_v2_0\Library\gccCyBLEStack_BLE_SOC_PERIPHERAL.a(smp_psstore.o)
 .debug_frame   0x00011b84       0x4c C:\9047software\PSoC Creator\3.3\PSoC Creator\psoc\content\cycomponentlibrary\CyComponentLibrary.cylib\BLE_v2_0\Library\gccCyBLEStack_BLE_SOC_PERIPHERAL.a(smp_psstore.o)
 .debug_frame   0x00011bd0       0x44 C:\9047software\PSoC Creator\3.3\PSoC Creator\psoc\content\cycomponentlibrary\CyComponentLibrary.cylib\BLE_v2_0\Library\gccCyBLEStack_BLE_SOC_PERIPHERAL.a(smp_psstore.o)
 .debug_frame   0x00011c14       0x44 C:\9047software\PSoC Creator\3.3\PSoC Creator\psoc\content\cycomponentlibrary\CyComponentLibrary.cylib\BLE_v2_0\Library\gccCyBLEStack_BLE_SOC_PERIPHERAL.a(write_task.o)
 .debug_frame   0x00011c58       0x44 C:\9047software\PSoC Creator\3.3\PSoC Creator\psoc\content\cycomponentlibrary\CyComponentLibrary.cylib\BLE_v2_0\Library\gccCyBLEStack_BLE_SOC_PERIPHERAL.a(write_task.o)
 .debug_frame   0x00011c9c       0x48 C:\9047software\PSoC Creator\3.3\PSoC Creator\psoc\content\cycomponentlibrary\CyComponentLibrary.cylib\BLE_v2_0\Library\gccCyBLEStack_BLE_SOC_PERIPHERAL.a(write_task.o)
 .debug_frame   0x00011ce4       0x4c C:\9047software\PSoC Creator\3.3\PSoC Creator\psoc\content\cycomponentlibrary\CyComponentLibrary.cylib\BLE_v2_0\Library\gccCyBLEStack_BLE_SOC_PERIPHERAL.a(write_task.o)
 .debug_frame   0x00011d30       0x4c C:\9047software\PSoC Creator\3.3\PSoC Creator\psoc\content\cycomponentlibrary\CyComponentLibrary.cylib\BLE_v2_0\Library\gccCyBLEStack_BLE_SOC_PERIPHERAL.a(write_task.o)
 .debug_frame   0x00011d7c       0x4c C:\9047software\PSoC Creator\3.3\PSoC Creator\psoc\content\cycomponentlibrary\CyComponentLibrary.cylib\BLE_v2_0\Library\gccCyBLEStack_BLE_SOC_PERIPHERAL.a(write_task.o)
 .debug_frame   0x00011dc8       0x44 C:\9047software\PSoC Creator\3.3\PSoC Creator\psoc\content\cycomponentlibrary\CyComponentLibrary.cylib\BLE_v2_0\Library\gccCyBLEStack_BLE_SOC_PERIPHERAL.a(aes_cmac.o)
 .debug_frame   0x00011e0c       0x3c C:\9047software\PSoC Creator\3.3\PSoC Creator\psoc\content\cycomponentlibrary\CyComponentLibrary.cylib\BLE_v2_0\Library\gccCyBLEStack_BLE_SOC_PERIPHERAL.a(aes_cmac.o)
 .debug_frame   0x00011e48       0x48 C:\9047software\PSoC Creator\3.3\PSoC Creator\psoc\content\cycomponentlibrary\CyComponentLibrary.cylib\BLE_v2_0\Library\gccCyBLEStack_BLE_SOC_PERIPHERAL.a(aes_cmac.o)
 .debug_frame   0x00011e90       0x4c C:\9047software\PSoC Creator\3.3\PSoC Creator\psoc\content\cycomponentlibrary\CyComponentLibrary.cylib\BLE_v2_0\Library\gccCyBLEStack_BLE_SOC_PERIPHERAL.a(aes_cmac.o)
 .debug_frame   0x00011edc       0x4c C:\9047software\PSoC Creator\3.3\PSoC Creator\psoc\content\cycomponentlibrary\CyComponentLibrary.cylib\BLE_v2_0\Library\gccCyBLEStack_BLE_SOC_PERIPHERAL.a(aes_cmac.o)
 .debug_frame   0x00011f28       0x48 C:\9047software\PSoC Creator\3.3\PSoC Creator\psoc\content\cycomponentlibrary\CyComponentLibrary.cylib\BLE_v2_0\Library\gccCyBLEStack_BLE_SOC_PERIPHERAL.a(aes_cmac.o)
 .debug_frame   0x00011f70       0x48 C:\9047software\PSoC Creator\3.3\PSoC Creator\psoc\content\cycomponentlibrary\CyComponentLibrary.cylib\BLE_v2_0\Library\gccCyBLEStack_BLE_SOC_PERIPHERAL.a(aes_cmac.o)
 .debug_frame   0x00011fb8       0x54 C:\9047software\PSoC Creator\3.3\PSoC Creator\psoc\content\cycomponentlibrary\CyComponentLibrary.cylib\BLE_v2_0\Library\gccCyBLEStack_BLE_SOC_PERIPHERAL.a(aes_cmac.o)
 .debug_frame   0x0001200c       0x48 C:\9047software\PSoC Creator\3.3\PSoC Creator\psoc\content\cycomponentlibrary\CyComponentLibrary.cylib\BLE_v2_0\Library\gccCyBLEStack_BLE_SOC_PERIPHERAL.a(aes_cmac.o)
 .debug_frame   0x00012054       0x48 C:\9047software\PSoC Creator\3.3\PSoC Creator\psoc\content\cycomponentlibrary\CyComponentLibrary.cylib\BLE_v2_0\Library\gccCyBLEStack_BLE_SOC_PERIPHERAL.a(aes_cmac.o)
 .debug_frame   0x0001209c       0x3c C:\9047software\PSoC Creator\3.3\PSoC Creator\psoc\content\cycomponentlibrary\CyComponentLibrary.cylib\BLE_v2_0\Library\gccCyBLEStack_BLE_SOC_PERIPHERAL.a(aes_cmac_pl.o)
 .debug_frame   0x000120d8       0x44 C:\9047software\PSoC Creator\3.3\PSoC Creator\psoc\content\cycomponentlibrary\CyComponentLibrary.cylib\BLE_v2_0\Library\gccCyBLEStack_BLE_SOC_PERIPHERAL.a(aes_cmac_pl.o)
 .debug_frame   0x0001211c       0x44 C:\9047software\PSoC Creator\3.3\PSoC Creator\psoc\content\cycomponentlibrary\CyComponentLibrary.cylib\BLE_v2_0\Library\gccCyBLEStack_BLE_SOC_PERIPHERAL.a(aes_cmac_pl.o)
 .debug_frame   0x00012160       0x3c C:\9047software\PSoC Creator\3.3\PSoC Creator\psoc\content\cycomponentlibrary\CyComponentLibrary.cylib\BLE_v2_0\Library\gccCyBLEStack_BLE_SOC_PERIPHERAL.a(status.o)
 .debug_frame   0x0001219c       0x3c C:\9047software\PSoC Creator\3.3\PSoC Creator\psoc\content\cycomponentlibrary\CyComponentLibrary.cylib\BLE_v2_0\Library\gccCyBLEStack_BLE_SOC_PERIPHERAL.a(status.o)
 .debug_frame   0x000121d8       0x3c C:\9047software\PSoC Creator\3.3\PSoC Creator\psoc\content\cycomponentlibrary\CyComponentLibrary.cylib\BLE_v2_0\Library\gccCyBLEStack_BLE_SOC_PERIPHERAL.a(status.o)
 .debug_frame   0x00012214       0x3c C:\9047software\PSoC Creator\3.3\PSoC Creator\psoc\content\cycomponentlibrary\CyComponentLibrary.cylib\BLE_v2_0\Library\gccCyBLEStack_BLE_SOC_PERIPHERAL.a(storage.o)
 .debug_frame   0x00012250       0x3c C:\9047software\PSoC Creator\3.3\PSoC Creator\psoc\content\cycomponentlibrary\CyComponentLibrary.cylib\BLE_v2_0\Library\gccCyBLEStack_BLE_SOC_PERIPHERAL.a(storage.o)
 .debug_frame   0x0001228c       0x48 C:\9047software\PSoC Creator\3.3\PSoC Creator\psoc\content\cycomponentlibrary\CyComponentLibrary.cylib\BLE_v2_0\Library\gccCyBLEStack_BLE_SOC_PERIPHERAL.a(storage.o)
 .debug_frame   0x000122d4       0x44 C:\9047software\PSoC Creator\3.3\PSoC Creator\psoc\content\cycomponentlibrary\CyComponentLibrary.cylib\BLE_v2_0\Library\gccCyBLEStack_BLE_SOC_PERIPHERAL.a(storage.o)
 .debug_frame   0x00012318       0x48 C:\9047software\PSoC Creator\3.3\PSoC Creator\psoc\content\cycomponentlibrary\CyComponentLibrary.cylib\BLE_v2_0\Library\gccCyBLEStack_BLE_SOC_PERIPHERAL.a(storage.o)
 .debug_frame   0x00012360       0x44 C:\9047software\PSoC Creator\3.3\PSoC Creator\psoc\content\cycomponentlibrary\CyComponentLibrary.cylib\BLE_v2_0\Library\gccCyBLEStack_BLE_SOC_PERIPHERAL.a(storage.o)
 .debug_frame   0x000123a4       0x48 C:\9047software\PSoC Creator\3.3\PSoC Creator\psoc\content\cycomponentlibrary\CyComponentLibrary.cylib\BLE_v2_0\Library\gccCyBLEStack_BLE_SOC_PERIPHERAL.a(storage.o)
 .debug_frame   0x000123ec       0x4c C:\9047software\PSoC Creator\3.3\PSoC Creator\psoc\content\cycomponentlibrary\CyComponentLibrary.cylib\BLE_v2_0\Library\gccCyBLEStack_BLE_SOC_PERIPHERAL.a(storage.o)
 .debug_frame   0x00012438       0x44 C:\9047software\PSoC Creator\3.3\PSoC Creator\psoc\content\cycomponentlibrary\CyComponentLibrary.cylib\BLE_v2_0\Library\gccCyBLEStack_BLE_SOC_PERIPHERAL.a(storage.o)
 .debug_frame   0x0001247c       0x44 C:\9047software\PSoC Creator\3.3\PSoC Creator\psoc\content\cycomponentlibrary\CyComponentLibrary.cylib\BLE_v2_0\Library\gccCyBLEStack_BLE_SOC_PERIPHERAL.a(storage.o)
 .debug_frame   0x000124c0       0x3c C:\9047software\PSoC Creator\3.3\PSoC Creator\psoc\content\cycomponentlibrary\CyComponentLibrary.cylib\BLE_v2_0\Library\gccCyBLEStack_BLE_SOC_PERIPHERAL.a(storage.o)
 .debug_frame   0x000124fc       0x48 C:\9047software\PSoC Creator\3.3\PSoC Creator\psoc\content\cycomponentlibrary\CyComponentLibrary.cylib\BLE_v2_0\Library\gccCyBLEStack_BLE_SOC_PERIPHERAL.a(storage.o)
 .debug_frame   0x00012544       0x48 C:\9047software\PSoC Creator\3.3\PSoC Creator\psoc\content\cycomponentlibrary\CyComponentLibrary.cylib\BLE_v2_0\Library\gccCyBLEStack_BLE_SOC_PERIPHERAL.a(bt_os_common.o)
 .debug_frame   0x0001258c       0x3c C:\9047software\PSoC Creator\3.3\PSoC Creator\psoc\content\cycomponentlibrary\CyComponentLibrary.cylib\BLE_v2_0\Library\gccCyBLEStack_BLE_SOC_PERIPHERAL.a(bt_os_common.o)
 .debug_frame   0x000125c8       0x3c C:\9047software\PSoC Creator\3.3\PSoC Creator\psoc\content\cycomponentlibrary\CyComponentLibrary.cylib\BLE_v2_0\Library\gccCyBLEStack_BLE_SOC_PERIPHERAL.a(bt_os_common.o)
 .debug_frame   0x00012604       0x3c C:\9047software\PSoC Creator\3.3\PSoC Creator\psoc\content\cycomponentlibrary\CyComponentLibrary.cylib\BLE_v2_0\Library\gccCyBLEStack_BLE_SOC_PERIPHERAL.a(bt_os_common.o)
 .debug_frame   0x00012640       0x3c C:\9047software\PSoC Creator\3.3\PSoC Creator\psoc\content\cycomponentlibrary\CyComponentLibrary.cylib\BLE_v2_0\Library\gccCyBLEStack_BLE_SOC_PERIPHERAL.a(bt_os_common.o)
 .debug_frame   0x0001267c       0x3c C:\9047software\PSoC Creator\3.3\PSoC Creator\psoc\content\cycomponentlibrary\CyComponentLibrary.cylib\BLE_v2_0\Library\gccCyBLEStack_BLE_SOC_PERIPHERAL.a(bt_os_common.o)
 .debug_frame   0x000126b8       0x3c C:\9047software\PSoC Creator\3.3\PSoC Creator\psoc\content\cycomponentlibrary\CyComponentLibrary.cylib\BLE_v2_0\Library\gccCyBLEStack_BLE_SOC_PERIPHERAL.a(bt_os_common.o)
 .debug_frame   0x000126f4       0x3c C:\9047software\PSoC Creator\3.3\PSoC Creator\psoc\content\cycomponentlibrary\CyComponentLibrary.cylib\BLE_v2_0\Library\gccCyBLEStack_BLE_SOC_PERIPHERAL.a(bt_os_common.o)
 .debug_frame   0x00012730       0x3c C:\9047software\PSoC Creator\3.3\PSoC Creator\psoc\content\cycomponentlibrary\CyComponentLibrary.cylib\BLE_v2_0\Library\gccCyBLEStack_BLE_SOC_PERIPHERAL.a(bt_os_common.o)
 .debug_frame   0x0001276c       0x44 C:\9047software\PSoC Creator\3.3\PSoC Creator\psoc\content\cycomponentlibrary\CyComponentLibrary.cylib\BLE_v2_0\Library\gccCyBLEStack_BLE_SOC_PERIPHERAL.a(bt_os_common.o)
 .debug_frame   0x000127b0       0x44 C:\9047software\PSoC Creator\3.3\PSoC Creator\psoc\content\cycomponentlibrary\CyComponentLibrary.cylib\BLE_v2_0\Library\gccCyBLEStack_BLE_SOC_PERIPHERAL.a(bt_os_common.o)
 .debug_frame   0x000127f4       0x44 C:\9047software\PSoC Creator\3.3\PSoC Creator\psoc\content\cycomponentlibrary\CyComponentLibrary.cylib\BLE_v2_0\Library\gccCyBLEStack_BLE_SOC_PERIPHERAL.a(bt_os_common.o)
 .debug_frame   0x00012838       0x44 C:\9047software\PSoC Creator\3.3\PSoC Creator\psoc\content\cycomponentlibrary\CyComponentLibrary.cylib\BLE_v2_0\Library\gccCyBLEStack_BLE_SOC_PERIPHERAL.a(BT_timer.o)
 .debug_frame   0x0001287c       0x44 C:\9047software\PSoC Creator\3.3\PSoC Creator\psoc\content\cycomponentlibrary\CyComponentLibrary.cylib\BLE_v2_0\Library\gccCyBLEStack_BLE_SOC_PERIPHERAL.a(BT_timer.o)
 .debug_frame   0x000128c0       0x44 C:\9047software\PSoC Creator\3.3\PSoC Creator\psoc\content\cycomponentlibrary\CyComponentLibrary.cylib\BLE_v2_0\Library\gccCyBLEStack_BLE_SOC_PERIPHERAL.a(BT_timer.o)
 .debug_frame   0x00012904       0x3c C:\9047software\PSoC Creator\3.3\PSoC Creator\psoc\content\cycomponentlibrary\CyComponentLibrary.cylib\BLE_v2_0\Library\gccCyBLEStack_BLE_SOC_PERIPHERAL.a(BT_timer.o)
 .debug_frame   0x00012940       0x4c C:\9047software\PSoC Creator\3.3\PSoC Creator\psoc\content\cycomponentlibrary\CyComponentLibrary.cylib\BLE_v2_0\Library\gccCyBLEStack_BLE_SOC_PERIPHERAL.a(BT_timer.o)
 .debug_frame   0x0001298c       0x48 C:\9047software\PSoC Creator\3.3\PSoC Creator\psoc\content\cycomponentlibrary\CyComponentLibrary.cylib\BLE_v2_0\Library\gccCyBLEStack_BLE_SOC_PERIPHERAL.a(BT_timer.o)
 .debug_frame   0x000129d4       0x3c C:\9047software\PSoC Creator\3.3\PSoC Creator\psoc\content\cycomponentlibrary\CyComponentLibrary.cylib\BLE_v2_0\Library\gccCyBLEStack_BLE_SOC_PERIPHERAL.a(BT_timer.o)
 .debug_frame   0x00012a10       0x3c C:\9047software\PSoC Creator\3.3\PSoC Creator\psoc\content\cycomponentlibrary\CyComponentLibrary.cylib\BLE_v2_0\Library\gccCyBLEStack_BLE_SOC_PERIPHERAL.a(BT_timer.o)
 .debug_frame   0x00012a4c       0x3c C:\9047software\PSoC Creator\3.3\PSoC Creator\psoc\content\cycomponentlibrary\CyComponentLibrary.cylib\BLE_v2_0\Library\gccCyBLEStack_BLE_SOC_PERIPHERAL.a(BT_timer.o)
 .debug_frame   0x00012a88       0x54 C:\9047software\PSoC Creator\3.3\PSoC Creator\psoc\content\cycomponentlibrary\CyComponentLibrary.cylib\BLE_v2_0\Library\gccCyBLEStack_BLE_SOC_PERIPHERAL.a(BT_timer.o)
 .debug_frame   0x00012adc       0x4c C:\9047software\PSoC Creator\3.3\PSoC Creator\psoc\content\cycomponentlibrary\CyComponentLibrary.cylib\BLE_v2_0\Library\gccCyBLEStack_BLE_SOC_PERIPHERAL.a(BT_timer.o)
 .debug_frame   0x00012b28       0x4c C:\9047software\PSoC Creator\3.3\PSoC Creator\psoc\content\cycomponentlibrary\CyComponentLibrary.cylib\BLE_v2_0\Library\gccCyBLEStack_BLE_SOC_PERIPHERAL.a(BT_timer.o)
 .debug_frame   0x00012b74       0x44 C:\9047software\PSoC Creator\3.3\PSoC Creator\psoc\content\cycomponentlibrary\CyComponentLibrary.cylib\BLE_v2_0\Library\gccCyBLEStack_BLE_SOC_PERIPHERAL.a(BT_timer.o)
 .debug_frame   0x00012bb8       0x3c C:\9047software\PSoC Creator\3.3\PSoC Creator\psoc\content\cycomponentlibrary\CyComponentLibrary.cylib\BLE_v2_0\Library\gccCyBLEStack_BLE_SOC_PERIPHERAL.a(storage_pl.o)
 .debug_frame   0x00012bf4       0x3c C:\9047software\PSoC Creator\3.3\PSoC Creator\psoc\content\cycomponentlibrary\CyComponentLibrary.cylib\BLE_v2_0\Library\gccCyBLEStack_BLE_SOC_PERIPHERAL.a(storage_pl.o)
 .debug_frame   0x00012c30       0x4c C:\9047software\PSoC Creator\3.3\PSoC Creator\psoc\content\cycomponentlibrary\CyComponentLibrary.cylib\BLE_v2_0\Library\gccCyBLEStack_BLE_SOC_PERIPHERAL.a(storage_pl.o)
 .debug_frame   0x00012c7c       0x44 C:\9047software\PSoC Creator\3.3\PSoC Creator\psoc\content\cycomponentlibrary\CyComponentLibrary.cylib\BLE_v2_0\Library\gccCyBLEStack_BLE_SOC_PERIPHERAL.a(storage_pl.o)
 .debug_frame   0x00012cc0       0x44 C:\9047software\PSoC Creator\3.3\PSoC Creator\psoc\content\cycomponentlibrary\CyComponentLibrary.cylib\BLE_v2_0\Library\gccCyBLEStack_BLE_SOC_PERIPHERAL.a(storage_pl.o)
 .debug_frame   0x00012d04       0x3c C:\9047software\PSoC Creator\3.3\PSoC Creator\psoc\content\cycomponentlibrary\CyComponentLibrary.cylib\BLE_v2_0\Library\gccCyBLEStack_BLE_SOC_PERIPHERAL.a(storage_pl.o)
 .debug_frame   0x00012d40       0x3c C:\9047software\PSoC Creator\3.3\PSoC Creator\psoc\content\cycomponentlibrary\CyComponentLibrary.cylib\BLE_v2_0\Library\gccCyBLEStack_BLE_SOC_PERIPHERAL.a(storage_pl.o)
 .debug_frame   0x00012d7c       0x4c C:\9047software\PSoC Creator\3.3\PSoC Creator\psoc\content\cycomponentlibrary\CyComponentLibrary.cylib\BLE_v2_0\Library\gccCyBLEStack_BLE_SOC_PERIPHERAL.a(storage_pl.o)
 .debug_frame   0x00012dc8       0x48 C:\9047software\PSoC Creator\3.3\PSoC Creator\psoc\content\cycomponentlibrary\CyComponentLibrary.cylib\BLE_v2_0\Library\gccCyBLEStack_BLE_SOC_PERIPHERAL.a(storage_pl.o)
 .debug_frame   0x00012e10       0x48 C:\9047software\PSoC Creator\3.3\PSoC Creator\psoc\content\cycomponentlibrary\CyComponentLibrary.cylib\BLE_v2_0\Library\gccCyBLEStack_BLE_SOC_PERIPHERAL.a(storage_pl.o)
 .debug_frame   0x00012e58       0x44 C:\9047software\PSoC Creator\3.3\PSoC Creator\psoc\content\cycomponentlibrary\CyComponentLibrary.cylib\BLE_v2_0\Library\gccCyBLEStack_BLE_SOC_PERIPHERAL.a(storage_pl.o)
 .debug_frame   0x00012e9c       0x48 C:\9047software\PSoC Creator\3.3\PSoC Creator\psoc\content\cycomponentlibrary\CyComponentLibrary.cylib\BLE_v2_0\Library\gccCyBLEStack_BLE_SOC_PERIPHERAL.a(storage_pl.o)
 .debug_frame   0x00012ee4       0x4c C:\9047software\PSoC Creator\3.3\PSoC Creator\psoc\content\cycomponentlibrary\CyComponentLibrary.cylib\BLE_v2_0\Library\gccCyBLEStack_BLE_SOC_PERIPHERAL.a(storage_pl.o)
 .debug_frame   0x00012f30       0x3c C:\9047software\PSoC Creator\3.3\PSoC Creator\psoc\content\cycomponentlibrary\CyComponentLibrary.cylib\BLE_v2_0\Library\gccCyBLEStack_BLE_SOC_PERIPHERAL.a(storage_pl.o)
 .debug_frame   0x00012f6c       0x3c C:\9047software\PSoC Creator\3.3\PSoC Creator\psoc\content\cycomponentlibrary\CyComponentLibrary.cylib\BLE_v2_0\Library\gccCyBLEStack_BLE_SOC_PERIPHERAL.a(storage_pl.o)
 .debug_frame   0x00012fa8       0x54 C:\9047software\PSoC Creator\3.3\PSoC Creator\psoc\content\cycomponentlibrary\CyComponentLibrary.cylib\BLE_v2_0\Library\gccCyBLEStack_BLE_SOC_PERIPHERAL.a(drbg.o)
 .debug_frame   0x00012ffc       0x50 C:\9047software\PSoC Creator\3.3\PSoC Creator\psoc\content\cycomponentlibrary\CyComponentLibrary.cylib\BLE_v2_0\Library\gccCyBLEStack_BLE_SOC_PERIPHERAL.a(drbg.o)
 .debug_frame   0x0001304c       0x4c C:\9047software\PSoC Creator\3.3\PSoC Creator\psoc\content\cycomponentlibrary\CyComponentLibrary.cylib\BLE_v2_0\Library\gccCyBLEStack_BLE_SOC_PERIPHERAL.a(drbg.o)
 .debug_frame   0x00013098       0x44 C:\9047software\PSoC Creator\3.3\PSoC Creator\psoc\content\cycomponentlibrary\CyComponentLibrary.cylib\BLE_v2_0\Library\gccCyBLEStack_BLE_SOC_PERIPHERAL.a(bt_fw_os_al.o)
 .debug_frame   0x000130dc       0x44 C:\9047software\PSoC Creator\3.3\PSoC Creator\psoc\content\cycomponentlibrary\CyComponentLibrary.cylib\BLE_v2_0\Library\gccCyBLEStack_BLE_SOC_PERIPHERAL.a(bt_fw_os_al.o)
 .debug_frame   0x00013120       0x44 C:\9047software\PSoC Creator\3.3\PSoC Creator\psoc\content\cycomponentlibrary\CyComponentLibrary.cylib\BLE_v2_0\Library\gccCyBLEStack_BLE_SOC_PERIPHERAL.a(bt_fw_os_al.o)
 .debug_frame   0x00013164       0x44 C:\9047software\PSoC Creator\3.3\PSoC Creator\psoc\content\cycomponentlibrary\CyComponentLibrary.cylib\BLE_v2_0\Library\gccCyBLEStack_BLE_SOC_PERIPHERAL.a(bt_fw_os_al.o)
 .debug_frame   0x000131a8       0x48 C:\9047software\PSoC Creator\3.3\PSoC Creator\psoc\content\cycomponentlibrary\CyComponentLibrary.cylib\BLE_v2_0\Library\gccCyBLEStack_BLE_SOC_PERIPHERAL.a(bt_fw_os_al.o)
 .debug_frame   0x000131f0       0x48 C:\9047software\PSoC Creator\3.3\PSoC Creator\psoc\content\cycomponentlibrary\CyComponentLibrary.cylib\BLE_v2_0\Library\gccCyBLEStack_BLE_SOC_PERIPHERAL.a(bt_fw_os_al.o)
 .debug_frame   0x00013238       0x44 C:\9047software\PSoC Creator\3.3\PSoC Creator\psoc\content\cycomponentlibrary\CyComponentLibrary.cylib\BLE_v2_0\Library\gccCyBLEStack_BLE_SOC_PERIPHERAL.a(bt_fw_os_al.o)
 .debug_frame   0x0001327c       0x44 C:\9047software\PSoC Creator\3.3\PSoC Creator\psoc\content\cycomponentlibrary\CyComponentLibrary.cylib\BLE_v2_0\Library\gccCyBLEStack_BLE_SOC_PERIPHERAL.a(bt_fw_os_al.o)
 .debug_frame   0x000132c0       0x44 C:\9047software\PSoC Creator\3.3\PSoC Creator\psoc\content\cycomponentlibrary\CyComponentLibrary.cylib\BLE_v2_0\Library\gccCyBLEStack_BLE_SOC_PERIPHERAL.a(bt_fw_os_al.o)
 .debug_frame   0x00013304       0x44 C:\9047software\PSoC Creator\3.3\PSoC Creator\psoc\content\cycomponentlibrary\CyComponentLibrary.cylib\BLE_v2_0\Library\gccCyBLEStack_BLE_SOC_PERIPHERAL.a(bt_fw_os_al.o)
 .debug_frame   0x00013348       0x44 C:\9047software\PSoC Creator\3.3\PSoC Creator\psoc\content\cycomponentlibrary\CyComponentLibrary.cylib\BLE_v2_0\Library\gccCyBLEStack_BLE_SOC_PERIPHERAL.a(bt_fw_os_al.o)
 .debug_frame   0x0001338c       0x44 C:\9047software\PSoC Creator\3.3\PSoC Creator\psoc\content\cycomponentlibrary\CyComponentLibrary.cylib\BLE_v2_0\Library\gccCyBLEStack_BLE_SOC_PERIPHERAL.a(bt_fw_os_al.o)
 .debug_frame   0x000133d0       0x44 C:\9047software\PSoC Creator\3.3\PSoC Creator\psoc\content\cycomponentlibrary\CyComponentLibrary.cylib\BLE_v2_0\Library\gccCyBLEStack_BLE_SOC_PERIPHERAL.a(bt_fw_os_al.o)
 .debug_frame   0x00013414       0x44 C:\9047software\PSoC Creator\3.3\PSoC Creator\psoc\content\cycomponentlibrary\CyComponentLibrary.cylib\BLE_v2_0\Library\gccCyBLEStack_BLE_SOC_PERIPHERAL.a(bt_fw_os_al.o)
 .debug_frame   0x00013458       0x44 C:\9047software\PSoC Creator\3.3\PSoC Creator\psoc\content\cycomponentlibrary\CyComponentLibrary.cylib\BLE_v2_0\Library\gccCyBLEStack_BLE_SOC_PERIPHERAL.a(bt_fw_os_al.o)
 .debug_frame   0x0001349c       0x44 C:\9047software\PSoC Creator\3.3\PSoC Creator\psoc\content\cycomponentlibrary\CyComponentLibrary.cylib\BLE_v2_0\Library\gccCyBLEStack_BLE_SOC_PERIPHERAL.a(bt_fw_os_al.o)
 .debug_frame   0x000134e0       0x44 C:\9047software\PSoC Creator\3.3\PSoC Creator\psoc\content\cycomponentlibrary\CyComponentLibrary.cylib\BLE_v2_0\Library\gccCyBLEStack_BLE_SOC_PERIPHERAL.a(bt_fw_os_al.o)
 .debug_frame   0x00013524       0x44 C:\9047software\PSoC Creator\3.3\PSoC Creator\psoc\content\cycomponentlibrary\CyComponentLibrary.cylib\BLE_v2_0\Library\gccCyBLEStack_BLE_SOC_PERIPHERAL.a(bt_fw_os_al.o)
 .debug_frame   0x00013568       0x48 C:\9047software\PSoC Creator\3.3\PSoC Creator\psoc\content\cycomponentlibrary\CyComponentLibrary.cylib\BLE_v2_0\Library\gccCyBLEStack_BLE_SOC_PERIPHERAL.a(bt_fw_os_al.o)
 .debug_frame   0x000135b0       0x48 C:\9047software\PSoC Creator\3.3\PSoC Creator\psoc\content\cycomponentlibrary\CyComponentLibrary.cylib\BLE_v2_0\Library\gccCyBLEStack_BLE_SOC_PERIPHERAL.a(bt_fw_os_al.o)
 .debug_frame   0x000135f8       0x48 C:\9047software\PSoC Creator\3.3\PSoC Creator\psoc\content\cycomponentlibrary\CyComponentLibrary.cylib\BLE_v2_0\Library\gccCyBLEStack_BLE_SOC_PERIPHERAL.a(bt_fw_os_al.o)
 .debug_frame   0x00013640       0x44 C:\9047software\PSoC Creator\3.3\PSoC Creator\psoc\content\cycomponentlibrary\CyComponentLibrary.cylib\BLE_v2_0\Library\gccCyBLEStack_BLE_SOC_PERIPHERAL.a(lec_hci_br_edr_commands.o)
 .debug_frame   0x00013684       0x3c C:\9047software\PSoC Creator\3.3\PSoC Creator\psoc\content\cycomponentlibrary\CyComponentLibrary.cylib\BLE_v2_0\Library\gccCyBLEStack_BLE_SOC_PERIPHERAL.a(lec_hci_br_edr_commands.o)
 .debug_frame   0x000136c0       0x48 C:\9047software\PSoC Creator\3.3\PSoC Creator\psoc\content\cycomponentlibrary\CyComponentLibrary.cylib\BLE_v2_0\Library\gccCyBLEStack_BLE_SOC_PERIPHERAL.a(lec_hci_br_edr_commands.o)
 .debug_frame   0x00013708       0x48 C:\9047software\PSoC Creator\3.3\PSoC Creator\psoc\content\cycomponentlibrary\CyComponentLibrary.cylib\BLE_v2_0\Library\gccCyBLEStack_BLE_SOC_PERIPHERAL.a(lec_hci_br_edr_commands.o)
 .debug_frame   0x00013750       0x44 C:\9047software\PSoC Creator\3.3\PSoC Creator\psoc\content\cycomponentlibrary\CyComponentLibrary.cylib\BLE_v2_0\Library\gccCyBLEStack_BLE_SOC_PERIPHERAL.a(lec_hci_br_edr_commands.o)
 .debug_frame   0x00013794       0x48 C:\9047software\PSoC Creator\3.3\PSoC Creator\psoc\content\cycomponentlibrary\CyComponentLibrary.cylib\BLE_v2_0\Library\gccCyBLEStack_BLE_SOC_PERIPHERAL.a(lec_hci_br_edr_commands.o)
 .debug_frame   0x000137dc       0x48 C:\9047software\PSoC Creator\3.3\PSoC Creator\psoc\content\cycomponentlibrary\CyComponentLibrary.cylib\BLE_v2_0\Library\gccCyBLEStack_BLE_SOC_PERIPHERAL.a(lec_hci_br_edr_commands.o)
 .debug_frame   0x00013824       0x44 C:\9047software\PSoC Creator\3.3\PSoC Creator\psoc\content\cycomponentlibrary\CyComponentLibrary.cylib\BLE_v2_0\Library\gccCyBLEStack_BLE_SOC_PERIPHERAL.a(lec_hci_br_edr_commands.o)
 .debug_frame   0x00013868       0x44 C:\9047software\PSoC Creator\3.3\PSoC Creator\psoc\content\cycomponentlibrary\CyComponentLibrary.cylib\BLE_v2_0\Library\gccCyBLEStack_BLE_SOC_PERIPHERAL.a(lec_hci_br_edr_commands.o)
 .debug_frame   0x000138ac       0x44 C:\9047software\PSoC Creator\3.3\PSoC Creator\psoc\content\cycomponentlibrary\CyComponentLibrary.cylib\BLE_v2_0\Library\gccCyBLEStack_BLE_SOC_PERIPHERAL.a(lec_hci_br_edr_commands.o)
 .debug_frame   0x000138f0       0x48 C:\9047software\PSoC Creator\3.3\PSoC Creator\psoc\content\cycomponentlibrary\CyComponentLibrary.cylib\BLE_v2_0\Library\gccCyBLEStack_BLE_SOC_PERIPHERAL.a(lec_hci_br_edr_commands.o)
 .debug_frame   0x00013938       0x48 C:\9047software\PSoC Creator\3.3\PSoC Creator\psoc\content\cycomponentlibrary\CyComponentLibrary.cylib\BLE_v2_0\Library\gccCyBLEStack_BLE_SOC_PERIPHERAL.a(lec_hci_br_edr_commands.o)
 .debug_frame   0x00013980       0x54 C:\9047software\PSoC Creator\3.3\PSoC Creator\psoc\content\cycomponentlibrary\CyComponentLibrary.cylib\BLE_v2_0\Library\gccCyBLEStack_BLE_SOC_PERIPHERAL.a(lec_hci_br_edr_commands.o)
 .debug_frame   0x000139d4       0x44 C:\9047software\PSoC Creator\3.3\PSoC Creator\psoc\content\cycomponentlibrary\CyComponentLibrary.cylib\BLE_v2_0\Library\gccCyBLEStack_BLE_SOC_PERIPHERAL.a(lec_hci_le_adv_commands.o)
 .debug_frame   0x00013a18       0x44 C:\9047software\PSoC Creator\3.3\PSoC Creator\psoc\content\cycomponentlibrary\CyComponentLibrary.cylib\BLE_v2_0\Library\gccCyBLEStack_BLE_SOC_PERIPHERAL.a(lec_hci_le_adv_commands.o)
 .debug_frame   0x00013a5c       0x44 C:\9047software\PSoC Creator\3.3\PSoC Creator\psoc\content\cycomponentlibrary\CyComponentLibrary.cylib\BLE_v2_0\Library\gccCyBLEStack_BLE_SOC_PERIPHERAL.a(lec_hci_le_adv_commands.o)
 .debug_frame   0x00013aa0       0x44 C:\9047software\PSoC Creator\3.3\PSoC Creator\psoc\content\cycomponentlibrary\CyComponentLibrary.cylib\BLE_v2_0\Library\gccCyBLEStack_BLE_SOC_PERIPHERAL.a(lec_hci_le_adv_commands.o)
 .debug_frame   0x00013ae4       0x3c C:\9047software\PSoC Creator\3.3\PSoC Creator\psoc\content\cycomponentlibrary\CyComponentLibrary.cylib\BLE_v2_0\Library\gccCyBLEStack_BLE_SOC_PERIPHERAL.a(BT_common_pl.o)
 .debug_frame   0x00013b20       0x44 C:\9047software\PSoC Creator\3.3\PSoC Creator\psoc\content\cycomponentlibrary\CyComponentLibrary.cylib\BLE_v2_0\Library\gccCyBLEStack_BLE_SOC_PERIPHERAL.a(BT_common_pl.o)
 .debug_frame   0x00013b64       0x3c C:\9047software\PSoC Creator\3.3\PSoC Creator\psoc\content\cycomponentlibrary\CyComponentLibrary.cylib\BLE_v2_0\Library\gccCyBLEStack_BLE_SOC_PERIPHERAL.a(BT_common_pl.o)
 .debug_frame   0x00013ba0       0x44 C:\9047software\PSoC Creator\3.3\PSoC Creator\psoc\content\cycomponentlibrary\CyComponentLibrary.cylib\BLE_v2_0\Library\gccCyBLEStack_BLE_SOC_PERIPHERAL.a(BT_common_pl.o)
 .debug_frame   0x00013be4       0x3c C:\9047software\PSoC Creator\3.3\PSoC Creator\psoc\content\cycomponentlibrary\CyComponentLibrary.cylib\BLE_v2_0\Library\gccCyBLEStack_BLE_SOC_PERIPHERAL.a(BT_common_pl.o)
 .debug_frame   0x00013c20       0x44 C:\9047software\PSoC Creator\3.3\PSoC Creator\psoc\content\cycomponentlibrary\CyComponentLibrary.cylib\BLE_v2_0\Library\gccCyBLEStack_BLE_SOC_PERIPHERAL.a(BT_common_pl.o)
 .debug_frame   0x00013c64       0x3c C:\9047software\PSoC Creator\3.3\PSoC Creator\psoc\content\cycomponentlibrary\CyComponentLibrary.cylib\BLE_v2_0\Library\gccCyBLEStack_BLE_SOC_PERIPHERAL.a(device_queue_pl.o)
 .debug_frame   0x00013ca0       0x3c C:\9047software\PSoC Creator\3.3\PSoC Creator\psoc\content\cycomponentlibrary\CyComponentLibrary.cylib\BLE_v2_0\Library\gccCyBLEStack_BLE_SOC_PERIPHERAL.a(device_queue_pl.o)
 .debug_frame   0x00013cdc       0x3c C:\9047software\PSoC Creator\3.3\PSoC Creator\psoc\content\cycomponentlibrary\CyComponentLibrary.cylib\BLE_v2_0\Library\gccCyBLEStack_BLE_SOC_PERIPHERAL.a(device_queue_pl.o)
 .debug_frame   0x00013d18       0x3c C:\9047software\PSoC Creator\3.3\PSoC Creator\psoc\content\cycomponentlibrary\CyComponentLibrary.cylib\BLE_v2_0\Library\gccCyBLEStack_BLE_SOC_PERIPHERAL.a(device_queue_pl.o)
 .debug_frame   0x00013d54       0x3c C:\9047software\PSoC Creator\3.3\PSoC Creator\psoc\content\cycomponentlibrary\CyComponentLibrary.cylib\BLE_v2_0\Library\gccCyBLEStack_BLE_SOC_PERIPHERAL.a(device_queue_pl.o)
 .debug_frame   0x00013d90       0x44 C:\9047software\PSoC Creator\3.3\PSoC Creator\psoc\content\cycomponentlibrary\CyComponentLibrary.cylib\BLE_v2_0\Library\gccCyBLEStack_BLE_SOC_PERIPHERAL.a(smp_pl.o)
 .debug_frame   0x00013dd4       0x44 C:\9047software\PSoC Creator\3.3\PSoC Creator\psoc\content\cycomponentlibrary\CyComponentLibrary.cylib\BLE_v2_0\Library\gccCyBLEStack_BLE_SOC_PERIPHERAL.a(smp_pl.o)
 .debug_frame   0x00013e18       0x48 C:\9047software\PSoC Creator\3.3\PSoC Creator\psoc\content\cycomponentlibrary\CyComponentLibrary.cylib\BLE_v2_0\Library\gccCyBLEStack_BLE_SOC_PERIPHERAL.a(smp_pl.o)
 .debug_frame   0x00013e60       0x44 C:\9047software\PSoC Creator\3.3\PSoC Creator\psoc\content\cycomponentlibrary\CyComponentLibrary.cylib\BLE_v2_0\Library\gccCyBLEStack_BLE_SOC_PERIPHERAL.a(smp_pl.o)
 .debug_frame   0x00013ea4       0x48 C:\9047software\PSoC Creator\3.3\PSoC Creator\psoc\content\cycomponentlibrary\CyComponentLibrary.cylib\BLE_v2_0\Library\gccCyBLEStack_BLE_SOC_PERIPHERAL.a(smp_pl.o)
 .debug_frame   0x00013eec       0x48 C:\9047software\PSoC Creator\3.3\PSoC Creator\psoc\content\cycomponentlibrary\CyComponentLibrary.cylib\BLE_v2_0\Library\gccCyBLEStack_BLE_SOC_PERIPHERAL.a(smp_pl.o)
 .debug_frame   0x00013f34       0x3c C:\9047software\PSoC Creator\3.3\PSoC Creator\psoc\content\cycomponentlibrary\CyComponentLibrary.cylib\BLE_v2_0\Library\gccCyBLEStack_BLE_SOC_PERIPHERAL.a(smp_pl.o)
 .debug_frame   0x00013f70       0x48 C:\9047software\PSoC Creator\3.3\PSoC Creator\psoc\content\cycomponentlibrary\CyComponentLibrary.cylib\BLE_v2_0\Library\gccCyBLEStack_BLE_SOC_PERIPHERAL.a(smp_pl.o)
 .debug_frame   0x00013fb8       0x48 C:\9047software\PSoC Creator\3.3\PSoC Creator\psoc\content\cycomponentlibrary\CyComponentLibrary.cylib\BLE_v2_0\Library\gccCyBLEStack_BLE_SOC_PERIPHERAL.a(smp_pl.o)
 .debug_frame   0x00014000       0x44 C:\9047software\PSoC Creator\3.3\PSoC Creator\psoc\content\cycomponentlibrary\CyComponentLibrary.cylib\BLE_v2_0\Library\gccCyBLEStack_BLE_SOC_PERIPHERAL.a(smp_pl.o)
 .debug_frame   0x00014044       0x3c C:\9047software\PSoC Creator\3.3\PSoC Creator\psoc\content\cycomponentlibrary\CyComponentLibrary.cylib\BLE_v2_0\Library\gccCyBLEStack_BLE_SOC_PERIPHERAL.a(smp_pl.o)
 .debug_frame   0x00014080       0x3c C:\9047software\PSoC Creator\3.3\PSoC Creator\psoc\content\cycomponentlibrary\CyComponentLibrary.cylib\BLE_v2_0\Library\gccCyBLEStack_BLE_SOC_PERIPHERAL.a(smp_pl.o)
 .debug_frame   0x000140bc       0x3c C:\9047software\PSoC Creator\3.3\PSoC Creator\psoc\content\cycomponentlibrary\CyComponentLibrary.cylib\BLE_v2_0\Library\gccCyBLEStack_BLE_SOC_PERIPHERAL.a(smp_pl.o)
 .debug_frame   0x000140f8       0x54 C:\9047software\PSoC Creator\3.3\PSoC Creator\psoc\content\cycomponentlibrary\CyComponentLibrary.cylib\BLE_v2_0\Library\gccCyBLEStack_BLE_SOC_PERIPHERAL.a(smp_pl.o)
 .debug_frame   0x0001414c       0x54 C:\9047software\PSoC Creator\3.3\PSoC Creator\psoc\content\cycomponentlibrary\CyComponentLibrary.cylib\BLE_v2_0\Library\gccCyBLEStack_BLE_SOC_PERIPHERAL.a(smp_pl.o)
 .debug_frame   0x000141a0       0x4c C:\9047software\PSoC Creator\3.3\PSoC Creator\psoc\content\cycomponentlibrary\CyComponentLibrary.cylib\BLE_v2_0\Library\gccCyBLEStack_BLE_SOC_PERIPHERAL.a(smp_pl.o)
 .debug_frame   0x000141ec       0x3c C:\9047software\PSoC Creator\3.3\PSoC Creator\psoc\content\cycomponentlibrary\CyComponentLibrary.cylib\BLE_v2_0\Library\gccCyBLEStack_BLE_SOC_PERIPHERAL.a(smp_pl.o)
 .debug_frame   0x00014228       0x44 C:\9047software\PSoC Creator\3.3\PSoC Creator\psoc\content\cycomponentlibrary\CyComponentLibrary.cylib\BLE_v2_0\Library\gccCyBLEStack_BLE_SOC_PERIPHERAL.a(smp_pl.o)
 .debug_frame   0x0001426c       0x48 C:\9047software\PSoC Creator\3.3\PSoC Creator\psoc\content\cycomponentlibrary\CyComponentLibrary.cylib\BLE_v2_0\Library\gccCyBLEStack_BLE_SOC_PERIPHERAL.a(smp_pl.o)
 .debug_frame   0x000142b4       0x44 C:\9047software\PSoC Creator\3.3\PSoC Creator\psoc\content\cycomponentlibrary\CyComponentLibrary.cylib\BLE_v2_0\Library\gccCyBLEStack_BLE_SOC_PERIPHERAL.a(smp_pl.o)
 .debug_frame   0x000142f8       0x44 C:\9047software\PSoC Creator\3.3\PSoC Creator\psoc\content\cycomponentlibrary\CyComponentLibrary.cylib\BLE_v2_0\Library\gccCyBLEStack_BLE_SOC_PERIPHERAL.a(smp_pl.o)
 .debug_frame   0x0001433c       0x44 C:\9047software\PSoC Creator\3.3\PSoC Creator\psoc\content\cycomponentlibrary\CyComponentLibrary.cylib\BLE_v2_0\Library\gccCyBLEStack_BLE_SOC_PERIPHERAL.a(smp_pl.o)
 .debug_frame   0x00014380       0x44 C:\9047software\PSoC Creator\3.3\PSoC Creator\psoc\content\cycomponentlibrary\CyComponentLibrary.cylib\BLE_v2_0\Library\gccCyBLEStack_BLE_SOC_PERIPHERAL.a(smp_pl.o)
 .debug_frame   0x000143c4       0x48 C:\9047software\PSoC Creator\3.3\PSoC Creator\psoc\content\cycomponentlibrary\CyComponentLibrary.cylib\BLE_v2_0\Library\gccCyBLEStack_BLE_SOC_PERIPHERAL.a(l2cap_data_recv.o)
 .debug_frame   0x0001440c       0x44 C:\9047software\PSoC Creator\3.3\PSoC Creator\psoc\content\cycomponentlibrary\CyComponentLibrary.cylib\BLE_v2_0\Library\gccCyBLEStack_BLE_SOC_PERIPHERAL.a(l2cap_data_recv.o)
 .debug_frame   0x00014450       0x48 C:\9047software\PSoC Creator\3.3\PSoC Creator\psoc\content\cycomponentlibrary\CyComponentLibrary.cylib\BLE_v2_0\Library\gccCyBLEStack_BLE_SOC_PERIPHERAL.a(l2cap_data_recv.o)
 .debug_frame   0x00014498       0x54 C:\9047software\PSoC Creator\3.3\PSoC Creator\psoc\content\cycomponentlibrary\CyComponentLibrary.cylib\BLE_v2_0\Library\gccCyBLEStack_BLE_SOC_PERIPHERAL.a(l2cap_data_recv.o)
 .debug_frame   0x000144ec       0x48 C:\9047software\PSoC Creator\3.3\PSoC Creator\psoc\content\cycomponentlibrary\CyComponentLibrary.cylib\BLE_v2_0\Library\gccCyBLEStack_BLE_SOC_PERIPHERAL.a(gattDbInternal.o)
 .debug_frame   0x00014534       0x50 C:\9047software\PSoC Creator\3.3\PSoC Creator\psoc\content\cycomponentlibrary\CyComponentLibrary.cylib\BLE_v2_0\Library\gccCyBLEStack_BLE_SOC_PERIPHERAL.a(gattDbInternal.o)
 .debug_frame   0x00014584       0x4c C:\9047software\PSoC Creator\3.3\PSoC Creator\psoc\content\cycomponentlibrary\CyComponentLibrary.cylib\BLE_v2_0\Library\gccCyBLEStack_BLE_SOC_PERIPHERAL.a(gattDbInternal.o)
 .debug_frame   0x000145d0       0x4c C:\9047software\PSoC Creator\3.3\PSoC Creator\psoc\content\cycomponentlibrary\CyComponentLibrary.cylib\BLE_v2_0\Library\gccCyBLEStack_BLE_SOC_PERIPHERAL.a(gattDbInternal.o)
 .debug_frame   0x0001461c       0x4c C:\9047software\PSoC Creator\3.3\PSoC Creator\psoc\content\cycomponentlibrary\CyComponentLibrary.cylib\BLE_v2_0\Library\gccCyBLEStack_BLE_SOC_PERIPHERAL.a(gattDbInternal.o)
 .debug_frame   0x00014668       0x4c C:\9047software\PSoC Creator\3.3\PSoC Creator\psoc\content\cycomponentlibrary\CyComponentLibrary.cylib\BLE_v2_0\Library\gccCyBLEStack_BLE_SOC_PERIPHERAL.a(gattDbInternal.o)
 .debug_frame   0x000146b4       0x4c C:\9047software\PSoC Creator\3.3\PSoC Creator\psoc\content\cycomponentlibrary\CyComponentLibrary.cylib\BLE_v2_0\Library\gccCyBLEStack_BLE_SOC_PERIPHERAL.a(gattDbInternal.o)
 .debug_frame   0x00014700       0x4c C:\9047software\PSoC Creator\3.3\PSoC Creator\psoc\content\cycomponentlibrary\CyComponentLibrary.cylib\BLE_v2_0\Library\gccCyBLEStack_BLE_SOC_PERIPHERAL.a(gattDbInternal.o)
 .debug_frame   0x0001474c       0x4c C:\9047software\PSoC Creator\3.3\PSoC Creator\psoc\content\cycomponentlibrary\CyComponentLibrary.cylib\BLE_v2_0\Library\gccCyBLEStack_BLE_SOC_PERIPHERAL.a(gattDbInternal.o)
 .debug_frame   0x00014798       0x50 C:\9047software\PSoC Creator\3.3\PSoC Creator\psoc\content\cycomponentlibrary\CyComponentLibrary.cylib\BLE_v2_0\Library\gccCyBLEStack_BLE_SOC_PERIPHERAL.a(gattDbInternal.o)
 .debug_frame   0x000147e8       0x50 C:\9047software\PSoC Creator\3.3\PSoC Creator\psoc\content\cycomponentlibrary\CyComponentLibrary.cylib\BLE_v2_0\Library\gccCyBLEStack_BLE_SOC_PERIPHERAL.a(gattDbInternal.o)
 .debug_frame   0x00014838       0x3c C:\9047software\PSoC Creator\3.3\PSoC Creator\psoc\content\cycomponentlibrary\CyComponentLibrary.cylib\BLE_v2_0\Library\gccCyBLEStack_BLE_SOC_PERIPHERAL.a(gattDbInternal.o)
 .debug_frame   0x00014874       0x50 C:\9047software\PSoC Creator\3.3\PSoC Creator\psoc\content\cycomponentlibrary\CyComponentLibrary.cylib\BLE_v2_0\Library\gccCyBLEStack_BLE_SOC_PERIPHERAL.a(hci_command_queue.o)
 .debug_frame   0x000148c4       0x44 C:\9047software\PSoC Creator\3.3\PSoC Creator\psoc\content\cycomponentlibrary\CyComponentLibrary.cylib\BLE_v2_0\Library\gccCyBLEStack_BLE_SOC_PERIPHERAL.a(hci_command_queue.o)
 .debug_frame   0x00014908       0x4c C:\9047software\PSoC Creator\3.3\PSoC Creator\psoc\content\cycomponentlibrary\CyComponentLibrary.cylib\BLE_v2_0\Library\gccCyBLEStack_BLE_SOC_PERIPHERAL.a(hci_command_queue.o)
 .debug_frame   0x00014954       0x44 C:\9047software\PSoC Creator\3.3\PSoC Creator\psoc\content\cycomponentlibrary\CyComponentLibrary.cylib\BLE_v2_0\Library\gccCyBLEStack_BLE_SOC_PERIPHERAL.a(hci_connect.o)
 .debug_frame   0x00014998       0x4c C:\9047software\PSoC Creator\3.3\PSoC Creator\psoc\content\cycomponentlibrary\CyComponentLibrary.cylib\BLE_v2_0\Library\gccCyBLEStack_BLE_SOC_PERIPHERAL.a(hci_connect.o)
 .debug_frame   0x000149e4       0x44 C:\9047software\PSoC Creator\3.3\PSoC Creator\psoc\content\cycomponentlibrary\CyComponentLibrary.cylib\BLE_v2_0\Library\gccCyBLEStack_BLE_SOC_PERIPHERAL.a(hci_connect.o)
 .debug_frame   0x00014a28       0x48 C:\9047software\PSoC Creator\3.3\PSoC Creator\psoc\content\cycomponentlibrary\CyComponentLibrary.cylib\BLE_v2_0\Library\gccCyBLEStack_BLE_SOC_PERIPHERAL.a(hci_disconnect.o)
 .debug_frame   0x00014a70       0x54 C:\9047software\PSoC Creator\3.3\PSoC Creator\psoc\content\cycomponentlibrary\CyComponentLibrary.cylib\BLE_v2_0\Library\gccCyBLEStack_BLE_SOC_PERIPHERAL.a(smp_fsm_handlers.o)
 .debug_frame   0x00014ac4       0x3c C:\9047software\PSoC Creator\3.3\PSoC Creator\psoc\content\cycomponentlibrary\CyComponentLibrary.cylib\BLE_v2_0\Library\gccCyBLEStack_BLE_SOC_PERIPHERAL.a(smp_fsm_handlers.o)
 .debug_frame   0x00014b00       0x4c C:\9047software\PSoC Creator\3.3\PSoC Creator\psoc\content\cycomponentlibrary\CyComponentLibrary.cylib\BLE_v2_0\Library\gccCyBLEStack_BLE_SOC_PERIPHERAL.a(smp_fsm_handlers.o)
 .debug_frame   0x00014b4c       0x4c C:\9047software\PSoC Creator\3.3\PSoC Creator\psoc\content\cycomponentlibrary\CyComponentLibrary.cylib\BLE_v2_0\Library\gccCyBLEStack_BLE_SOC_PERIPHERAL.a(smp_fsm_handlers.o)
 .debug_frame   0x00014b98       0x4c C:\9047software\PSoC Creator\3.3\PSoC Creator\psoc\content\cycomponentlibrary\CyComponentLibrary.cylib\BLE_v2_0\Library\gccCyBLEStack_BLE_SOC_PERIPHERAL.a(smp_fsm_handlers.o)
 .debug_frame   0x00014be4       0x48 C:\9047software\PSoC Creator\3.3\PSoC Creator\psoc\content\cycomponentlibrary\CyComponentLibrary.cylib\BLE_v2_0\Library\gccCyBLEStack_BLE_SOC_PERIPHERAL.a(smp_fsm_handlers.o)
 .debug_frame   0x00014c2c       0x4c C:\9047software\PSoC Creator\3.3\PSoC Creator\psoc\content\cycomponentlibrary\CyComponentLibrary.cylib\BLE_v2_0\Library\gccCyBLEStack_BLE_SOC_PERIPHERAL.a(smp_fsm_handlers.o)
 .debug_frame   0x00014c78       0x4c C:\9047software\PSoC Creator\3.3\PSoC Creator\psoc\content\cycomponentlibrary\CyComponentLibrary.cylib\BLE_v2_0\Library\gccCyBLEStack_BLE_SOC_PERIPHERAL.a(smp_fsm_handlers.o)
 .debug_frame   0x00014cc4       0x44 C:\9047software\PSoC Creator\3.3\PSoC Creator\psoc\content\cycomponentlibrary\CyComponentLibrary.cylib\BLE_v2_0\Library\gccCyBLEStack_BLE_SOC_PERIPHERAL.a(smp_fsm_handlers.o)
 .debug_frame   0x00014d08       0x44 C:\9047software\PSoC Creator\3.3\PSoC Creator\psoc\content\cycomponentlibrary\CyComponentLibrary.cylib\BLE_v2_0\Library\gccCyBLEStack_BLE_SOC_PERIPHERAL.a(smp_fsm_handlers.o)
 .debug_frame   0x00014d4c       0x48 C:\9047software\PSoC Creator\3.3\PSoC Creator\psoc\content\cycomponentlibrary\CyComponentLibrary.cylib\BLE_v2_0\Library\gccCyBLEStack_BLE_SOC_PERIPHERAL.a(smp_fsm_handlers.o)
 .debug_frame   0x00014d94       0x4c C:\9047software\PSoC Creator\3.3\PSoC Creator\psoc\content\cycomponentlibrary\CyComponentLibrary.cylib\BLE_v2_0\Library\gccCyBLEStack_BLE_SOC_PERIPHERAL.a(smp_fsm_handlers.o)
 .debug_frame   0x00014de0       0x44 C:\9047software\PSoC Creator\3.3\PSoC Creator\psoc\content\cycomponentlibrary\CyComponentLibrary.cylib\BLE_v2_0\Library\gccCyBLEStack_BLE_SOC_PERIPHERAL.a(smp_fsm_handlers.o)
 .debug_frame   0x00014e24       0x4c C:\9047software\PSoC Creator\3.3\PSoC Creator\psoc\content\cycomponentlibrary\CyComponentLibrary.cylib\BLE_v2_0\Library\gccCyBLEStack_BLE_SOC_PERIPHERAL.a(smp_fsm_handlers.o)
 .debug_frame   0x00014e70       0x4c C:\9047software\PSoC Creator\3.3\PSoC Creator\psoc\content\cycomponentlibrary\CyComponentLibrary.cylib\BLE_v2_0\Library\gccCyBLEStack_BLE_SOC_PERIPHERAL.a(smp_fsm_handlers.o)
 .debug_frame   0x00014ebc       0x50 C:\9047software\PSoC Creator\3.3\PSoC Creator\psoc\content\cycomponentlibrary\CyComponentLibrary.cylib\BLE_v2_0\Library\gccCyBLEStack_BLE_SOC_PERIPHERAL.a(smp_fsm_handlers.o)
 .debug_frame   0x00014f0c       0x44 C:\9047software\PSoC Creator\3.3\PSoC Creator\psoc\content\cycomponentlibrary\CyComponentLibrary.cylib\BLE_v2_0\Library\gccCyBLEStack_BLE_SOC_PERIPHERAL.a(smp_fsm_handlers.o)
 .debug_frame   0x00014f50       0x3c C:\9047software\PSoC Creator\3.3\PSoC Creator\psoc\content\cycomponentlibrary\CyComponentLibrary.cylib\BLE_v2_0\Library\gccCyBLEStack_BLE_SOC_PERIPHERAL.a(smp_fsm_handlers.o)
 .debug_frame   0x00014f8c       0x44 C:\9047software\PSoC Creator\3.3\PSoC Creator\psoc\content\cycomponentlibrary\CyComponentLibrary.cylib\BLE_v2_0\Library\gccCyBLEStack_BLE_SOC_PERIPHERAL.a(att_fsm_handlers.o)
 .debug_frame   0x00014fd0       0x48 C:\9047software\PSoC Creator\3.3\PSoC Creator\psoc\content\cycomponentlibrary\CyComponentLibrary.cylib\BLE_v2_0\Library\gccCyBLEStack_BLE_SOC_PERIPHERAL.a(att_fsm_handlers.o)
 .debug_frame   0x00015018       0x44 C:\9047software\PSoC Creator\3.3\PSoC Creator\psoc\content\cycomponentlibrary\CyComponentLibrary.cylib\BLE_v2_0\Library\gccCyBLEStack_BLE_SOC_PERIPHERAL.a(att_fsm_handlers.o)
 .debug_frame   0x0001505c       0x44 C:\9047software\PSoC Creator\3.3\PSoC Creator\psoc\content\cycomponentlibrary\CyComponentLibrary.cylib\BLE_v2_0\Library\gccCyBLEStack_BLE_SOC_PERIPHERAL.a(att_fsm_handlers.o)
 .debug_frame   0x000150a0       0x4c C:\9047software\PSoC Creator\3.3\PSoC Creator\psoc\content\cycomponentlibrary\CyComponentLibrary.cylib\BLE_v2_0\Library\gccCyBLEStack_BLE_SOC_PERIPHERAL.a(att_fsm_handlers.o)
 .debug_frame   0x000150ec       0x44 C:\9047software\PSoC Creator\3.3\PSoC Creator\psoc\content\cycomponentlibrary\CyComponentLibrary.cylib\BLE_v2_0\Library\gccCyBLEStack_BLE_SOC_PERIPHERAL.a(att_fsm_handlers.o)
 .debug_frame   0x00015130       0x44 C:\9047software\PSoC Creator\3.3\PSoC Creator\psoc\content\cycomponentlibrary\CyComponentLibrary.cylib\BLE_v2_0\Library\gccCyBLEStack_BLE_SOC_PERIPHERAL.a(att_fsm_handlers.o)
 .debug_frame   0x00015174       0x4c C:\9047software\PSoC Creator\3.3\PSoC Creator\psoc\content\cycomponentlibrary\CyComponentLibrary.cylib\BLE_v2_0\Library\gccCyBLEStack_BLE_SOC_PERIPHERAL.a(l2cap_connect.o)
 .debug_frame   0x000151c0      0x1a0 .\CortexM0\ARM_GCC_493\Debug\BLE Lab 3.a(BLE_HAL_PVT.o)
 .debug_frame   0x00015360      0x190 .\CortexM0\ARM_GCC_493\Debug\BLE Lab 3.a(BLE_bless_isr.o)
 .debug_frame   0x000154f0       0xb8 .\CortexM0\ARM_GCC_493\Debug\BLE Lab 3.a(CyFlash.o)
 .debug_frame   0x000155a8       0x2c .\CortexM0\ARM_GCC_493\Debug\BLE Lab 3.a(BLE_HAL_INT.o)
 .debug_frame   0x000155d4       0x44 C:\9047software\PSoC Creator\3.3\PSoC Creator\psoc\content\cycomponentlibrary\CyComponentLibrary.cylib\BLE_v2_0\Library\gccCyBLEStack_BLE_SOC_PERIPHERAL.a(ll_isr.o)
 .debug_frame   0x00015618       0x20 c:/9047software/psoc creator/3.3/psoc creator/import/gnu/arm/4.9.3/bin/../lib/gcc/arm-none-eabi/4.9.3/armv6-m\libgcc.a(_udivsi3.o)
 .debug_frame   0x00015638       0x20 c:/9047software/psoc creator/3.3/psoc creator/import/gnu/arm/4.9.3/bin/../lib/gcc/arm-none-eabi/4.9.3/armv6-m\libgcc.a(_divsi3.o)
 .debug_frame   0x00015658       0x34 c:/9047software/psoc creator/3.3/psoc creator/import/gnu/arm/4.9.3/bin/../lib/gcc/arm-none-eabi/4.9.3/armv6-m\libgcc.a(_muldi3.o)
 .debug_frame   0x0001568c       0x50 c:/9047software/psoc creator/3.3/psoc creator/import/gnu/arm/4.9.3/bin/../lib/gcc/arm-none-eabi/4.9.3/armv6-m\libgcc.a(bpabi.o)
 .debug_frame   0x000156dc       0x3c c:/9047software/psoc creator/3.3/psoc creator/import/gnu/arm/4.9.3/bin/../lib/gcc/arm-none-eabi/4.9.3/armv6-m\libgcc.a(divsf3.o)
 .debug_frame   0x00015718       0x3c c:/9047software/psoc creator/3.3/psoc creator/import/gnu/arm/4.9.3/bin/../lib/gcc/arm-none-eabi/4.9.3/armv6-m\libgcc.a(mulsf3.o)
 .debug_frame   0x00015754       0x2c c:/9047software/psoc creator/3.3/psoc creator/import/gnu/arm/4.9.3/bin/../lib/gcc/arm-none-eabi/4.9.3/armv6-m\libgcc.a(floatsisf.o)
 .debug_frame   0x00015780       0x3c c:/9047software/psoc creator/3.3/psoc creator/import/gnu/arm/4.9.3/bin/../lib/gcc/arm-none-eabi/4.9.3/armv6-m\libgcc.a(_divdi3.o)
 .debug_frame   0x000157bc       0x3c c:/9047software/psoc creator/3.3/psoc creator/import/gnu/arm/4.9.3/bin/../lib/gcc/arm-none-eabi/4.9.3/armv6-m\libgcc.a(_udivdi3.o)
 .debug_frame   0x000157f8       0x20 c:/9047software/psoc creator/3.3/psoc creator/import/gnu/arm/4.9.3/bin/../lib/gcc/arm-none-eabi/4.9.3/../../../../arm-none-eabi/lib/armv6-m\libg_nano.a(lib_a-errno.o)
 .debug_frame   0x00015818       0x28 c:/9047software/psoc creator/3.3/psoc creator/import/gnu/arm/4.9.3/bin/../lib/gcc/arm-none-eabi/4.9.3/../../../../arm-none-eabi/lib/armv6-m\libg_nano.a(lib_a-exit.o)
 .debug_frame   0x00015840       0x2c c:/9047software/psoc creator/3.3/psoc creator/import/gnu/arm/4.9.3/bin/../lib/gcc/arm-none-eabi/4.9.3/../../../../arm-none-eabi/lib/armv6-m\libg_nano.a(lib_a-init.o)
 .debug_frame   0x0001586c       0x2c c:/9047software/psoc creator/3.3/psoc creator/import/gnu/arm/4.9.3/bin/../lib/gcc/arm-none-eabi/4.9.3/../../../../arm-none-eabi/lib/armv6-m\libg_nano.a(lib_a-memcmp.o)
 .debug_frame   0x00015898       0x28 c:/9047software/psoc creator/3.3/psoc creator/import/gnu/arm/4.9.3/bin/../lib/gcc/arm-none-eabi/4.9.3/../../../../arm-none-eabi/lib/armv6-m\libg_nano.a(lib_a-memcpy.o)
 .debug_frame   0x000158c0       0x20 c:/9047software/psoc creator/3.3/psoc creator/import/gnu/arm/4.9.3/bin/../lib/gcc/arm-none-eabi/4.9.3/../../../../arm-none-eabi/lib/armv6-m\libg_nano.a(lib_a-memset.o)

.debug_str      0x00000000     0x6452
 *(.debug_str)
 .debug_str     0x00000000      0x2fd .\CortexM0\ARM_GCC_493\Debug\main.o
                                0x336 (size before relaxing)
 .debug_str     0x000002fd      0x87e .\CortexM0\ARM_GCC_493\Debug\HeartRateProcessing.o
                                0xa01 (size before relaxing)
 .debug_str     0x00000b7b     0x2321 .\CortexM0\ARM_GCC_493\Debug\BleProcessing.o
                               0x2cbc (size before relaxing)
 .debug_str     0x00002e9c       0x65 .\CortexM0\ARM_GCC_493\Debug\WatchdogTimer.o
                                0x9d7 (size before relaxing)
 .debug_str     0x00002f01       0x5b .\CortexM0\ARM_GCC_493\Debug\cymetadata.o
                                0x1cb (size before relaxing)
 .debug_str     0x00002f5c      0x12e .\CortexM0\ARM_GCC_493\Debug\Cm0Start.o
                                0x2bf (size before relaxing)
 .debug_str     0x0000308a      0x11d .\CortexM0\ARM_GCC_493\Debug\BLE Lab 3.a(cyfitter_cfg.o)
                                0x2d8 (size before relaxing)
 .debug_str     0x000031a7       0xa8 .\CortexM0\ARM_GCC_493\Debug\BLE Lab 3.a(SW2_Switch.o)
                                0x222 (size before relaxing)
 .debug_str     0x0000324f      0x155 .\CortexM0\ARM_GCC_493\Debug\BLE Lab 3.a(Wakeup_ISR.o)
                                0x2f4 (size before relaxing)
 .debug_str     0x000033a4       0xd2 .\CortexM0\ARM_GCC_493\Debug\BLE Lab 3.a(Led_Advertising_Green.o)
                                0x264 (size before relaxing)
 .debug_str     0x00003476       0xc0 .\CortexM0\ARM_GCC_493\Debug\BLE Lab 3.a(Led_Connected_Blue.o)
                                0x252 (size before relaxing)
 .debug_str     0x00003536      0xc3c .\CortexM0\ARM_GCC_493\Debug\BLE Lab 3.a(BLE_hrs.o)
                               0x37b2 (size before relaxing)
 .debug_str     0x00004172      0x456 .\CortexM0\ARM_GCC_493\Debug\BLE Lab 3.a(BLE.o)
                               0x1356 (size before relaxing)
 .debug_str     0x000045c8       0xe9 .\CortexM0\ARM_GCC_493\Debug\BLE Lab 3.a(BLE_gatt.o)
                               0x366d (size before relaxing)
 .debug_str     0x000046b1      0xa79 .\CortexM0\ARM_GCC_493\Debug\BLE Lab 3.a(BLE_eventHandler.o)
                               0x1b34 (size before relaxing)
 .debug_str     0x0000512a       0xc0 .\CortexM0\ARM_GCC_493\Debug\BLE Lab 3.a(BLE_dis.o)
                               0x132b (size before relaxing)
 .debug_str     0x000051ea       0x9f .\CortexM0\ARM_GCC_493\Debug\BLE Lab 3.a(Opamp.o)
                                0x213 (size before relaxing)
 .debug_str     0x00005289      0x1d8 .\CortexM0\ARM_GCC_493\Debug\BLE Lab 3.a(ADC.o)
                                0x384 (size before relaxing)
 .debug_str     0x00005461       0x81 .\CortexM0\ARM_GCC_493\Debug\BLE Lab 3.a(ADC_PM.o)
                                0x1fe (size before relaxing)
 .debug_str     0x000054e2       0x37 .\CortexM0\ARM_GCC_493\Debug\BLE Lab 3.a(ADC_INT.o)
                                0x1ae (size before relaxing)
 .debug_str     0x00005519      0x4a4 .\CortexM0\ARM_GCC_493\Debug\BLE Lab 3.a(CyLib.o)
                                0x66c (size before relaxing)
 .debug_str     0x000059bd       0xc8 .\CortexM0\ARM_GCC_493\Debug\BLE Lab 3.a(cyPm.o)
                                0x262 (size before relaxing)
 .debug_str     0x00005a85      0x52c .\CortexM0\ARM_GCC_493\Debug\BLE Lab 3.a(CyLFClk.o)
                                0x6dd (size before relaxing)
 .debug_str     0x00005fb1      0x1ed .\CortexM0\ARM_GCC_493\Debug\BLE Lab 3.a(BLE_HAL_PVT.o)
                                0x388 (size before relaxing)
 .debug_str     0x0000619e      0x158 .\CortexM0\ARM_GCC_493\Debug\BLE Lab 3.a(BLE_bless_isr.o)
                                0x31e (size before relaxing)
 .debug_str     0x000062f6      0x11f .\CortexM0\ARM_GCC_493\Debug\BLE Lab 3.a(CyFlash.o)
                                0x2cb (size before relaxing)
 .debug_str     0x00006415       0x3d .\CortexM0\ARM_GCC_493\Debug\BLE Lab 3.a(BLE_HAL_INT.o)
                                0x1a7 (size before relaxing)

.debug_loc
 *(.debug_loc)

.debug_macinfo
 *(.debug_macinfo)

.debug_ranges   0x00000000      0x868
 *(.debug_ranges)
 .debug_ranges  0x00000000       0x18 .\CortexM0\ARM_GCC_493\Debug\main.o
 .debug_ranges  0x00000018       0x10 .\CortexM0\ARM_GCC_493\Debug\HeartRateProcessing.o
 .debug_ranges  0x00000028       0x20 .\CortexM0\ARM_GCC_493\Debug\BleProcessing.o
 .debug_ranges  0x00000048       0x20 .\CortexM0\ARM_GCC_493\Debug\WatchdogTimer.o
 .debug_ranges  0x00000068       0x38 .\CortexM0\ARM_GCC_493\Debug\Cm0Start.o
 .debug_ranges  0x000000a0       0x48 .\CortexM0\ARM_GCC_493\Debug\BLE Lab 3.a(cyfitter_cfg.o)
 .debug_ranges  0x000000e8       0x30 .\CortexM0\ARM_GCC_493\Debug\BLE Lab 3.a(SW2_Switch.o)
 .debug_ranges  0x00000118       0x70 .\CortexM0\ARM_GCC_493\Debug\BLE Lab 3.a(Wakeup_ISR.o)
 .debug_ranges  0x00000188       0x30 .\CortexM0\ARM_GCC_493\Debug\BLE Lab 3.a(Led_Advertising_Green.o)
 .debug_ranges  0x000001b8       0x30 .\CortexM0\ARM_GCC_493\Debug\BLE Lab 3.a(Led_Connected_Blue.o)
 .debug_ranges  0x000001e8       0x40 .\CortexM0\ARM_GCC_493\Debug\BLE Lab 3.a(BLE_hrs.o)
 .debug_ranges  0x00000228       0x68 .\CortexM0\ARM_GCC_493\Debug\BLE Lab 3.a(BLE.o)
 .debug_ranges  0x00000290       0x18 .\CortexM0\ARM_GCC_493\Debug\BLE Lab 3.a(BLE_gatt.o)
 .debug_ranges  0x000002a8       0x50 .\CortexM0\ARM_GCC_493\Debug\BLE Lab 3.a(BLE_eventHandler.o)
 .debug_ranges  0x000002f8       0x28 .\CortexM0\ARM_GCC_493\Debug\BLE Lab 3.a(BLE_dis.o)
 .debug_ranges  0x00000320       0x38 .\CortexM0\ARM_GCC_493\Debug\BLE Lab 3.a(Opamp.o)
 .debug_ranges  0x00000358       0x98 .\CortexM0\ARM_GCC_493\Debug\BLE Lab 3.a(ADC.o)
 .debug_ranges  0x000003f0       0x28 .\CortexM0\ARM_GCC_493\Debug\BLE Lab 3.a(ADC_PM.o)
 .debug_ranges  0x00000418       0x10 .\CortexM0\ARM_GCC_493\Debug\BLE Lab 3.a(ADC_INT.o)
 .debug_ranges  0x00000428      0x188 .\CortexM0\ARM_GCC_493\Debug\BLE Lab 3.a(CyLib.o)
 .debug_ranges  0x000005b0       0x48 .\CortexM0\ARM_GCC_493\Debug\BLE Lab 3.a(cyPm.o)
 .debug_ranges  0x000005f8      0x150 .\CortexM0\ARM_GCC_493\Debug\BLE Lab 3.a(CyLFClk.o)
 .debug_ranges  0x00000748       0x70 .\CortexM0\ARM_GCC_493\Debug\BLE Lab 3.a(BLE_HAL_PVT.o)
 .debug_ranges  0x000007b8       0x70 .\CortexM0\ARM_GCC_493\Debug\BLE Lab 3.a(BLE_bless_isr.o)
 .debug_ranges  0x00000828       0x30 .\CortexM0\ARM_GCC_493\Debug\BLE Lab 3.a(CyFlash.o)
 .debug_ranges  0x00000858       0x10 .\CortexM0\ARM_GCC_493\Debug\BLE Lab 3.a(BLE_HAL_INT.o)

.comment        0x00000000    0x1c6c4
 .comment       0x00000000       0x70 .\CortexM0\ARM_GCC_493\Debug\main.o
                                 0x71 (size before relaxing)
 .comment       0x00000000       0x71 .\CortexM0\ARM_GCC_493\Debug\HeartRateProcessing.o
 .comment       0x00000000       0x71 .\CortexM0\ARM_GCC_493\Debug\BleProcessing.o
 .comment       0x00000000       0x71 .\CortexM0\ARM_GCC_493\Debug\WatchdogTimer.o
 .comment       0x00000000       0x71 .\CortexM0\ARM_GCC_493\Debug\cymetadata.o
 .comment       0x00000000       0x71 .\CortexM0\ARM_GCC_493\Debug\Cm0Start.o
 .comment       0x00000000       0x71 .\CortexM0\ARM_GCC_493\Debug\BLE Lab 3.a(cyfitter_cfg.o)
 .comment       0x00000000       0x71 .\CortexM0\ARM_GCC_493\Debug\BLE Lab 3.a(SW2_Switch.o)
 .comment       0x00000000       0x71 .\CortexM0\ARM_GCC_493\Debug\BLE Lab 3.a(Wakeup_ISR.o)
 .comment       0x00000000       0x71 .\CortexM0\ARM_GCC_493\Debug\BLE Lab 3.a(Led_Advertising_Green.o)
 .comment       0x00000000       0x71 .\CortexM0\ARM_GCC_493\Debug\BLE Lab 3.a(Led_Connected_Blue.o)
 .comment       0x00000000       0x71 .\CortexM0\ARM_GCC_493\Debug\BLE Lab 3.a(BLE_hrs.o)
 .comment       0x00000000       0x71 .\CortexM0\ARM_GCC_493\Debug\BLE Lab 3.a(BLE.o)
 .comment       0x00000000       0x71 .\CortexM0\ARM_GCC_493\Debug\BLE Lab 3.a(BLE_gatt.o)
 .comment       0x00000000       0x71 .\CortexM0\ARM_GCC_493\Debug\BLE Lab 3.a(BLE_eventHandler.o)
 .comment       0x00000000       0x71 .\CortexM0\ARM_GCC_493\Debug\BLE Lab 3.a(BLE_dis.o)
 .comment       0x00000000       0x71 .\CortexM0\ARM_GCC_493\Debug\BLE Lab 3.a(Opamp.o)
 .comment       0x00000000       0x71 .\CortexM0\ARM_GCC_493\Debug\BLE Lab 3.a(ADC.o)
 .comment       0x00000000       0x71 .\CortexM0\ARM_GCC_493\Debug\BLE Lab 3.a(ADC_PM.o)
 .comment       0x00000000       0x71 .\CortexM0\ARM_GCC_493\Debug\BLE Lab 3.a(ADC_INT.o)
 .comment       0x00000000       0x71 .\CortexM0\ARM_GCC_493\Debug\BLE Lab 3.a(CyLib.o)
 .comment       0x00000000       0x71 .\CortexM0\ARM_GCC_493\Debug\BLE Lab 3.a(cyPm.o)
 .comment       0x00000000       0x71 .\CortexM0\ARM_GCC_493\Debug\BLE Lab 3.a(CyLFClk.o)
 .comment       0x00000070      0x228 C:\9047software\PSoC Creator\3.3\PSoC Creator\psoc\content\cycomponentlibrary\CyComponentLibrary.cylib\BLE_v2_0\Library\gccCyBLEStack_BLE_SOC_PERIPHERAL.a(CyBle.o)
 .comment       0x00000298      0x35b C:\9047software\PSoC Creator\3.3\PSoC Creator\psoc\content\cycomponentlibrary\CyComponentLibrary.cylib\BLE_v2_0\Library\gccCyBLEStack_BLE_SOC_PERIPHERAL.a(CyBleStackMgrIP_Interface.o)
 .comment       0x000005f3      0x338 C:\9047software\PSoC Creator\3.3\PSoC Creator\psoc\content\cycomponentlibrary\CyComponentLibrary.cylib\BLE_v2_0\Library\gccCyBLEStack_BLE_SOC_PERIPHERAL.a(BT_os.o)
 .comment       0x0000092b      0x36a C:\9047software\PSoC Creator\3.3\PSoC Creator\psoc\content\cycomponentlibrary\CyComponentLibrary.cylib\BLE_v2_0\Library\gccCyBLEStack_BLE_SOC_PERIPHERAL.a(CyBleStackMgr_StackTaskHandler.o)
 .comment       0x00000c95      0x346 C:\9047software\PSoC Creator\3.3\PSoC Creator\psoc\content\cycomponentlibrary\CyComponentLibrary.cylib\BLE_v2_0\Library\gccCyBLEStack_BLE_SOC_PERIPHERAL.a(transport_sf.o)
 .comment       0x00000fdb      0x35f C:\9047software\PSoC Creator\3.3\PSoC Creator\psoc\content\cycomponentlibrary\CyComponentLibrary.cylib\BLE_v2_0\Library\gccCyBLEStack_BLE_SOC_PERIPHERAL.a(CyBleStackMgr_PSoCHal.o)
 .comment       0x0000133a      0x367 C:\9047software\PSoC Creator\3.3\PSoC Creator\psoc\content\cycomponentlibrary\CyComponentLibrary.cylib\BLE_v2_0\Library\gccCyBLEStack_BLE_SOC_PERIPHERAL.a(CyBleStackMgr_BleSSDriver.o)
 .comment       0x000016a1      0x349 C:\9047software\PSoC Creator\3.3\PSoC Creator\psoc\content\cycomponentlibrary\CyComponentLibrary.cylib\BLE_v2_0\Library\gccCyBLEStack_BLE_SOC_PERIPHERAL.a(config_bin.o)
 .comment       0x000019ea      0x342 C:\9047software\PSoC Creator\3.3\PSoC Creator\psoc\content\cycomponentlibrary\CyComponentLibrary.cylib\BLE_v2_0\Library\gccCyBLEStack_BLE_SOC_PERIPHERAL.a(mint_os.o)
 .comment       0x00001d2c      0x34e C:\9047software\PSoC Creator\3.3\PSoC Creator\psoc\content\cycomponentlibrary\CyComponentLibrary.cylib\BLE_v2_0\Library\gccCyBLEStack_BLE_SOC_PERIPHERAL.a(mint_os_queue.o)
 .comment       0x0000207a      0x34c C:\9047software\PSoC Creator\3.3\PSoC Creator\psoc\content\cycomponentlibrary\CyComponentLibrary.cylib\BLE_v2_0\Library\gccCyBLEStack_BLE_SOC_PERIPHERAL.a(mint_os_task.o)
 .comment       0x000023c6      0x34e C:\9047software\PSoC Creator\3.3\PSoC Creator\psoc\content\cycomponentlibrary\CyComponentLibrary.cylib\BLE_v2_0\Library\gccCyBLEStack_BLE_SOC_PERIPHERAL.a(mint_buf_mgmt.o)
 .comment       0x00002714      0x3d1 C:\9047software\PSoC Creator\3.3\PSoC Creator\psoc\content\cycomponentlibrary\CyComponentLibrary.cylib\BLE_v2_0\Library\gccCyBLEStack_BLE_SOC_PERIPHERAL.a(CyBleControllerIP_Interface.o)
 .comment       0x00002ae5      0x3a2 C:\9047software\PSoC Creator\3.3\PSoC Creator\psoc\content\cycomponentlibrary\CyComponentLibrary.cylib\BLE_v2_0\Library\gccCyBLEStack_BLE_SOC_PERIPHERAL.a(ll.o)
 .comment       0x00002e87      0x3b8 C:\9047software\PSoC Creator\3.3\PSoC Creator\psoc\content\cycomponentlibrary\CyComponentLibrary.cylib\BLE_v2_0\Library\gccCyBLEStack_BLE_SOC_PERIPHERAL.a(ll_advertiser.o)
 .comment       0x0000323f      0x3b8 C:\9047software\PSoC Creator\3.3\PSoC Creator\psoc\content\cycomponentlibrary\CyComponentLibrary.cylib\BLE_v2_0\Library\gccCyBLEStack_BLE_SOC_PERIPHERAL.a(ll_connection.o)
 .comment       0x000035f7      0x3ad C:\9047software\PSoC Creator\3.3\PSoC Creator\psoc\content\cycomponentlibrary\CyComponentLibrary.cylib\BLE_v2_0\Library\gccCyBLEStack_BLE_SOC_PERIPHERAL.a(llh_api.o)
 .comment       0x000039a4      0x3b1 C:\9047software\PSoC Creator\3.3\PSoC Creator\psoc\content\cycomponentlibrary\CyComponentLibrary.cylib\BLE_v2_0\Library\gccCyBLEStack_BLE_SOC_PERIPHERAL.a(llh_utils.o)
 .comment       0x00003d55      0x3aa C:\9047software\PSoC Creator\3.3\PSoC Creator\psoc\content\cycomponentlibrary\CyComponentLibrary.cylib\BLE_v2_0\Library\gccCyBLEStack_BLE_SOC_PERIPHERAL.a(ll_pdu.o)
 .comment       0x000040ff      0x3b4 C:\9047software\PSoC Creator\3.3\PSoC Creator\psoc\content\cycomponentlibrary\CyComponentLibrary.cylib\BLE_v2_0\Library\gccCyBLEStack_BLE_SOC_PERIPHERAL.a(ll_policies.o)
 .comment       0x000044b3      0x3ae C:\9047software\PSoC Creator\3.3\PSoC Creator\psoc\content\cycomponentlibrary\CyComponentLibrary.cylib\BLE_v2_0\Library\gccCyBLEStack_BLE_SOC_PERIPHERAL.a(ll_tasks.o)
 .comment       0x00004861      0x3ae C:\9047software\PSoC Creator\3.3\PSoC Creator\psoc\content\cycomponentlibrary\CyComponentLibrary.cylib\BLE_v2_0\Library\gccCyBLEStack_BLE_SOC_PERIPHERAL.a(ll_utils.o)
 .comment       0x00004c0f      0x3b4 C:\9047software\PSoC Creator\3.3\PSoC Creator\psoc\content\cycomponentlibrary\CyComponentLibrary.cylib\BLE_v2_0\Library\gccCyBLEStack_BLE_SOC_PERIPHERAL.a(llf_task.o)
 .comment       0x00004fc3      0x3b3 C:\9047software\PSoC Creator\3.3\PSoC Creator\psoc\content\cycomponentlibrary\CyComponentLibrary.cylib\BLE_v2_0\Library\gccCyBLEStack_BLE_SOC_PERIPHERAL.a(lec_hci_le.o)
 .comment       0x00005376      0x3c5 C:\9047software\PSoC Creator\3.3\PSoC Creator\psoc\content\cycomponentlibrary\CyComponentLibrary.cylib\BLE_v2_0\Library\gccCyBLEStack_BLE_SOC_PERIPHERAL.a(lec_hci_le_commands.o)
 .comment       0x0000573b      0x3d3 C:\9047software\PSoC Creator\3.3\PSoC Creator\psoc\content\cycomponentlibrary\CyComponentLibrary.cylib\BLE_v2_0\Library\gccCyBLEStack_BLE_SOC_PERIPHERAL.a(lec_hci_le_common_commands.o)
 .comment       0x00005b0e      0x3cf C:\9047software\PSoC Creator\3.3\PSoC Creator\psoc\content\cycomponentlibrary\CyComponentLibrary.cylib\BLE_v2_0\Library\gccCyBLEStack_BLE_SOC_PERIPHERAL.a(lec_hci_le_conn_commands.o)
 .comment       0x00005edd      0x3db C:\9047software\PSoC Creator\3.3\PSoC Creator\psoc\content\cycomponentlibrary\CyComponentLibrary.cylib\BLE_v2_0\Library\gccCyBLEStack_BLE_SOC_PERIPHERAL.a(lec_hci_le_encryption_commands.o)
 .comment       0x000062b8      0x3bf C:\9047software\PSoC Creator\3.3\PSoC Creator\psoc\content\cycomponentlibrary\CyComponentLibrary.cylib\BLE_v2_0\Library\gccCyBLEStack_BLE_SOC_PERIPHERAL.a(lec_hci_le_utils.o)
 .comment       0x00006677      0x3cd C:\9047software\PSoC Creator\3.3\PSoC Creator\psoc\content\cycomponentlibrary\CyComponentLibrary.cylib\BLE_v2_0\Library\gccCyBLEStack_BLE_SOC_PERIPHERAL.a(lec_hci_param_converter.o)
 .comment       0x00006a44      0x3cf C:\9047software\PSoC Creator\3.3\PSoC Creator\psoc\content\cycomponentlibrary\CyComponentLibrary.cylib\BLE_v2_0\Library\gccCyBLEStack_BLE_SOC_PERIPHERAL.a(lec_hci_param_validation.o)
 .comment       0x00006e13      0x3ae C:\9047software\PSoC Creator\3.3\PSoC Creator\psoc\content\cycomponentlibrary\CyComponentLibrary.cylib\BLE_v2_0\Library\gccCyBLEStack_BLE_SOC_PERIPHERAL.a(hci_td.o)
 .comment       0x000071c1      0x3b6 C:\9047software\PSoC Creator\3.3\PSoC Creator\psoc\content\cycomponentlibrary\CyComponentLibrary.cylib\BLE_v2_0\Library\gccCyBLEStack_BLE_SOC_PERIPHERAL.a(hci_td_api.o)
 .comment       0x00007577      0x3b8 C:\9047software\PSoC Creator\3.3\PSoC Creator\psoc\content\cycomponentlibrary\CyComponentLibrary.cylib\BLE_v2_0\Library\gccCyBLEStack_BLE_SOC_PERIPHERAL.a(hci_td_task.o)
 .comment       0x0000792f      0x569 C:\9047software\PSoC Creator\3.3\PSoC Creator\psoc\content\cycomponentlibrary\CyComponentLibrary.cylib\BLE_v2_0\Library\gccCyBLEStack_BLE_SOC_PERIPHERAL.a(host_main.o)
 .comment       0x00007e98      0x569 C:\9047software\PSoC Creator\3.3\PSoC Creator\psoc\content\cycomponentlibrary\CyComponentLibrary.cylib\BLE_v2_0\Library\gccCyBLEStack_BLE_SOC_PERIPHERAL.a(att_api.o)
 .comment       0x00008401      0x56b C:\9047software\PSoC Creator\3.3\PSoC Creator\psoc\content\cycomponentlibrary\CyComponentLibrary.cylib\BLE_v2_0\Library\gccCyBLEStack_BLE_SOC_PERIPHERAL.a(att_init.o)
 .comment       0x0000896c      0x573 C:\9047software\PSoC Creator\3.3\PSoC Creator\psoc\content\cycomponentlibrary\CyComponentLibrary.cylib\BLE_v2_0\Library\gccCyBLEStack_BLE_SOC_PERIPHERAL.a(att_internal.o)
 .comment       0x00008edf      0x570 C:\9047software\PSoC Creator\3.3\PSoC Creator\psoc\content\cycomponentlibrary\CyComponentLibrary.cylib\BLE_v2_0\Library\gccCyBLEStack_BLE_SOC_PERIPHERAL.a(BT_common.o)
 .comment       0x0000944f      0x57c C:\9047software\PSoC Creator\3.3\PSoC Creator\psoc\content\cycomponentlibrary\CyComponentLibrary.cylib\BLE_v2_0\Library\gccCyBLEStack_BLE_SOC_PERIPHERAL.a(device_queue.o)
 .comment       0x000099cb      0x56b C:\9047software\PSoC Creator\3.3\PSoC Creator\psoc\content\cycomponentlibrary\CyComponentLibrary.cylib\BLE_v2_0\Library\gccCyBLEStack_BLE_SOC_PERIPHERAL.a(l2cap.o)
 .comment       0x00009f36      0x581 C:\9047software\PSoC Creator\3.3\PSoC Creator\psoc\content\cycomponentlibrary\CyComponentLibrary.cylib\BLE_v2_0\Library\gccCyBLEStack_BLE_SOC_PERIPHERAL.a(l2cap_disconnect.o)
 .comment       0x0000a4b7      0x575 C:\9047software\PSoC Creator\3.3\PSoC Creator\psoc\content\cycomponentlibrary\CyComponentLibrary.cylib\BLE_v2_0\Library\gccCyBLEStack_BLE_SOC_PERIPHERAL.a(l2cap_init.o)
 .comment       0x0000aa2c      0x577 C:\9047software\PSoC Creator\3.3\PSoC Creator\psoc\content\cycomponentlibrary\CyComponentLibrary.cylib\BLE_v2_0\Library\gccCyBLEStack_BLE_SOC_PERIPHERAL.a(l2cap_utils.o)
 .comment       0x0000afa3      0x573 C:\9047software\PSoC Creator\3.3\PSoC Creator\psoc\content\cycomponentlibrary\CyComponentLibrary.cylib\BLE_v2_0\Library\gccCyBLEStack_BLE_SOC_PERIPHERAL.a(l2cap_lmp.o)
 .comment       0x0000b516      0x571 C:\9047software\PSoC Creator\3.3\PSoC Creator\psoc\content\cycomponentlibrary\CyComponentLibrary.cylib\BLE_v2_0\Library\gccCyBLEStack_BLE_SOC_PERIPHERAL.a(l2cap_le.o)
 .comment       0x0000ba87      0x587 C:\9047software\PSoC Creator\3.3\PSoC Creator\psoc\content\cycomponentlibrary\CyComponentLibrary.cylib\BLE_v2_0\Library\gccCyBLEStack_BLE_SOC_PERIPHERAL.a(l2cap_fixed_channel.o)
 .comment       0x0000c00e      0x57d C:\9047software\PSoC Creator\3.3\PSoC Creator\psoc\content\cycomponentlibrary\CyComponentLibrary.cylib\BLE_v2_0\Library\gccCyBLEStack_BLE_SOC_PERIPHERAL.a(l2cap_channels.o)
 .comment       0x0000c58b      0x583 C:\9047software\PSoC Creator\3.3\PSoC Creator\psoc\content\cycomponentlibrary\CyComponentLibrary.cylib\BLE_v2_0\Library\gccCyBLEStack_BLE_SOC_PERIPHERAL.a(l2cap_credit_mode.o)
 .comment       0x0000cb0e      0x57b C:\9047software\PSoC Creator\3.3\PSoC Creator\psoc\content\cycomponentlibrary\CyComponentLibrary.cylib\BLE_v2_0\Library\gccCyBLEStack_BLE_SOC_PERIPHERAL.a(l2cap_command.o)
 .comment       0x0000d089      0x576 C:\9047software\PSoC Creator\3.3\PSoC Creator\psoc\content\cycomponentlibrary\CyComponentLibrary.cylib\BLE_v2_0\Library\gccCyBLEStack_BLE_SOC_PERIPHERAL.a(fsm_engine.o)
 .comment       0x0000d5ff      0x574 C:\9047software\PSoC Creator\3.3\PSoC Creator\psoc\content\cycomponentlibrary\CyComponentLibrary.cylib\BLE_v2_0\Library\gccCyBLEStack_BLE_SOC_PERIPHERAL.a(fsm_engine_pl.o)
 .comment       0x0000db73      0x561 C:\9047software\PSoC Creator\3.3\PSoC Creator\psoc\content\cycomponentlibrary\CyComponentLibrary.cylib\BLE_v2_0\Library\gccCyBLEStack_BLE_SOC_PERIPHERAL.a(gap.o)
 .comment       0x0000e0d4      0x564 C:\9047software\PSoC Creator\3.3\PSoC Creator\psoc\content\cycomponentlibrary\CyComponentLibrary.cylib\BLE_v2_0\Library\gccCyBLEStack_BLE_SOC_PERIPHERAL.a(gatt.o)
 .comment       0x0000e638      0x570 C:\9047software\PSoC Creator\3.3\PSoC Creator\psoc\content\cycomponentlibrary\CyComponentLibrary.cylib\BLE_v2_0\Library\gccCyBLEStack_BLE_SOC_PERIPHERAL.a(gattClient.o)
 .comment       0x0000eba8      0x570 C:\9047software\PSoC Creator\3.3\PSoC Creator\psoc\content\cycomponentlibrary\CyComponentLibrary.cylib\BLE_v2_0\Library\gccCyBLEStack_BLE_SOC_PERIPHERAL.a(gattServer.o)
 .comment       0x0000f118      0x576 C:\9047software\PSoC Creator\3.3\PSoC Creator\psoc\content\cycomponentlibrary\CyComponentLibrary.cylib\BLE_v2_0\Library\gccCyBLEStack_BLE_SOC_PERIPHERAL.a(gattDbHandler.o)
 .comment       0x0000f68e      0x56c C:\9047software\PSoC Creator\3.3\PSoC Creator\psoc\content\cycomponentlibrary\CyComponentLibrary.cylib\BLE_v2_0\Library\gccCyBLEStack_BLE_SOC_PERIPHERAL.a(hci_api.o)
 .comment       0x0000fbfa      0x586 C:\9047software\PSoC Creator\3.3\PSoC Creator\psoc\content\cycomponentlibrary\CyComponentLibrary.cylib\BLE_v2_0\Library\gccCyBLEStack_BLE_SOC_PERIPHERAL.a(hci_link_control_api.o)
 .comment       0x00010180      0x576 C:\9047software\PSoC Creator\3.3\PSoC Creator\psoc\content\cycomponentlibrary\CyComponentLibrary.cylib\BLE_v2_0\Library\gccCyBLEStack_BLE_SOC_PERIPHERAL.a(hci_commands.o)
 .comment       0x000106f6      0x572 C:\9047software\PSoC Creator\3.3\PSoC Creator\psoc\content\cycomponentlibrary\CyComponentLibrary.cylib\BLE_v2_0\Library\gccCyBLEStack_BLE_SOC_PERIPHERAL.a(hci_events.o)
 .comment       0x00010c68      0x56e C:\9047software\PSoC Creator\3.3\PSoC Creator\psoc\content\cycomponentlibrary\CyComponentLibrary.cylib\BLE_v2_0\Library\gccCyBLEStack_BLE_SOC_PERIPHERAL.a(hci_init.o)
 .comment       0x000111d6      0x572 C:\9047software\PSoC Creator\3.3\PSoC Creator\psoc\content\cycomponentlibrary\CyComponentLibrary.cylib\BLE_v2_0\Library\gccCyBLEStack_BLE_SOC_PERIPHERAL.a(hci_le_api.o)
 .comment       0x00011748      0x570 C:\9047software\PSoC Creator\3.3\PSoC Creator\psoc\content\cycomponentlibrary\CyComponentLibrary.cylib\BLE_v2_0\Library\gccCyBLEStack_BLE_SOC_PERIPHERAL.a(hci_utils.o)
 .comment       0x00011cb8      0x569 C:\9047software\PSoC Creator\3.3\PSoC Creator\psoc\content\cycomponentlibrary\CyComponentLibrary.cylib\BLE_v2_0\Library\gccCyBLEStack_BLE_SOC_PERIPHERAL.a(smp_api.o)
 .comment       0x00012221      0x56b C:\9047software\PSoC Creator\3.3\PSoC Creator\psoc\content\cycomponentlibrary\CyComponentLibrary.cylib\BLE_v2_0\Library\gccCyBLEStack_BLE_SOC_PERIPHERAL.a(smp_core.o)
 .comment       0x0001278c      0x56b C:\9047software\PSoC Creator\3.3\PSoC Creator\psoc\content\cycomponentlibrary\CyComponentLibrary.cylib\BLE_v2_0\Library\gccCyBLEStack_BLE_SOC_PERIPHERAL.a(smp_init.o)
 .comment       0x00012cf7      0x575 C:\9047software\PSoC Creator\3.3\PSoC Creator\psoc\content\cycomponentlibrary\CyComponentLibrary.cylib\BLE_v2_0\Library\gccCyBLEStack_BLE_SOC_PERIPHERAL.a(smp_interface.o)
 .comment       0x0001326c      0x56d C:\9047software\PSoC Creator\3.3\PSoC Creator\psoc\content\cycomponentlibrary\CyComponentLibrary.cylib\BLE_v2_0\Library\gccCyBLEStack_BLE_SOC_PERIPHERAL.a(smp_utils.o)
 .comment       0x000137d9      0x577 C:\9047software\PSoC Creator\3.3\PSoC Creator\psoc\content\cycomponentlibrary\CyComponentLibrary.cylib\BLE_v2_0\Library\gccCyBLEStack_BLE_SOC_PERIPHERAL.a(smp_fsm_engine.o)
 .comment       0x00013d50      0x575 C:\9047software\PSoC Creator\3.3\PSoC Creator\psoc\content\cycomponentlibrary\CyComponentLibrary.cylib\BLE_v2_0\Library\gccCyBLEStack_BLE_SOC_PERIPHERAL.a(smp_fsm_table.o)
 .comment       0x000142c5      0x56d C:\9047software\PSoC Creator\3.3\PSoC Creator\psoc\content\cycomponentlibrary\CyComponentLibrary.cylib\BLE_v2_0\Library\gccCyBLEStack_BLE_SOC_PERIPHERAL.a(smp_tools.o)
 .comment       0x00014832      0x571 C:\9047software\PSoC Creator\3.3\PSoC Creator\psoc\content\cycomponentlibrary\CyComponentLibrary.cylib\BLE_v2_0\Library\gccCyBLEStack_BLE_SOC_PERIPHERAL.a(smp_psstore.o)
 .comment       0x00014da3      0x576 C:\9047software\PSoC Creator\3.3\PSoC Creator\psoc\content\cycomponentlibrary\CyComponentLibrary.cylib\BLE_v2_0\Library\gccCyBLEStack_BLE_SOC_PERIPHERAL.a(write_task.o)
 .comment       0x00015319      0x56c C:\9047software\PSoC Creator\3.3\PSoC Creator\psoc\content\cycomponentlibrary\CyComponentLibrary.cylib\BLE_v2_0\Library\gccCyBLEStack_BLE_SOC_PERIPHERAL.a(aes_cmac.o)
 .comment       0x00015885      0x572 C:\9047software\PSoC Creator\3.3\PSoC Creator\psoc\content\cycomponentlibrary\CyComponentLibrary.cylib\BLE_v2_0\Library\gccCyBLEStack_BLE_SOC_PERIPHERAL.a(aes_cmac_pl.o)
 .comment       0x00015df7      0x566 C:\9047software\PSoC Creator\3.3\PSoC Creator\psoc\content\cycomponentlibrary\CyComponentLibrary.cylib\BLE_v2_0\Library\gccCyBLEStack_BLE_SOC_PERIPHERAL.a(status.o)
 .comment       0x0001635d      0x569 C:\9047software\PSoC Creator\3.3\PSoC Creator\psoc\content\cycomponentlibrary\CyComponentLibrary.cylib\BLE_v2_0\Library\gccCyBLEStack_BLE_SOC_PERIPHERAL.a(storage.o)
 .comment       0x000168c6      0x346 C:\9047software\PSoC Creator\3.3\PSoC Creator\psoc\content\cycomponentlibrary\CyComponentLibrary.cylib\BLE_v2_0\Library\gccCyBLEStack_BLE_SOC_PERIPHERAL.a(bt_os_common.o)
 .comment       0x00016c0c      0x33e C:\9047software\PSoC Creator\3.3\PSoC Creator\psoc\content\cycomponentlibrary\CyComponentLibrary.cylib\BLE_v2_0\Library\gccCyBLEStack_BLE_SOC_PERIPHERAL.a(BT_timer.o)
 .comment       0x00016f4a      0x342 C:\9047software\PSoC Creator\3.3\PSoC Creator\psoc\content\cycomponentlibrary\CyComponentLibrary.cylib\BLE_v2_0\Library\gccCyBLEStack_BLE_SOC_PERIPHERAL.a(storage_pl.o)
 .comment       0x0001728c      0x3a8 C:\9047software\PSoC Creator\3.3\PSoC Creator\psoc\content\cycomponentlibrary\CyComponentLibrary.cylib\BLE_v2_0\Library\gccCyBLEStack_BLE_SOC_PERIPHERAL.a(drbg.o)
 .comment       0x00017634      0x3b1 C:\9047software\PSoC Creator\3.3\PSoC Creator\psoc\content\cycomponentlibrary\CyComponentLibrary.cylib\BLE_v2_0\Library\gccCyBLEStack_BLE_SOC_PERIPHERAL.a(bt_fw_os_al.o)
 .comment       0x000179e5      0x3cd C:\9047software\PSoC Creator\3.3\PSoC Creator\psoc\content\cycomponentlibrary\CyComponentLibrary.cylib\BLE_v2_0\Library\gccCyBLEStack_BLE_SOC_PERIPHERAL.a(lec_hci_br_edr_commands.o)
 .comment       0x00017db2      0x3cd C:\9047software\PSoC Creator\3.3\PSoC Creator\psoc\content\cycomponentlibrary\CyComponentLibrary.cylib\BLE_v2_0\Library\gccCyBLEStack_BLE_SOC_PERIPHERAL.a(lec_hci_le_adv_commands.o)
 .comment       0x0001817f      0x572 C:\9047software\PSoC Creator\3.3\PSoC Creator\psoc\content\cycomponentlibrary\CyComponentLibrary.cylib\BLE_v2_0\Library\gccCyBLEStack_BLE_SOC_PERIPHERAL.a(BT_common_pl.o)
 .comment       0x000186f1      0x578 C:\9047software\PSoC Creator\3.3\PSoC Creator\psoc\content\cycomponentlibrary\CyComponentLibrary.cylib\BLE_v2_0\Library\gccCyBLEStack_BLE_SOC_PERIPHERAL.a(device_queue_pl.o)
 .comment       0x00018c69      0x566 C:\9047software\PSoC Creator\3.3\PSoC Creator\psoc\content\cycomponentlibrary\CyComponentLibrary.cylib\BLE_v2_0\Library\gccCyBLEStack_BLE_SOC_PERIPHERAL.a(smp_pl.o)
 .comment       0x000191cf      0x575 C:\9047software\PSoC Creator\3.3\PSoC Creator\psoc\content\cycomponentlibrary\CyComponentLibrary.cylib\BLE_v2_0\Library\gccCyBLEStack_BLE_SOC_PERIPHERAL.a(att_fsm_table.o)
 .comment       0x00019744      0x57f C:\9047software\PSoC Creator\3.3\PSoC Creator\psoc\content\cycomponentlibrary\CyComponentLibrary.cylib\BLE_v2_0\Library\gccCyBLEStack_BLE_SOC_PERIPHERAL.a(l2cap_data_recv.o)
 .comment       0x00019cc3      0x578 C:\9047software\PSoC Creator\3.3\PSoC Creator\psoc\content\cycomponentlibrary\CyComponentLibrary.cylib\BLE_v2_0\Library\gccCyBLEStack_BLE_SOC_PERIPHERAL.a(gattDbInternal.o)
 .comment       0x0001a23b      0x580 C:\9047software\PSoC Creator\3.3\PSoC Creator\psoc\content\cycomponentlibrary\CyComponentLibrary.cylib\BLE_v2_0\Library\gccCyBLEStack_BLE_SOC_PERIPHERAL.a(hci_command_queue.o)
 .comment       0x0001a7bb      0x574 C:\9047software\PSoC Creator\3.3\PSoC Creator\psoc\content\cycomponentlibrary\CyComponentLibrary.cylib\BLE_v2_0\Library\gccCyBLEStack_BLE_SOC_PERIPHERAL.a(hci_connect.o)
 .comment       0x0001ad2f      0x57a C:\9047software\PSoC Creator\3.3\PSoC Creator\psoc\content\cycomponentlibrary\CyComponentLibrary.cylib\BLE_v2_0\Library\gccCyBLEStack_BLE_SOC_PERIPHERAL.a(hci_disconnect.o)
 .comment       0x0001b2a9      0x57b C:\9047software\PSoC Creator\3.3\PSoC Creator\psoc\content\cycomponentlibrary\CyComponentLibrary.cylib\BLE_v2_0\Library\gccCyBLEStack_BLE_SOC_PERIPHERAL.a(smp_fsm_handlers.o)
 .comment       0x0001b824      0x57b C:\9047software\PSoC Creator\3.3\PSoC Creator\psoc\content\cycomponentlibrary\CyComponentLibrary.cylib\BLE_v2_0\Library\gccCyBLEStack_BLE_SOC_PERIPHERAL.a(att_fsm_handlers.o)
 .comment       0x0001bd9f      0x57b C:\9047software\PSoC Creator\3.3\PSoC Creator\psoc\content\cycomponentlibrary\CyComponentLibrary.cylib\BLE_v2_0\Library\gccCyBLEStack_BLE_SOC_PERIPHERAL.a(l2cap_connect.o)
 .comment       0x00000000       0x71 .\CortexM0\ARM_GCC_493\Debug\BLE Lab 3.a(BLE_HAL_PVT.o)
 .comment       0x00000000       0x71 .\CortexM0\ARM_GCC_493\Debug\BLE Lab 3.a(BLE_bless_isr.o)
 .comment       0x00000000       0x71 .\CortexM0\ARM_GCC_493\Debug\BLE Lab 3.a(CyFlash.o)
 .comment       0x00000000       0x71 .\CortexM0\ARM_GCC_493\Debug\BLE Lab 3.a(BLE_HAL_INT.o)
 .comment       0x0001c31a      0x3aa C:\9047software\PSoC Creator\3.3\PSoC Creator\psoc\content\cycomponentlibrary\CyComponentLibrary.cylib\BLE_v2_0\Library\gccCyBLEStack_BLE_SOC_PERIPHERAL.a(ll_isr.o)

.arm_vfe_header
                0x00000000      0x188
 .arm_vfe_header
                0x00000000        0x4 C:\9047software\PSoC Creator\3.3\PSoC Creator\psoc\content\cycomponentlibrary\CyComponentLibrary.cylib\BLE_v2_0\Library\gccCyBLEStack_BLE_SOC_PERIPHERAL.a(CyBle.o)
 .arm_vfe_header
                0x00000004        0x4 C:\9047software\PSoC Creator\3.3\PSoC Creator\psoc\content\cycomponentlibrary\CyComponentLibrary.cylib\BLE_v2_0\Library\gccCyBLEStack_BLE_SOC_PERIPHERAL.a(CyBleStackMgrIP_Interface.o)
 .arm_vfe_header
                0x00000008        0x4 C:\9047software\PSoC Creator\3.3\PSoC Creator\psoc\content\cycomponentlibrary\CyComponentLibrary.cylib\BLE_v2_0\Library\gccCyBLEStack_BLE_SOC_PERIPHERAL.a(BT_os.o)
 .arm_vfe_header
                0x0000000c        0x4 C:\9047software\PSoC Creator\3.3\PSoC Creator\psoc\content\cycomponentlibrary\CyComponentLibrary.cylib\BLE_v2_0\Library\gccCyBLEStack_BLE_SOC_PERIPHERAL.a(CyBleStackMgr_StackTaskHandler.o)
 .arm_vfe_header
                0x00000010        0x4 C:\9047software\PSoC Creator\3.3\PSoC Creator\psoc\content\cycomponentlibrary\CyComponentLibrary.cylib\BLE_v2_0\Library\gccCyBLEStack_BLE_SOC_PERIPHERAL.a(transport_sf.o)
 .arm_vfe_header
                0x00000014        0x4 C:\9047software\PSoC Creator\3.3\PSoC Creator\psoc\content\cycomponentlibrary\CyComponentLibrary.cylib\BLE_v2_0\Library\gccCyBLEStack_BLE_SOC_PERIPHERAL.a(CyBleStackMgr_PSoCHal.o)
 .arm_vfe_header
                0x00000018        0x4 C:\9047software\PSoC Creator\3.3\PSoC Creator\psoc\content\cycomponentlibrary\CyComponentLibrary.cylib\BLE_v2_0\Library\gccCyBLEStack_BLE_SOC_PERIPHERAL.a(CyBleStackMgr_BleSSDriver.o)
 .arm_vfe_header
                0x0000001c        0x4 C:\9047software\PSoC Creator\3.3\PSoC Creator\psoc\content\cycomponentlibrary\CyComponentLibrary.cylib\BLE_v2_0\Library\gccCyBLEStack_BLE_SOC_PERIPHERAL.a(config_bin.o)
 .arm_vfe_header
                0x00000020        0x4 C:\9047software\PSoC Creator\3.3\PSoC Creator\psoc\content\cycomponentlibrary\CyComponentLibrary.cylib\BLE_v2_0\Library\gccCyBLEStack_BLE_SOC_PERIPHERAL.a(mint_os.o)
 .arm_vfe_header
                0x00000024        0x4 C:\9047software\PSoC Creator\3.3\PSoC Creator\psoc\content\cycomponentlibrary\CyComponentLibrary.cylib\BLE_v2_0\Library\gccCyBLEStack_BLE_SOC_PERIPHERAL.a(mint_os_queue.o)
 .arm_vfe_header
                0x00000028        0x4 C:\9047software\PSoC Creator\3.3\PSoC Creator\psoc\content\cycomponentlibrary\CyComponentLibrary.cylib\BLE_v2_0\Library\gccCyBLEStack_BLE_SOC_PERIPHERAL.a(mint_os_task.o)
 .arm_vfe_header
                0x0000002c        0x4 C:\9047software\PSoC Creator\3.3\PSoC Creator\psoc\content\cycomponentlibrary\CyComponentLibrary.cylib\BLE_v2_0\Library\gccCyBLEStack_BLE_SOC_PERIPHERAL.a(mint_buf_mgmt.o)
 .arm_vfe_header
                0x00000030        0x4 C:\9047software\PSoC Creator\3.3\PSoC Creator\psoc\content\cycomponentlibrary\CyComponentLibrary.cylib\BLE_v2_0\Library\gccCyBLEStack_BLE_SOC_PERIPHERAL.a(CyBleControllerIP_Interface.o)
 .arm_vfe_header
                0x00000034        0x4 C:\9047software\PSoC Creator\3.3\PSoC Creator\psoc\content\cycomponentlibrary\CyComponentLibrary.cylib\BLE_v2_0\Library\gccCyBLEStack_BLE_SOC_PERIPHERAL.a(ll.o)
 .arm_vfe_header
                0x00000038        0x4 C:\9047software\PSoC Creator\3.3\PSoC Creator\psoc\content\cycomponentlibrary\CyComponentLibrary.cylib\BLE_v2_0\Library\gccCyBLEStack_BLE_SOC_PERIPHERAL.a(ll_advertiser.o)
 .arm_vfe_header
                0x0000003c        0x4 C:\9047software\PSoC Creator\3.3\PSoC Creator\psoc\content\cycomponentlibrary\CyComponentLibrary.cylib\BLE_v2_0\Library\gccCyBLEStack_BLE_SOC_PERIPHERAL.a(ll_connection.o)
 .arm_vfe_header
                0x00000040        0x4 C:\9047software\PSoC Creator\3.3\PSoC Creator\psoc\content\cycomponentlibrary\CyComponentLibrary.cylib\BLE_v2_0\Library\gccCyBLEStack_BLE_SOC_PERIPHERAL.a(llh_api.o)
 .arm_vfe_header
                0x00000044        0x4 C:\9047software\PSoC Creator\3.3\PSoC Creator\psoc\content\cycomponentlibrary\CyComponentLibrary.cylib\BLE_v2_0\Library\gccCyBLEStack_BLE_SOC_PERIPHERAL.a(llh_utils.o)
 .arm_vfe_header
                0x00000048        0x4 C:\9047software\PSoC Creator\3.3\PSoC Creator\psoc\content\cycomponentlibrary\CyComponentLibrary.cylib\BLE_v2_0\Library\gccCyBLEStack_BLE_SOC_PERIPHERAL.a(ll_pdu.o)
 .arm_vfe_header
                0x0000004c        0x4 C:\9047software\PSoC Creator\3.3\PSoC Creator\psoc\content\cycomponentlibrary\CyComponentLibrary.cylib\BLE_v2_0\Library\gccCyBLEStack_BLE_SOC_PERIPHERAL.a(ll_policies.o)
 .arm_vfe_header
                0x00000050        0x4 C:\9047software\PSoC Creator\3.3\PSoC Creator\psoc\content\cycomponentlibrary\CyComponentLibrary.cylib\BLE_v2_0\Library\gccCyBLEStack_BLE_SOC_PERIPHERAL.a(ll_tasks.o)
 .arm_vfe_header
                0x00000054        0x4 C:\9047software\PSoC Creator\3.3\PSoC Creator\psoc\content\cycomponentlibrary\CyComponentLibrary.cylib\BLE_v2_0\Library\gccCyBLEStack_BLE_SOC_PERIPHERAL.a(ll_utils.o)
 .arm_vfe_header
                0x00000058        0x4 C:\9047software\PSoC Creator\3.3\PSoC Creator\psoc\content\cycomponentlibrary\CyComponentLibrary.cylib\BLE_v2_0\Library\gccCyBLEStack_BLE_SOC_PERIPHERAL.a(llf_task.o)
 .arm_vfe_header
                0x0000005c        0x4 C:\9047software\PSoC Creator\3.3\PSoC Creator\psoc\content\cycomponentlibrary\CyComponentLibrary.cylib\BLE_v2_0\Library\gccCyBLEStack_BLE_SOC_PERIPHERAL.a(lec_hci_le.o)
 .arm_vfe_header
                0x00000060        0x4 C:\9047software\PSoC Creator\3.3\PSoC Creator\psoc\content\cycomponentlibrary\CyComponentLibrary.cylib\BLE_v2_0\Library\gccCyBLEStack_BLE_SOC_PERIPHERAL.a(lec_hci_le_commands.o)
 .arm_vfe_header
                0x00000064        0x4 C:\9047software\PSoC Creator\3.3\PSoC Creator\psoc\content\cycomponentlibrary\CyComponentLibrary.cylib\BLE_v2_0\Library\gccCyBLEStack_BLE_SOC_PERIPHERAL.a(lec_hci_le_common_commands.o)
 .arm_vfe_header
                0x00000068        0x4 C:\9047software\PSoC Creator\3.3\PSoC Creator\psoc\content\cycomponentlibrary\CyComponentLibrary.cylib\BLE_v2_0\Library\gccCyBLEStack_BLE_SOC_PERIPHERAL.a(lec_hci_le_conn_commands.o)
 .arm_vfe_header
                0x0000006c        0x4 C:\9047software\PSoC Creator\3.3\PSoC Creator\psoc\content\cycomponentlibrary\CyComponentLibrary.cylib\BLE_v2_0\Library\gccCyBLEStack_BLE_SOC_PERIPHERAL.a(lec_hci_le_encryption_commands.o)
 .arm_vfe_header
                0x00000070        0x4 C:\9047software\PSoC Creator\3.3\PSoC Creator\psoc\content\cycomponentlibrary\CyComponentLibrary.cylib\BLE_v2_0\Library\gccCyBLEStack_BLE_SOC_PERIPHERAL.a(lec_hci_le_utils.o)
 .arm_vfe_header
                0x00000074        0x4 C:\9047software\PSoC Creator\3.3\PSoC Creator\psoc\content\cycomponentlibrary\CyComponentLibrary.cylib\BLE_v2_0\Library\gccCyBLEStack_BLE_SOC_PERIPHERAL.a(lec_hci_param_converter.o)
 .arm_vfe_header
                0x00000078        0x4 C:\9047software\PSoC Creator\3.3\PSoC Creator\psoc\content\cycomponentlibrary\CyComponentLibrary.cylib\BLE_v2_0\Library\gccCyBLEStack_BLE_SOC_PERIPHERAL.a(lec_hci_param_validation.o)
 .arm_vfe_header
                0x0000007c        0x4 C:\9047software\PSoC Creator\3.3\PSoC Creator\psoc\content\cycomponentlibrary\CyComponentLibrary.cylib\BLE_v2_0\Library\gccCyBLEStack_BLE_SOC_PERIPHERAL.a(hci_td.o)
 .arm_vfe_header
                0x00000080        0x4 C:\9047software\PSoC Creator\3.3\PSoC Creator\psoc\content\cycomponentlibrary\CyComponentLibrary.cylib\BLE_v2_0\Library\gccCyBLEStack_BLE_SOC_PERIPHERAL.a(hci_td_api.o)
 .arm_vfe_header
                0x00000084        0x4 C:\9047software\PSoC Creator\3.3\PSoC Creator\psoc\content\cycomponentlibrary\CyComponentLibrary.cylib\BLE_v2_0\Library\gccCyBLEStack_BLE_SOC_PERIPHERAL.a(hci_td_task.o)
 .arm_vfe_header
                0x00000088        0x4 C:\9047software\PSoC Creator\3.3\PSoC Creator\psoc\content\cycomponentlibrary\CyComponentLibrary.cylib\BLE_v2_0\Library\gccCyBLEStack_BLE_SOC_PERIPHERAL.a(host_main.o)
 .arm_vfe_header
                0x0000008c        0x4 C:\9047software\PSoC Creator\3.3\PSoC Creator\psoc\content\cycomponentlibrary\CyComponentLibrary.cylib\BLE_v2_0\Library\gccCyBLEStack_BLE_SOC_PERIPHERAL.a(att_api.o)
 .arm_vfe_header
                0x00000090        0x4 C:\9047software\PSoC Creator\3.3\PSoC Creator\psoc\content\cycomponentlibrary\CyComponentLibrary.cylib\BLE_v2_0\Library\gccCyBLEStack_BLE_SOC_PERIPHERAL.a(att_init.o)
 .arm_vfe_header
                0x00000094        0x4 C:\9047software\PSoC Creator\3.3\PSoC Creator\psoc\content\cycomponentlibrary\CyComponentLibrary.cylib\BLE_v2_0\Library\gccCyBLEStack_BLE_SOC_PERIPHERAL.a(att_internal.o)
 .arm_vfe_header
                0x00000098        0x4 C:\9047software\PSoC Creator\3.3\PSoC Creator\psoc\content\cycomponentlibrary\CyComponentLibrary.cylib\BLE_v2_0\Library\gccCyBLEStack_BLE_SOC_PERIPHERAL.a(BT_common.o)
 .arm_vfe_header
                0x0000009c        0x4 C:\9047software\PSoC Creator\3.3\PSoC Creator\psoc\content\cycomponentlibrary\CyComponentLibrary.cylib\BLE_v2_0\Library\gccCyBLEStack_BLE_SOC_PERIPHERAL.a(device_queue.o)
 .arm_vfe_header
                0x000000a0        0x4 C:\9047software\PSoC Creator\3.3\PSoC Creator\psoc\content\cycomponentlibrary\CyComponentLibrary.cylib\BLE_v2_0\Library\gccCyBLEStack_BLE_SOC_PERIPHERAL.a(l2cap.o)
 .arm_vfe_header
                0x000000a4        0x4 C:\9047software\PSoC Creator\3.3\PSoC Creator\psoc\content\cycomponentlibrary\CyComponentLibrary.cylib\BLE_v2_0\Library\gccCyBLEStack_BLE_SOC_PERIPHERAL.a(l2cap_disconnect.o)
 .arm_vfe_header
                0x000000a8        0x4 C:\9047software\PSoC Creator\3.3\PSoC Creator\psoc\content\cycomponentlibrary\CyComponentLibrary.cylib\BLE_v2_0\Library\gccCyBLEStack_BLE_SOC_PERIPHERAL.a(l2cap_init.o)
 .arm_vfe_header
                0x000000ac        0x4 C:\9047software\PSoC Creator\3.3\PSoC Creator\psoc\content\cycomponentlibrary\CyComponentLibrary.cylib\BLE_v2_0\Library\gccCyBLEStack_BLE_SOC_PERIPHERAL.a(l2cap_utils.o)
 .arm_vfe_header
                0x000000b0        0x4 C:\9047software\PSoC Creator\3.3\PSoC Creator\psoc\content\cycomponentlibrary\CyComponentLibrary.cylib\BLE_v2_0\Library\gccCyBLEStack_BLE_SOC_PERIPHERAL.a(l2cap_lmp.o)
 .arm_vfe_header
                0x000000b4        0x4 C:\9047software\PSoC Creator\3.3\PSoC Creator\psoc\content\cycomponentlibrary\CyComponentLibrary.cylib\BLE_v2_0\Library\gccCyBLEStack_BLE_SOC_PERIPHERAL.a(l2cap_le.o)
 .arm_vfe_header
                0x000000b8        0x4 C:\9047software\PSoC Creator\3.3\PSoC Creator\psoc\content\cycomponentlibrary\CyComponentLibrary.cylib\BLE_v2_0\Library\gccCyBLEStack_BLE_SOC_PERIPHERAL.a(l2cap_fixed_channel.o)
 .arm_vfe_header
                0x000000bc        0x4 C:\9047software\PSoC Creator\3.3\PSoC Creator\psoc\content\cycomponentlibrary\CyComponentLibrary.cylib\BLE_v2_0\Library\gccCyBLEStack_BLE_SOC_PERIPHERAL.a(l2cap_channels.o)
 .arm_vfe_header
                0x000000c0        0x4 C:\9047software\PSoC Creator\3.3\PSoC Creator\psoc\content\cycomponentlibrary\CyComponentLibrary.cylib\BLE_v2_0\Library\gccCyBLEStack_BLE_SOC_PERIPHERAL.a(l2cap_credit_mode.o)
 .arm_vfe_header
                0x000000c4        0x4 C:\9047software\PSoC Creator\3.3\PSoC Creator\psoc\content\cycomponentlibrary\CyComponentLibrary.cylib\BLE_v2_0\Library\gccCyBLEStack_BLE_SOC_PERIPHERAL.a(l2cap_command.o)
 .arm_vfe_header
                0x000000c8        0x4 C:\9047software\PSoC Creator\3.3\PSoC Creator\psoc\content\cycomponentlibrary\CyComponentLibrary.cylib\BLE_v2_0\Library\gccCyBLEStack_BLE_SOC_PERIPHERAL.a(fsm_engine.o)
 .arm_vfe_header
                0x000000cc        0x4 C:\9047software\PSoC Creator\3.3\PSoC Creator\psoc\content\cycomponentlibrary\CyComponentLibrary.cylib\BLE_v2_0\Library\gccCyBLEStack_BLE_SOC_PERIPHERAL.a(fsm_engine_pl.o)
 .arm_vfe_header
                0x000000d0        0x4 C:\9047software\PSoC Creator\3.3\PSoC Creator\psoc\content\cycomponentlibrary\CyComponentLibrary.cylib\BLE_v2_0\Library\gccCyBLEStack_BLE_SOC_PERIPHERAL.a(gap.o)
 .arm_vfe_header
                0x000000d4        0x4 C:\9047software\PSoC Creator\3.3\PSoC Creator\psoc\content\cycomponentlibrary\CyComponentLibrary.cylib\BLE_v2_0\Library\gccCyBLEStack_BLE_SOC_PERIPHERAL.a(gatt.o)
 .arm_vfe_header
                0x000000d8        0x4 C:\9047software\PSoC Creator\3.3\PSoC Creator\psoc\content\cycomponentlibrary\CyComponentLibrary.cylib\BLE_v2_0\Library\gccCyBLEStack_BLE_SOC_PERIPHERAL.a(gattClient.o)
 .arm_vfe_header
                0x000000dc        0x4 C:\9047software\PSoC Creator\3.3\PSoC Creator\psoc\content\cycomponentlibrary\CyComponentLibrary.cylib\BLE_v2_0\Library\gccCyBLEStack_BLE_SOC_PERIPHERAL.a(gattServer.o)
 .arm_vfe_header
                0x000000e0        0x4 C:\9047software\PSoC Creator\3.3\PSoC Creator\psoc\content\cycomponentlibrary\CyComponentLibrary.cylib\BLE_v2_0\Library\gccCyBLEStack_BLE_SOC_PERIPHERAL.a(gattDbHandler.o)
 .arm_vfe_header
                0x000000e4        0x4 C:\9047software\PSoC Creator\3.3\PSoC Creator\psoc\content\cycomponentlibrary\CyComponentLibrary.cylib\BLE_v2_0\Library\gccCyBLEStack_BLE_SOC_PERIPHERAL.a(hci_api.o)
 .arm_vfe_header
                0x000000e8        0x4 C:\9047software\PSoC Creator\3.3\PSoC Creator\psoc\content\cycomponentlibrary\CyComponentLibrary.cylib\BLE_v2_0\Library\gccCyBLEStack_BLE_SOC_PERIPHERAL.a(hci_link_control_api.o)
 .arm_vfe_header
                0x000000ec        0x4 C:\9047software\PSoC Creator\3.3\PSoC Creator\psoc\content\cycomponentlibrary\CyComponentLibrary.cylib\BLE_v2_0\Library\gccCyBLEStack_BLE_SOC_PERIPHERAL.a(hci_commands.o)
 .arm_vfe_header
                0x000000f0        0x4 C:\9047software\PSoC Creator\3.3\PSoC Creator\psoc\content\cycomponentlibrary\CyComponentLibrary.cylib\BLE_v2_0\Library\gccCyBLEStack_BLE_SOC_PERIPHERAL.a(hci_events.o)
 .arm_vfe_header
                0x000000f4        0x4 C:\9047software\PSoC Creator\3.3\PSoC Creator\psoc\content\cycomponentlibrary\CyComponentLibrary.cylib\BLE_v2_0\Library\gccCyBLEStack_BLE_SOC_PERIPHERAL.a(hci_init.o)
 .arm_vfe_header
                0x000000f8        0x4 C:\9047software\PSoC Creator\3.3\PSoC Creator\psoc\content\cycomponentlibrary\CyComponentLibrary.cylib\BLE_v2_0\Library\gccCyBLEStack_BLE_SOC_PERIPHERAL.a(hci_le_api.o)
 .arm_vfe_header
                0x000000fc        0x4 C:\9047software\PSoC Creator\3.3\PSoC Creator\psoc\content\cycomponentlibrary\CyComponentLibrary.cylib\BLE_v2_0\Library\gccCyBLEStack_BLE_SOC_PERIPHERAL.a(hci_utils.o)
 .arm_vfe_header
                0x00000100        0x4 C:\9047software\PSoC Creator\3.3\PSoC Creator\psoc\content\cycomponentlibrary\CyComponentLibrary.cylib\BLE_v2_0\Library\gccCyBLEStack_BLE_SOC_PERIPHERAL.a(smp_api.o)
 .arm_vfe_header
                0x00000104        0x4 C:\9047software\PSoC Creator\3.3\PSoC Creator\psoc\content\cycomponentlibrary\CyComponentLibrary.cylib\BLE_v2_0\Library\gccCyBLEStack_BLE_SOC_PERIPHERAL.a(smp_core.o)
 .arm_vfe_header
                0x00000108        0x4 C:\9047software\PSoC Creator\3.3\PSoC Creator\psoc\content\cycomponentlibrary\CyComponentLibrary.cylib\BLE_v2_0\Library\gccCyBLEStack_BLE_SOC_PERIPHERAL.a(smp_init.o)
 .arm_vfe_header
                0x0000010c        0x4 C:\9047software\PSoC Creator\3.3\PSoC Creator\psoc\content\cycomponentlibrary\CyComponentLibrary.cylib\BLE_v2_0\Library\gccCyBLEStack_BLE_SOC_PERIPHERAL.a(smp_interface.o)
 .arm_vfe_header
                0x00000110        0x4 C:\9047software\PSoC Creator\3.3\PSoC Creator\psoc\content\cycomponentlibrary\CyComponentLibrary.cylib\BLE_v2_0\Library\gccCyBLEStack_BLE_SOC_PERIPHERAL.a(smp_utils.o)
 .arm_vfe_header
                0x00000114        0x4 C:\9047software\PSoC Creator\3.3\PSoC Creator\psoc\content\cycomponentlibrary\CyComponentLibrary.cylib\BLE_v2_0\Library\gccCyBLEStack_BLE_SOC_PERIPHERAL.a(smp_fsm_engine.o)
 .arm_vfe_header
                0x00000118        0x4 C:\9047software\PSoC Creator\3.3\PSoC Creator\psoc\content\cycomponentlibrary\CyComponentLibrary.cylib\BLE_v2_0\Library\gccCyBLEStack_BLE_SOC_PERIPHERAL.a(smp_fsm_table.o)
 .arm_vfe_header
                0x0000011c        0x4 C:\9047software\PSoC Creator\3.3\PSoC Creator\psoc\content\cycomponentlibrary\CyComponentLibrary.cylib\BLE_v2_0\Library\gccCyBLEStack_BLE_SOC_PERIPHERAL.a(smp_tools.o)
 .arm_vfe_header
                0x00000120        0x4 C:\9047software\PSoC Creator\3.3\PSoC Creator\psoc\content\cycomponentlibrary\CyComponentLibrary.cylib\BLE_v2_0\Library\gccCyBLEStack_BLE_SOC_PERIPHERAL.a(smp_psstore.o)
 .arm_vfe_header
                0x00000124        0x4 C:\9047software\PSoC Creator\3.3\PSoC Creator\psoc\content\cycomponentlibrary\CyComponentLibrary.cylib\BLE_v2_0\Library\gccCyBLEStack_BLE_SOC_PERIPHERAL.a(write_task.o)
 .arm_vfe_header
                0x00000128        0x4 C:\9047software\PSoC Creator\3.3\PSoC Creator\psoc\content\cycomponentlibrary\CyComponentLibrary.cylib\BLE_v2_0\Library\gccCyBLEStack_BLE_SOC_PERIPHERAL.a(aes_cmac.o)
 .arm_vfe_header
                0x0000012c        0x4 C:\9047software\PSoC Creator\3.3\PSoC Creator\psoc\content\cycomponentlibrary\CyComponentLibrary.cylib\BLE_v2_0\Library\gccCyBLEStack_BLE_SOC_PERIPHERAL.a(aes_cmac_pl.o)
 .arm_vfe_header
                0x00000130        0x4 C:\9047software\PSoC Creator\3.3\PSoC Creator\psoc\content\cycomponentlibrary\CyComponentLibrary.cylib\BLE_v2_0\Library\gccCyBLEStack_BLE_SOC_PERIPHERAL.a(status.o)
 .arm_vfe_header
                0x00000134        0x4 C:\9047software\PSoC Creator\3.3\PSoC Creator\psoc\content\cycomponentlibrary\CyComponentLibrary.cylib\BLE_v2_0\Library\gccCyBLEStack_BLE_SOC_PERIPHERAL.a(storage.o)
 .arm_vfe_header
                0x00000138        0x4 C:\9047software\PSoC Creator\3.3\PSoC Creator\psoc\content\cycomponentlibrary\CyComponentLibrary.cylib\BLE_v2_0\Library\gccCyBLEStack_BLE_SOC_PERIPHERAL.a(bt_os_common.o)
 .arm_vfe_header
                0x0000013c        0x4 C:\9047software\PSoC Creator\3.3\PSoC Creator\psoc\content\cycomponentlibrary\CyComponentLibrary.cylib\BLE_v2_0\Library\gccCyBLEStack_BLE_SOC_PERIPHERAL.a(BT_timer.o)
 .arm_vfe_header
                0x00000140        0x4 C:\9047software\PSoC Creator\3.3\PSoC Creator\psoc\content\cycomponentlibrary\CyComponentLibrary.cylib\BLE_v2_0\Library\gccCyBLEStack_BLE_SOC_PERIPHERAL.a(storage_pl.o)
 .arm_vfe_header
                0x00000144        0x4 C:\9047software\PSoC Creator\3.3\PSoC Creator\psoc\content\cycomponentlibrary\CyComponentLibrary.cylib\BLE_v2_0\Library\gccCyBLEStack_BLE_SOC_PERIPHERAL.a(drbg.o)
 .arm_vfe_header
                0x00000148        0x4 C:\9047software\PSoC Creator\3.3\PSoC Creator\psoc\content\cycomponentlibrary\CyComponentLibrary.cylib\BLE_v2_0\Library\gccCyBLEStack_BLE_SOC_PERIPHERAL.a(bt_fw_os_al.o)
 .arm_vfe_header
                0x0000014c        0x4 C:\9047software\PSoC Creator\3.3\PSoC Creator\psoc\content\cycomponentlibrary\CyComponentLibrary.cylib\BLE_v2_0\Library\gccCyBLEStack_BLE_SOC_PERIPHERAL.a(lec_hci_br_edr_commands.o)
 .arm_vfe_header
                0x00000150        0x4 C:\9047software\PSoC Creator\3.3\PSoC Creator\psoc\content\cycomponentlibrary\CyComponentLibrary.cylib\BLE_v2_0\Library\gccCyBLEStack_BLE_SOC_PERIPHERAL.a(lec_hci_le_adv_commands.o)
 .arm_vfe_header
                0x00000154        0x4 C:\9047software\PSoC Creator\3.3\PSoC Creator\psoc\content\cycomponentlibrary\CyComponentLibrary.cylib\BLE_v2_0\Library\gccCyBLEStack_BLE_SOC_PERIPHERAL.a(BT_common_pl.o)
 .arm_vfe_header
                0x00000158        0x4 C:\9047software\PSoC Creator\3.3\PSoC Creator\psoc\content\cycomponentlibrary\CyComponentLibrary.cylib\BLE_v2_0\Library\gccCyBLEStack_BLE_SOC_PERIPHERAL.a(device_queue_pl.o)
 .arm_vfe_header
                0x0000015c        0x4 C:\9047software\PSoC Creator\3.3\PSoC Creator\psoc\content\cycomponentlibrary\CyComponentLibrary.cylib\BLE_v2_0\Library\gccCyBLEStack_BLE_SOC_PERIPHERAL.a(smp_pl.o)
 .arm_vfe_header
                0x00000160        0x4 C:\9047software\PSoC Creator\3.3\PSoC Creator\psoc\content\cycomponentlibrary\CyComponentLibrary.cylib\BLE_v2_0\Library\gccCyBLEStack_BLE_SOC_PERIPHERAL.a(att_fsm_table.o)
 .arm_vfe_header
                0x00000164        0x4 C:\9047software\PSoC Creator\3.3\PSoC Creator\psoc\content\cycomponentlibrary\CyComponentLibrary.cylib\BLE_v2_0\Library\gccCyBLEStack_BLE_SOC_PERIPHERAL.a(l2cap_data_recv.o)
 .arm_vfe_header
                0x00000168        0x4 C:\9047software\PSoC Creator\3.3\PSoC Creator\psoc\content\cycomponentlibrary\CyComponentLibrary.cylib\BLE_v2_0\Library\gccCyBLEStack_BLE_SOC_PERIPHERAL.a(gattDbInternal.o)
 .arm_vfe_header
                0x0000016c        0x4 C:\9047software\PSoC Creator\3.3\PSoC Creator\psoc\content\cycomponentlibrary\CyComponentLibrary.cylib\BLE_v2_0\Library\gccCyBLEStack_BLE_SOC_PERIPHERAL.a(hci_command_queue.o)
 .arm_vfe_header
                0x00000170        0x4 C:\9047software\PSoC Creator\3.3\PSoC Creator\psoc\content\cycomponentlibrary\CyComponentLibrary.cylib\BLE_v2_0\Library\gccCyBLEStack_BLE_SOC_PERIPHERAL.a(hci_connect.o)
 .arm_vfe_header
                0x00000174        0x4 C:\9047software\PSoC Creator\3.3\PSoC Creator\psoc\content\cycomponentlibrary\CyComponentLibrary.cylib\BLE_v2_0\Library\gccCyBLEStack_BLE_SOC_PERIPHERAL.a(hci_disconnect.o)
 .arm_vfe_header
                0x00000178        0x4 C:\9047software\PSoC Creator\3.3\PSoC Creator\psoc\content\cycomponentlibrary\CyComponentLibrary.cylib\BLE_v2_0\Library\gccCyBLEStack_BLE_SOC_PERIPHERAL.a(smp_fsm_handlers.o)
 .arm_vfe_header
                0x0000017c        0x4 C:\9047software\PSoC Creator\3.3\PSoC Creator\psoc\content\cycomponentlibrary\CyComponentLibrary.cylib\BLE_v2_0\Library\gccCyBLEStack_BLE_SOC_PERIPHERAL.a(att_fsm_handlers.o)
 .arm_vfe_header
                0x00000180        0x4 C:\9047software\PSoC Creator\3.3\PSoC Creator\psoc\content\cycomponentlibrary\CyComponentLibrary.cylib\BLE_v2_0\Library\gccCyBLEStack_BLE_SOC_PERIPHERAL.a(l2cap_connect.o)
 .arm_vfe_header
                0x00000184        0x4 C:\9047software\PSoC Creator\3.3\PSoC Creator\psoc\content\cycomponentlibrary\CyComponentLibrary.cylib\BLE_v2_0\Library\gccCyBLEStack_BLE_SOC_PERIPHERAL.a(ll_isr.o)

.debug_weaknames
 *(.debug_weaknames)

.debug_funcnames
 *(.debug_funcnames)

.debug_typenames
 *(.debug_typenames)

.debug_varnames
 *(.debug_varnames)

.note.gnu.arm.ident
 *(.note.gnu.arm.ident)

.ARM.attributes
                0x00000000       0x2a
 *(.ARM.attributes)
 .ARM.attributes
                0x00000000       0x1e c:/9047software/psoc creator/3.3/psoc creator/import/gnu/arm/4.9.3/bin/../lib/gcc/arm-none-eabi/4.9.3/armv6-m/crti.o
 .ARM.attributes
                0x0000001e       0x2c c:/9047software/psoc creator/3.3/psoc creator/import/gnu/arm/4.9.3/bin/../lib/gcc/arm-none-eabi/4.9.3/armv6-m/crtbegin.o
 .ARM.attributes
                0x0000004a       0x1b c:/9047software/psoc creator/3.3/psoc creator/import/gnu/arm/4.9.3/bin/../lib/gcc/arm-none-eabi/4.9.3/../../../../arm-none-eabi/lib/armv6-m/crt0.o
 .ARM.attributes
                0x00000065       0x31 .\CortexM0\ARM_GCC_493\Debug\main.o
 .ARM.attributes
                0x00000096       0x31 .\CortexM0\ARM_GCC_493\Debug\HeartRateProcessing.o
 .ARM.attributes
                0x000000c7       0x31 .\CortexM0\ARM_GCC_493\Debug\BleProcessing.o
 .ARM.attributes
                0x000000f8       0x31 .\CortexM0\ARM_GCC_493\Debug\WatchdogTimer.o
 .ARM.attributes
                0x00000129       0x31 .\CortexM0\ARM_GCC_493\Debug\cymetadata.o
 .ARM.attributes
                0x0000015a       0x31 .\CortexM0\ARM_GCC_493\Debug\Cm0Start.o
 .ARM.attributes
                0x0000018b       0x31 .\CortexM0\ARM_GCC_493\Debug\BLE Lab 3.a(cyfitter_cfg.o)
 .ARM.attributes
                0x000001bc       0x31 .\CortexM0\ARM_GCC_493\Debug\BLE Lab 3.a(SW2_Switch.o)
 .ARM.attributes
                0x000001ed       0x31 .\CortexM0\ARM_GCC_493\Debug\BLE Lab 3.a(Wakeup_ISR.o)
 .ARM.attributes
                0x0000021e       0x31 .\CortexM0\ARM_GCC_493\Debug\BLE Lab 3.a(Led_Advertising_Green.o)
 .ARM.attributes
                0x0000024f       0x31 .\CortexM0\ARM_GCC_493\Debug\BLE Lab 3.a(Led_Connected_Blue.o)
 .ARM.attributes
                0x00000280       0x31 .\CortexM0\ARM_GCC_493\Debug\BLE Lab 3.a(BLE_hrs.o)
 .ARM.attributes
                0x000002b1       0x31 .\CortexM0\ARM_GCC_493\Debug\BLE Lab 3.a(BLE.o)
 .ARM.attributes
                0x000002e2       0x31 .\CortexM0\ARM_GCC_493\Debug\BLE Lab 3.a(BLE_gatt.o)
 .ARM.attributes
                0x00000313       0x31 .\CortexM0\ARM_GCC_493\Debug\BLE Lab 3.a(BLE_eventHandler.o)
 .ARM.attributes
                0x00000344       0x31 .\CortexM0\ARM_GCC_493\Debug\BLE Lab 3.a(BLE_dis.o)
 .ARM.attributes
                0x00000375       0x31 .\CortexM0\ARM_GCC_493\Debug\BLE Lab 3.a(Opamp.o)
 .ARM.attributes
                0x000003a6       0x31 .\CortexM0\ARM_GCC_493\Debug\BLE Lab 3.a(ADC.o)
 .ARM.attributes
                0x000003d7       0x31 .\CortexM0\ARM_GCC_493\Debug\BLE Lab 3.a(ADC_PM.o)
 .ARM.attributes
                0x00000408       0x31 .\CortexM0\ARM_GCC_493\Debug\BLE Lab 3.a(ADC_INT.o)
 .ARM.attributes
                0x00000439       0x21 .\CortexM0\ARM_GCC_493\Debug\BLE Lab 3.a(CyBootAsmGnu.o)
 .ARM.attributes
                0x0000045a       0x31 .\CortexM0\ARM_GCC_493\Debug\BLE Lab 3.a(CyLib.o)
 .ARM.attributes
                0x0000048b       0x31 .\CortexM0\ARM_GCC_493\Debug\BLE Lab 3.a(cyPm.o)
 .ARM.attributes
                0x000004bc       0x31 .\CortexM0\ARM_GCC_493\Debug\BLE Lab 3.a(CyLFClk.o)
 .ARM.attributes
                0x000004ed       0x44 C:\9047software\PSoC Creator\3.3\PSoC Creator\psoc\content\cycomponentlibrary\CyComponentLibrary.cylib\BLE_v2_0\Library\gccCyBLEStack_BLE_SOC_PERIPHERAL.a(CyBle.o)
 .ARM.attributes
                0x00000531       0x44 C:\9047software\PSoC Creator\3.3\PSoC Creator\psoc\content\cycomponentlibrary\CyComponentLibrary.cylib\BLE_v2_0\Library\gccCyBLEStack_BLE_SOC_PERIPHERAL.a(CyBleStackMgrIP_Interface.o)
 .ARM.attributes
                0x00000575       0x44 C:\9047software\PSoC Creator\3.3\PSoC Creator\psoc\content\cycomponentlibrary\CyComponentLibrary.cylib\BLE_v2_0\Library\gccCyBLEStack_BLE_SOC_PERIPHERAL.a(BT_os.o)
 .ARM.attributes
                0x000005b9       0x44 C:\9047software\PSoC Creator\3.3\PSoC Creator\psoc\content\cycomponentlibrary\CyComponentLibrary.cylib\BLE_v2_0\Library\gccCyBLEStack_BLE_SOC_PERIPHERAL.a(CyBleStackMgr_StackTaskHandler.o)
 .ARM.attributes
                0x000005fd       0x44 C:\9047software\PSoC Creator\3.3\PSoC Creator\psoc\content\cycomponentlibrary\CyComponentLibrary.cylib\BLE_v2_0\Library\gccCyBLEStack_BLE_SOC_PERIPHERAL.a(transport_sf.o)
 .ARM.attributes
                0x00000641       0x44 C:\9047software\PSoC Creator\3.3\PSoC Creator\psoc\content\cycomponentlibrary\CyComponentLibrary.cylib\BLE_v2_0\Library\gccCyBLEStack_BLE_SOC_PERIPHERAL.a(CyBleStackMgr_PSoCHal.o)
 .ARM.attributes
                0x00000685       0x44 C:\9047software\PSoC Creator\3.3\PSoC Creator\psoc\content\cycomponentlibrary\CyComponentLibrary.cylib\BLE_v2_0\Library\gccCyBLEStack_BLE_SOC_PERIPHERAL.a(CyBleStackMgr_BleSSDriver.o)
 .ARM.attributes
                0x000006c9       0x44 C:\9047software\PSoC Creator\3.3\PSoC Creator\psoc\content\cycomponentlibrary\CyComponentLibrary.cylib\BLE_v2_0\Library\gccCyBLEStack_BLE_SOC_PERIPHERAL.a(config_bin.o)
 .ARM.attributes
                0x0000070d       0x44 C:\9047software\PSoC Creator\3.3\PSoC Creator\psoc\content\cycomponentlibrary\CyComponentLibrary.cylib\BLE_v2_0\Library\gccCyBLEStack_BLE_SOC_PERIPHERAL.a(mint_os.o)
 .ARM.attributes
                0x00000751       0x44 C:\9047software\PSoC Creator\3.3\PSoC Creator\psoc\content\cycomponentlibrary\CyComponentLibrary.cylib\BLE_v2_0\Library\gccCyBLEStack_BLE_SOC_PERIPHERAL.a(mint_os_queue.o)
 .ARM.attributes
                0x00000795       0x44 C:\9047software\PSoC Creator\3.3\PSoC Creator\psoc\content\cycomponentlibrary\CyComponentLibrary.cylib\BLE_v2_0\Library\gccCyBLEStack_BLE_SOC_PERIPHERAL.a(mint_os_task.o)
 .ARM.attributes
                0x000007d9       0x44 C:\9047software\PSoC Creator\3.3\PSoC Creator\psoc\content\cycomponentlibrary\CyComponentLibrary.cylib\BLE_v2_0\Library\gccCyBLEStack_BLE_SOC_PERIPHERAL.a(mint_buf_mgmt.o)
 .ARM.attributes
                0x0000081d       0x44 C:\9047software\PSoC Creator\3.3\PSoC Creator\psoc\content\cycomponentlibrary\CyComponentLibrary.cylib\BLE_v2_0\Library\gccCyBLEStack_BLE_SOC_PERIPHERAL.a(CyBleControllerIP_Interface.o)
 .ARM.attributes
                0x00000861       0x44 C:\9047software\PSoC Creator\3.3\PSoC Creator\psoc\content\cycomponentlibrary\CyComponentLibrary.cylib\BLE_v2_0\Library\gccCyBLEStack_BLE_SOC_PERIPHERAL.a(ll.o)
 .ARM.attributes
                0x000008a5       0x44 C:\9047software\PSoC Creator\3.3\PSoC Creator\psoc\content\cycomponentlibrary\CyComponentLibrary.cylib\BLE_v2_0\Library\gccCyBLEStack_BLE_SOC_PERIPHERAL.a(ll_advertiser.o)
 .ARM.attributes
                0x000008e9       0x44 C:\9047software\PSoC Creator\3.3\PSoC Creator\psoc\content\cycomponentlibrary\CyComponentLibrary.cylib\BLE_v2_0\Library\gccCyBLEStack_BLE_SOC_PERIPHERAL.a(ll_connection.o)
 .ARM.attributes
                0x0000092d       0x44 C:\9047software\PSoC Creator\3.3\PSoC Creator\psoc\content\cycomponentlibrary\CyComponentLibrary.cylib\BLE_v2_0\Library\gccCyBLEStack_BLE_SOC_PERIPHERAL.a(llh_api.o)
 .ARM.attributes
                0x00000971       0x44 C:\9047software\PSoC Creator\3.3\PSoC Creator\psoc\content\cycomponentlibrary\CyComponentLibrary.cylib\BLE_v2_0\Library\gccCyBLEStack_BLE_SOC_PERIPHERAL.a(llh_utils.o)
 .ARM.attributes
                0x000009b5       0x44 C:\9047software\PSoC Creator\3.3\PSoC Creator\psoc\content\cycomponentlibrary\CyComponentLibrary.cylib\BLE_v2_0\Library\gccCyBLEStack_BLE_SOC_PERIPHERAL.a(ll_pdu.o)
 .ARM.attributes
                0x000009f9       0x44 C:\9047software\PSoC Creator\3.3\PSoC Creator\psoc\content\cycomponentlibrary\CyComponentLibrary.cylib\BLE_v2_0\Library\gccCyBLEStack_BLE_SOC_PERIPHERAL.a(ll_policies.o)
 .ARM.attributes
                0x00000a3d       0x44 C:\9047software\PSoC Creator\3.3\PSoC Creator\psoc\content\cycomponentlibrary\CyComponentLibrary.cylib\BLE_v2_0\Library\gccCyBLEStack_BLE_SOC_PERIPHERAL.a(ll_tasks.o)
 .ARM.attributes
                0x00000a81       0x44 C:\9047software\PSoC Creator\3.3\PSoC Creator\psoc\content\cycomponentlibrary\CyComponentLibrary.cylib\BLE_v2_0\Library\gccCyBLEStack_BLE_SOC_PERIPHERAL.a(ll_utils.o)
 .ARM.attributes
                0x00000ac5       0x44 C:\9047software\PSoC Creator\3.3\PSoC Creator\psoc\content\cycomponentlibrary\CyComponentLibrary.cylib\BLE_v2_0\Library\gccCyBLEStack_BLE_SOC_PERIPHERAL.a(llf_task.o)
 .ARM.attributes
                0x00000b09       0x44 C:\9047software\PSoC Creator\3.3\PSoC Creator\psoc\content\cycomponentlibrary\CyComponentLibrary.cylib\BLE_v2_0\Library\gccCyBLEStack_BLE_SOC_PERIPHERAL.a(lec_hci_le.o)
 .ARM.attributes
                0x00000b4d       0x44 C:\9047software\PSoC Creator\3.3\PSoC Creator\psoc\content\cycomponentlibrary\CyComponentLibrary.cylib\BLE_v2_0\Library\gccCyBLEStack_BLE_SOC_PERIPHERAL.a(lec_hci_le_commands.o)
 .ARM.attributes
                0x00000b91       0x44 C:\9047software\PSoC Creator\3.3\PSoC Creator\psoc\content\cycomponentlibrary\CyComponentLibrary.cylib\BLE_v2_0\Library\gccCyBLEStack_BLE_SOC_PERIPHERAL.a(lec_hci_le_common_commands.o)
 .ARM.attributes
                0x00000bd5       0x44 C:\9047software\PSoC Creator\3.3\PSoC Creator\psoc\content\cycomponentlibrary\CyComponentLibrary.cylib\BLE_v2_0\Library\gccCyBLEStack_BLE_SOC_PERIPHERAL.a(lec_hci_le_conn_commands.o)
 .ARM.attributes
                0x00000c19       0x44 C:\9047software\PSoC Creator\3.3\PSoC Creator\psoc\content\cycomponentlibrary\CyComponentLibrary.cylib\BLE_v2_0\Library\gccCyBLEStack_BLE_SOC_PERIPHERAL.a(lec_hci_le_encryption_commands.o)
 .ARM.attributes
                0x00000c5d       0x44 C:\9047software\PSoC Creator\3.3\PSoC Creator\psoc\content\cycomponentlibrary\CyComponentLibrary.cylib\BLE_v2_0\Library\gccCyBLEStack_BLE_SOC_PERIPHERAL.a(lec_hci_le_utils.o)
 .ARM.attributes
                0x00000ca1       0x44 C:\9047software\PSoC Creator\3.3\PSoC Creator\psoc\content\cycomponentlibrary\CyComponentLibrary.cylib\BLE_v2_0\Library\gccCyBLEStack_BLE_SOC_PERIPHERAL.a(lec_hci_param_converter.o)
 .ARM.attributes
                0x00000ce5       0x44 C:\9047software\PSoC Creator\3.3\PSoC Creator\psoc\content\cycomponentlibrary\CyComponentLibrary.cylib\BLE_v2_0\Library\gccCyBLEStack_BLE_SOC_PERIPHERAL.a(lec_hci_param_validation.o)
 .ARM.attributes
                0x00000d29       0x44 C:\9047software\PSoC Creator\3.3\PSoC Creator\psoc\content\cycomponentlibrary\CyComponentLibrary.cylib\BLE_v2_0\Library\gccCyBLEStack_BLE_SOC_PERIPHERAL.a(hci_td.o)
 .ARM.attributes
                0x00000d6d       0x44 C:\9047software\PSoC Creator\3.3\PSoC Creator\psoc\content\cycomponentlibrary\CyComponentLibrary.cylib\BLE_v2_0\Library\gccCyBLEStack_BLE_SOC_PERIPHERAL.a(hci_td_api.o)
 .ARM.attributes
                0x00000db1       0x44 C:\9047software\PSoC Creator\3.3\PSoC Creator\psoc\content\cycomponentlibrary\CyComponentLibrary.cylib\BLE_v2_0\Library\gccCyBLEStack_BLE_SOC_PERIPHERAL.a(hci_td_task.o)
 .ARM.attributes
                0x00000df5       0x44 C:\9047software\PSoC Creator\3.3\PSoC Creator\psoc\content\cycomponentlibrary\CyComponentLibrary.cylib\BLE_v2_0\Library\gccCyBLEStack_BLE_SOC_PERIPHERAL.a(host_main.o)
 .ARM.attributes
                0x00000e39       0x44 C:\9047software\PSoC Creator\3.3\PSoC Creator\psoc\content\cycomponentlibrary\CyComponentLibrary.cylib\BLE_v2_0\Library\gccCyBLEStack_BLE_SOC_PERIPHERAL.a(att_api.o)
 .ARM.attributes
                0x00000e7d       0x44 C:\9047software\PSoC Creator\3.3\PSoC Creator\psoc\content\cycomponentlibrary\CyComponentLibrary.cylib\BLE_v2_0\Library\gccCyBLEStack_BLE_SOC_PERIPHERAL.a(att_init.o)
 .ARM.attributes
                0x00000ec1       0x44 C:\9047software\PSoC Creator\3.3\PSoC Creator\psoc\content\cycomponentlibrary\CyComponentLibrary.cylib\BLE_v2_0\Library\gccCyBLEStack_BLE_SOC_PERIPHERAL.a(att_internal.o)
 .ARM.attributes
                0x00000f05       0x44 C:\9047software\PSoC Creator\3.3\PSoC Creator\psoc\content\cycomponentlibrary\CyComponentLibrary.cylib\BLE_v2_0\Library\gccCyBLEStack_BLE_SOC_PERIPHERAL.a(BT_common.o)
 .ARM.attributes
                0x00000f49       0x44 C:\9047software\PSoC Creator\3.3\PSoC Creator\psoc\content\cycomponentlibrary\CyComponentLibrary.cylib\BLE_v2_0\Library\gccCyBLEStack_BLE_SOC_PERIPHERAL.a(device_queue.o)
 .ARM.attributes
                0x00000f8d       0x44 C:\9047software\PSoC Creator\3.3\PSoC Creator\psoc\content\cycomponentlibrary\CyComponentLibrary.cylib\BLE_v2_0\Library\gccCyBLEStack_BLE_SOC_PERIPHERAL.a(l2cap.o)
 .ARM.attributes
                0x00000fd1       0x44 C:\9047software\PSoC Creator\3.3\PSoC Creator\psoc\content\cycomponentlibrary\CyComponentLibrary.cylib\BLE_v2_0\Library\gccCyBLEStack_BLE_SOC_PERIPHERAL.a(l2cap_disconnect.o)
 .ARM.attributes
                0x00001015       0x44 C:\9047software\PSoC Creator\3.3\PSoC Creator\psoc\content\cycomponentlibrary\CyComponentLibrary.cylib\BLE_v2_0\Library\gccCyBLEStack_BLE_SOC_PERIPHERAL.a(l2cap_init.o)
 .ARM.attributes
                0x00001059       0x44 C:\9047software\PSoC Creator\3.3\PSoC Creator\psoc\content\cycomponentlibrary\CyComponentLibrary.cylib\BLE_v2_0\Library\gccCyBLEStack_BLE_SOC_PERIPHERAL.a(l2cap_utils.o)
 .ARM.attributes
                0x0000109d       0x44 C:\9047software\PSoC Creator\3.3\PSoC Creator\psoc\content\cycomponentlibrary\CyComponentLibrary.cylib\BLE_v2_0\Library\gccCyBLEStack_BLE_SOC_PERIPHERAL.a(l2cap_lmp.o)
 .ARM.attributes
                0x000010e1       0x44 C:\9047software\PSoC Creator\3.3\PSoC Creator\psoc\content\cycomponentlibrary\CyComponentLibrary.cylib\BLE_v2_0\Library\gccCyBLEStack_BLE_SOC_PERIPHERAL.a(l2cap_le.o)
 .ARM.attributes
                0x00001125       0x44 C:\9047software\PSoC Creator\3.3\PSoC Creator\psoc\content\cycomponentlibrary\CyComponentLibrary.cylib\BLE_v2_0\Library\gccCyBLEStack_BLE_SOC_PERIPHERAL.a(l2cap_fixed_channel.o)
 .ARM.attributes
                0x00001169       0x44 C:\9047software\PSoC Creator\3.3\PSoC Creator\psoc\content\cycomponentlibrary\CyComponentLibrary.cylib\BLE_v2_0\Library\gccCyBLEStack_BLE_SOC_PERIPHERAL.a(l2cap_channels.o)
 .ARM.attributes
                0x000011ad       0x44 C:\9047software\PSoC Creator\3.3\PSoC Creator\psoc\content\cycomponentlibrary\CyComponentLibrary.cylib\BLE_v2_0\Library\gccCyBLEStack_BLE_SOC_PERIPHERAL.a(l2cap_credit_mode.o)
 .ARM.attributes
                0x000011f1       0x44 C:\9047software\PSoC Creator\3.3\PSoC Creator\psoc\content\cycomponentlibrary\CyComponentLibrary.cylib\BLE_v2_0\Library\gccCyBLEStack_BLE_SOC_PERIPHERAL.a(l2cap_command.o)
 .ARM.attributes
                0x00001235       0x44 C:\9047software\PSoC Creator\3.3\PSoC Creator\psoc\content\cycomponentlibrary\CyComponentLibrary.cylib\BLE_v2_0\Library\gccCyBLEStack_BLE_SOC_PERIPHERAL.a(fsm_engine.o)
 .ARM.attributes
                0x00001279       0x44 C:\9047software\PSoC Creator\3.3\PSoC Creator\psoc\content\cycomponentlibrary\CyComponentLibrary.cylib\BLE_v2_0\Library\gccCyBLEStack_BLE_SOC_PERIPHERAL.a(fsm_engine_pl.o)
 .ARM.attributes
                0x000012bd       0x44 C:\9047software\PSoC Creator\3.3\PSoC Creator\psoc\content\cycomponentlibrary\CyComponentLibrary.cylib\BLE_v2_0\Library\gccCyBLEStack_BLE_SOC_PERIPHERAL.a(gap.o)
 .ARM.attributes
                0x00001301       0x44 C:\9047software\PSoC Creator\3.3\PSoC Creator\psoc\content\cycomponentlibrary\CyComponentLibrary.cylib\BLE_v2_0\Library\gccCyBLEStack_BLE_SOC_PERIPHERAL.a(gatt.o)
 .ARM.attributes
                0x00001345       0x44 C:\9047software\PSoC Creator\3.3\PSoC Creator\psoc\content\cycomponentlibrary\CyComponentLibrary.cylib\BLE_v2_0\Library\gccCyBLEStack_BLE_SOC_PERIPHERAL.a(gattClient.o)
 .ARM.attributes
                0x00001389       0x44 C:\9047software\PSoC Creator\3.3\PSoC Creator\psoc\content\cycomponentlibrary\CyComponentLibrary.cylib\BLE_v2_0\Library\gccCyBLEStack_BLE_SOC_PERIPHERAL.a(gattServer.o)
 .ARM.attributes
                0x000013cd       0x44 C:\9047software\PSoC Creator\3.3\PSoC Creator\psoc\content\cycomponentlibrary\CyComponentLibrary.cylib\BLE_v2_0\Library\gccCyBLEStack_BLE_SOC_PERIPHERAL.a(gattDbHandler.o)
 .ARM.attributes
                0x00001411       0x44 C:\9047software\PSoC Creator\3.3\PSoC Creator\psoc\content\cycomponentlibrary\CyComponentLibrary.cylib\BLE_v2_0\Library\gccCyBLEStack_BLE_SOC_PERIPHERAL.a(hci_api.o)
 .ARM.attributes
                0x00001455       0x44 C:\9047software\PSoC Creator\3.3\PSoC Creator\psoc\content\cycomponentlibrary\CyComponentLibrary.cylib\BLE_v2_0\Library\gccCyBLEStack_BLE_SOC_PERIPHERAL.a(hci_link_control_api.o)
 .ARM.attributes
                0x00001499       0x44 C:\9047software\PSoC Creator\3.3\PSoC Creator\psoc\content\cycomponentlibrary\CyComponentLibrary.cylib\BLE_v2_0\Library\gccCyBLEStack_BLE_SOC_PERIPHERAL.a(hci_commands.o)
 .ARM.attributes
                0x000014dd       0x44 C:\9047software\PSoC Creator\3.3\PSoC Creator\psoc\content\cycomponentlibrary\CyComponentLibrary.cylib\BLE_v2_0\Library\gccCyBLEStack_BLE_SOC_PERIPHERAL.a(hci_events.o)
 .ARM.attributes
                0x00001521       0x44 C:\9047software\PSoC Creator\3.3\PSoC Creator\psoc\content\cycomponentlibrary\CyComponentLibrary.cylib\BLE_v2_0\Library\gccCyBLEStack_BLE_SOC_PERIPHERAL.a(hci_init.o)
 .ARM.attributes
                0x00001565       0x44 C:\9047software\PSoC Creator\3.3\PSoC Creator\psoc\content\cycomponentlibrary\CyComponentLibrary.cylib\BLE_v2_0\Library\gccCyBLEStack_BLE_SOC_PERIPHERAL.a(hci_le_api.o)
 .ARM.attributes
                0x000015a9       0x44 C:\9047software\PSoC Creator\3.3\PSoC Creator\psoc\content\cycomponentlibrary\CyComponentLibrary.cylib\BLE_v2_0\Library\gccCyBLEStack_BLE_SOC_PERIPHERAL.a(hci_utils.o)
 .ARM.attributes
                0x000015ed       0x44 C:\9047software\PSoC Creator\3.3\PSoC Creator\psoc\content\cycomponentlibrary\CyComponentLibrary.cylib\BLE_v2_0\Library\gccCyBLEStack_BLE_SOC_PERIPHERAL.a(smp_api.o)
 .ARM.attributes
                0x00001631       0x44 C:\9047software\PSoC Creator\3.3\PSoC Creator\psoc\content\cycomponentlibrary\CyComponentLibrary.cylib\BLE_v2_0\Library\gccCyBLEStack_BLE_SOC_PERIPHERAL.a(smp_core.o)
 .ARM.attributes
                0x00001675       0x44 C:\9047software\PSoC Creator\3.3\PSoC Creator\psoc\content\cycomponentlibrary\CyComponentLibrary.cylib\BLE_v2_0\Library\gccCyBLEStack_BLE_SOC_PERIPHERAL.a(smp_init.o)
 .ARM.attributes
                0x000016b9       0x44 C:\9047software\PSoC Creator\3.3\PSoC Creator\psoc\content\cycomponentlibrary\CyComponentLibrary.cylib\BLE_v2_0\Library\gccCyBLEStack_BLE_SOC_PERIPHERAL.a(smp_interface.o)
 .ARM.attributes
                0x000016fd       0x44 C:\9047software\PSoC Creator\3.3\PSoC Creator\psoc\content\cycomponentlibrary\CyComponentLibrary.cylib\BLE_v2_0\Library\gccCyBLEStack_BLE_SOC_PERIPHERAL.a(smp_utils.o)
 .ARM.attributes
                0x00001741       0x44 C:\9047software\PSoC Creator\3.3\PSoC Creator\psoc\content\cycomponentlibrary\CyComponentLibrary.cylib\BLE_v2_0\Library\gccCyBLEStack_BLE_SOC_PERIPHERAL.a(smp_fsm_engine.o)
 .ARM.attributes
                0x00001785       0x44 C:\9047software\PSoC Creator\3.3\PSoC Creator\psoc\content\cycomponentlibrary\CyComponentLibrary.cylib\BLE_v2_0\Library\gccCyBLEStack_BLE_SOC_PERIPHERAL.a(smp_fsm_table.o)
 .ARM.attributes
                0x000017c9       0x44 C:\9047software\PSoC Creator\3.3\PSoC Creator\psoc\content\cycomponentlibrary\CyComponentLibrary.cylib\BLE_v2_0\Library\gccCyBLEStack_BLE_SOC_PERIPHERAL.a(smp_tools.o)
 .ARM.attributes
                0x0000180d       0x44 C:\9047software\PSoC Creator\3.3\PSoC Creator\psoc\content\cycomponentlibrary\CyComponentLibrary.cylib\BLE_v2_0\Library\gccCyBLEStack_BLE_SOC_PERIPHERAL.a(smp_psstore.o)
 .ARM.attributes
                0x00001851       0x44 C:\9047software\PSoC Creator\3.3\PSoC Creator\psoc\content\cycomponentlibrary\CyComponentLibrary.cylib\BLE_v2_0\Library\gccCyBLEStack_BLE_SOC_PERIPHERAL.a(write_task.o)
 .ARM.attributes
                0x00001895       0x44 C:\9047software\PSoC Creator\3.3\PSoC Creator\psoc\content\cycomponentlibrary\CyComponentLibrary.cylib\BLE_v2_0\Library\gccCyBLEStack_BLE_SOC_PERIPHERAL.a(aes_cmac.o)
 .ARM.attributes
                0x000018d9       0x44 C:\9047software\PSoC Creator\3.3\PSoC Creator\psoc\content\cycomponentlibrary\CyComponentLibrary.cylib\BLE_v2_0\Library\gccCyBLEStack_BLE_SOC_PERIPHERAL.a(aes_cmac_pl.o)
 .ARM.attributes
                0x0000191d       0x44 C:\9047software\PSoC Creator\3.3\PSoC Creator\psoc\content\cycomponentlibrary\CyComponentLibrary.cylib\BLE_v2_0\Library\gccCyBLEStack_BLE_SOC_PERIPHERAL.a(status.o)
 .ARM.attributes
                0x00001961       0x44 C:\9047software\PSoC Creator\3.3\PSoC Creator\psoc\content\cycomponentlibrary\CyComponentLibrary.cylib\BLE_v2_0\Library\gccCyBLEStack_BLE_SOC_PERIPHERAL.a(storage.o)
 .ARM.attributes
                0x000019a5       0x44 C:\9047software\PSoC Creator\3.3\PSoC Creator\psoc\content\cycomponentlibrary\CyComponentLibrary.cylib\BLE_v2_0\Library\gccCyBLEStack_BLE_SOC_PERIPHERAL.a(bt_os_common.o)
 .ARM.attributes
                0x000019e9       0x44 C:\9047software\PSoC Creator\3.3\PSoC Creator\psoc\content\cycomponentlibrary\CyComponentLibrary.cylib\BLE_v2_0\Library\gccCyBLEStack_BLE_SOC_PERIPHERAL.a(BT_timer.o)
 .ARM.attributes
                0x00001a2d       0x44 C:\9047software\PSoC Creator\3.3\PSoC Creator\psoc\content\cycomponentlibrary\CyComponentLibrary.cylib\BLE_v2_0\Library\gccCyBLEStack_BLE_SOC_PERIPHERAL.a(storage_pl.o)
 .ARM.attributes
                0x00001a71       0x44 C:\9047software\PSoC Creator\3.3\PSoC Creator\psoc\content\cycomponentlibrary\CyComponentLibrary.cylib\BLE_v2_0\Library\gccCyBLEStack_BLE_SOC_PERIPHERAL.a(drbg.o)
 .ARM.attributes
                0x00001ab5       0x44 C:\9047software\PSoC Creator\3.3\PSoC Creator\psoc\content\cycomponentlibrary\CyComponentLibrary.cylib\BLE_v2_0\Library\gccCyBLEStack_BLE_SOC_PERIPHERAL.a(bt_fw_os_al.o)
 .ARM.attributes
                0x00001af9       0x44 C:\9047software\PSoC Creator\3.3\PSoC Creator\psoc\content\cycomponentlibrary\CyComponentLibrary.cylib\BLE_v2_0\Library\gccCyBLEStack_BLE_SOC_PERIPHERAL.a(lec_hci_br_edr_commands.o)
 .ARM.attributes
                0x00001b3d       0x44 C:\9047software\PSoC Creator\3.3\PSoC Creator\psoc\content\cycomponentlibrary\CyComponentLibrary.cylib\BLE_v2_0\Library\gccCyBLEStack_BLE_SOC_PERIPHERAL.a(lec_hci_le_adv_commands.o)
 .ARM.attributes
                0x00001b81       0x44 C:\9047software\PSoC Creator\3.3\PSoC Creator\psoc\content\cycomponentlibrary\CyComponentLibrary.cylib\BLE_v2_0\Library\gccCyBLEStack_BLE_SOC_PERIPHERAL.a(BT_common_pl.o)
 .ARM.attributes
                0x00001bc5       0x44 C:\9047software\PSoC Creator\3.3\PSoC Creator\psoc\content\cycomponentlibrary\CyComponentLibrary.cylib\BLE_v2_0\Library\gccCyBLEStack_BLE_SOC_PERIPHERAL.a(device_queue_pl.o)
 .ARM.attributes
                0x00001c09       0x44 C:\9047software\PSoC Creator\3.3\PSoC Creator\psoc\content\cycomponentlibrary\CyComponentLibrary.cylib\BLE_v2_0\Library\gccCyBLEStack_BLE_SOC_PERIPHERAL.a(smp_pl.o)
 .ARM.attributes
                0x00001c4d       0x44 C:\9047software\PSoC Creator\3.3\PSoC Creator\psoc\content\cycomponentlibrary\CyComponentLibrary.cylib\BLE_v2_0\Library\gccCyBLEStack_BLE_SOC_PERIPHERAL.a(att_fsm_table.o)
 .ARM.attributes
                0x00001c91       0x44 C:\9047software\PSoC Creator\3.3\PSoC Creator\psoc\content\cycomponentlibrary\CyComponentLibrary.cylib\BLE_v2_0\Library\gccCyBLEStack_BLE_SOC_PERIPHERAL.a(l2cap_data_recv.o)
 .ARM.attributes
                0x00001cd5       0x44 C:\9047software\PSoC Creator\3.3\PSoC Creator\psoc\content\cycomponentlibrary\CyComponentLibrary.cylib\BLE_v2_0\Library\gccCyBLEStack_BLE_SOC_PERIPHERAL.a(gattDbInternal.o)
 .ARM.attributes
                0x00001d19       0x44 C:\9047software\PSoC Creator\3.3\PSoC Creator\psoc\content\cycomponentlibrary\CyComponentLibrary.cylib\BLE_v2_0\Library\gccCyBLEStack_BLE_SOC_PERIPHERAL.a(hci_command_queue.o)
 .ARM.attributes
                0x00001d5d       0x44 C:\9047software\PSoC Creator\3.3\PSoC Creator\psoc\content\cycomponentlibrary\CyComponentLibrary.cylib\BLE_v2_0\Library\gccCyBLEStack_BLE_SOC_PERIPHERAL.a(hci_connect.o)
 .ARM.attributes
                0x00001da1       0x44 C:\9047software\PSoC Creator\3.3\PSoC Creator\psoc\content\cycomponentlibrary\CyComponentLibrary.cylib\BLE_v2_0\Library\gccCyBLEStack_BLE_SOC_PERIPHERAL.a(hci_disconnect.o)
 .ARM.attributes
                0x00001de5       0x44 C:\9047software\PSoC Creator\3.3\PSoC Creator\psoc\content\cycomponentlibrary\CyComponentLibrary.cylib\BLE_v2_0\Library\gccCyBLEStack_BLE_SOC_PERIPHERAL.a(smp_fsm_handlers.o)
 .ARM.attributes
                0x00001e29       0x44 C:\9047software\PSoC Creator\3.3\PSoC Creator\psoc\content\cycomponentlibrary\CyComponentLibrary.cylib\BLE_v2_0\Library\gccCyBLEStack_BLE_SOC_PERIPHERAL.a(att_fsm_handlers.o)
 .ARM.attributes
                0x00001e6d       0x44 C:\9047software\PSoC Creator\3.3\PSoC Creator\psoc\content\cycomponentlibrary\CyComponentLibrary.cylib\BLE_v2_0\Library\gccCyBLEStack_BLE_SOC_PERIPHERAL.a(l2cap_connect.o)
 .ARM.attributes
                0x00001eb1       0x31 .\CortexM0\ARM_GCC_493\Debug\BLE Lab 3.a(BLE_HAL_PVT.o)
 .ARM.attributes
                0x00001ee2       0x31 .\CortexM0\ARM_GCC_493\Debug\BLE Lab 3.a(BLE_bless_isr.o)
 .ARM.attributes
                0x00001f13       0x31 .\CortexM0\ARM_GCC_493\Debug\BLE Lab 3.a(CyFlash.o)
 .ARM.attributes
                0x00001f44       0x31 .\CortexM0\ARM_GCC_493\Debug\BLE Lab 3.a(BLE_HAL_INT.o)
 .ARM.attributes
                0x00001f75       0x44 C:\9047software\PSoC Creator\3.3\PSoC Creator\psoc\content\cycomponentlibrary\CyComponentLibrary.cylib\BLE_v2_0\Library\gccCyBLEStack_BLE_SOC_PERIPHERAL.a(ll_isr.o)
 .ARM.attributes
                0x00001fb9       0x1e c:/9047software/psoc creator/3.3/psoc creator/import/gnu/arm/4.9.3/bin/../lib/gcc/arm-none-eabi/4.9.3/armv6-m\libgcc.a(_udivsi3.o)
 .ARM.attributes
                0x00001fd7       0x1e c:/9047software/psoc creator/3.3/psoc creator/import/gnu/arm/4.9.3/bin/../lib/gcc/arm-none-eabi/4.9.3/armv6-m\libgcc.a(_divsi3.o)
 .ARM.attributes
                0x00001ff5       0x1e c:/9047software/psoc creator/3.3/psoc creator/import/gnu/arm/4.9.3/bin/../lib/gcc/arm-none-eabi/4.9.3/armv6-m\libgcc.a(_dvmd_tls.o)
 .ARM.attributes
                0x00002013       0x1e c:/9047software/psoc creator/3.3/psoc creator/import/gnu/arm/4.9.3/bin/../lib/gcc/arm-none-eabi/4.9.3/armv6-m\libgcc.a(_aeabi_ldivmod.o)
 .ARM.attributes
                0x00002031       0x2c c:/9047software/psoc creator/3.3/psoc creator/import/gnu/arm/4.9.3/bin/../lib/gcc/arm-none-eabi/4.9.3/armv6-m\libgcc.a(_muldi3.o)
 .ARM.attributes
                0x0000205d       0x2c c:/9047software/psoc creator/3.3/psoc creator/import/gnu/arm/4.9.3/bin/../lib/gcc/arm-none-eabi/4.9.3/armv6-m\libgcc.a(bpabi.o)
 .ARM.attributes
                0x00002089       0x2c c:/9047software/psoc creator/3.3/psoc creator/import/gnu/arm/4.9.3/bin/../lib/gcc/arm-none-eabi/4.9.3/armv6-m\libgcc.a(divsf3.o)
 .ARM.attributes
                0x000020b5       0x2c c:/9047software/psoc creator/3.3/psoc creator/import/gnu/arm/4.9.3/bin/../lib/gcc/arm-none-eabi/4.9.3/armv6-m\libgcc.a(mulsf3.o)
 .ARM.attributes
                0x000020e1       0x2c c:/9047software/psoc creator/3.3/psoc creator/import/gnu/arm/4.9.3/bin/../lib/gcc/arm-none-eabi/4.9.3/armv6-m\libgcc.a(floatsisf.o)
 .ARM.attributes
                0x0000210d       0x1e c:/9047software/psoc creator/3.3/psoc creator/import/gnu/arm/4.9.3/bin/../lib/gcc/arm-none-eabi/4.9.3/armv6-m\libgcc.a(_clzsi2.o)
 .ARM.attributes
                0x0000212b       0x2c c:/9047software/psoc creator/3.3/psoc creator/import/gnu/arm/4.9.3/bin/../lib/gcc/arm-none-eabi/4.9.3/armv6-m\libgcc.a(_divdi3.o)
 .ARM.attributes
                0x00002157       0x2c c:/9047software/psoc creator/3.3/psoc creator/import/gnu/arm/4.9.3/bin/../lib/gcc/arm-none-eabi/4.9.3/armv6-m\libgcc.a(_udivdi3.o)
 .ARM.attributes
                0x00002183       0x1e c:/9047software/psoc creator/3.3/psoc creator/import/gnu/arm/4.9.3/bin/../lib/gcc/arm-none-eabi/4.9.3/armv6-m\libgcc.a(_clzdi2.o)
 .ARM.attributes
                0x000021a1       0x2c c:/9047software/psoc creator/3.3/psoc creator/import/gnu/arm/4.9.3/bin/../lib/gcc/arm-none-eabi/4.9.3/../../../../arm-none-eabi/lib/armv6-m\libg_nano.a(lib_a-errno.o)
 .ARM.attributes
                0x000021cd       0x2c c:/9047software/psoc creator/3.3/psoc creator/import/gnu/arm/4.9.3/bin/../lib/gcc/arm-none-eabi/4.9.3/../../../../arm-none-eabi/lib/armv6-m\libg_nano.a(lib_a-exit.o)
 .ARM.attributes
                0x000021f9       0x2c c:/9047software/psoc creator/3.3/psoc creator/import/gnu/arm/4.9.3/bin/../lib/gcc/arm-none-eabi/4.9.3/../../../../arm-none-eabi/lib/armv6-m\libg_nano.a(lib_a-impure.o)
 .ARM.attributes
                0x00002225       0x2c c:/9047software/psoc creator/3.3/psoc creator/import/gnu/arm/4.9.3/bin/../lib/gcc/arm-none-eabi/4.9.3/../../../../arm-none-eabi/lib/armv6-m\libg_nano.a(lib_a-init.o)
 .ARM.attributes
                0x00002251       0x2c c:/9047software/psoc creator/3.3/psoc creator/import/gnu/arm/4.9.3/bin/../lib/gcc/arm-none-eabi/4.9.3/../../../../arm-none-eabi/lib/armv6-m\libg_nano.a(lib_a-memcmp.o)
 .ARM.attributes
                0x0000227d       0x2c c:/9047software/psoc creator/3.3/psoc creator/import/gnu/arm/4.9.3/bin/../lib/gcc/arm-none-eabi/4.9.3/../../../../arm-none-eabi/lib/armv6-m\libg_nano.a(lib_a-memcpy.o)
 .ARM.attributes
                0x000022a9       0x2c c:/9047software/psoc creator/3.3/psoc creator/import/gnu/arm/4.9.3/bin/../lib/gcc/arm-none-eabi/4.9.3/../../../../arm-none-eabi/lib/armv6-m\libg_nano.a(lib_a-memset.o)
 .ARM.attributes
                0x000022d5       0x2c c:/9047software/psoc creator/3.3/psoc creator/import/gnu/arm/4.9.3/bin/../lib/gcc/arm-none-eabi/4.9.3/armv6-m/crtend.o
 .ARM.attributes
                0x00002301       0x1e c:/9047software/psoc creator/3.3/psoc creator/import/gnu/arm/4.9.3/bin/../lib/gcc/arm-none-eabi/4.9.3/armv6-m/crtn.o

/DISCARD/
 *(.note.GNU-stack)
OUTPUT(.\CortexM0\ARM_GCC_493\Debug\BLE Lab 3.elf elf32-littlearm)
